libgmsh.so.4.8:CCbigguy_addmult
libgmsh.so.4.8:CCbigguy_bigguytod
libgmsh.so.4.8:CCbigguy_ceil
libgmsh.so.4.8:CCbigguy_cmp
libgmsh.so.4.8:CCbigguy_dtobigguy
libgmsh.so.4.8:CCbigguy_itobigguy
libgmsh.so.4.8:CCbigguy_sread
libgmsh.so.4.8:CCbigguy_swrite
libgmsh.so.4.8:CCcut_SRK_buildgraph
libgmsh.so.4.8:CCcut_SRK_defluff
libgmsh.so.4.8:CCcut_SRK_expand
libgmsh.so.4.8:CCcut_SRK_free_expinfo
libgmsh.so.4.8:CCcut_SRK_free_graph
libgmsh.so.4.8:CCcut_SRK_grab_edges
libgmsh.so.4.8:CCcut_SRK_grab_nodes
libgmsh.so.4.8:CCcut_SRK_identify_nodes
libgmsh.so.4.8:CCcut_SRK_identify_one_triangles
libgmsh.so.4.8:CCcut_SRK_identify_ones
libgmsh.so.4.8:CCcut_SRK_identify_paths
libgmsh.so.4.8:CCcut_SRK_identify_paths_to_edges
libgmsh.so.4.8:CCcut_SRK_identify_pr_edges
libgmsh.so.4.8:CCcut_SRK_init_callback
libgmsh.so.4.8:CCcut_SRK_init_expinfo
libgmsh.so.4.8:CCcut_SRK_init_graph
libgmsh.so.4.8:CCcut_SRK_subtour_shrink
libgmsh.so.4.8:CCcut_SRK_trivial
libgmsh.so.4.8:CCcut_connect_components
libgmsh.so.4.8:CCcut_linsub
libgmsh.so.4.8:CCcut_mincut
libgmsh.so.4.8:CCcut_mincut_st
libgmsh.so.4.8:CCcut_violated_cuts
libgmsh.so.4.8:CCedgegen_edges
libgmsh.so.4.8:CCedgegen_init_edgegengroup
libgmsh.so.4.8:CCedgegen_junk_k_nearest
libgmsh.so.4.8:CCedgegen_junk_nearest_neighbor_tour
libgmsh.so.4.8:CCedgegen_junk_node_k_nearest
libgmsh.so.4.8:CCedgegen_junk_node_nearest
libgmsh.so.4.8:CCedgegen_read
libgmsh.so.4.8:CCedgegen_x_k_nearest
libgmsh.so.4.8:CCedgegen_x_nearest_neighbor_tour
libgmsh.so.4.8:CCedgegen_x_node_k_nearest
libgmsh.so.4.8:CCedgegen_x_node_nearest
libgmsh.so.4.8:CCedgegen_x_node_quadrant_k_nearest
libgmsh.so.4.8:CCedgegen_x_quadrant_k_nearest
libgmsh.so.4.8:CCedgegen_xnear_build
libgmsh.so.4.8:CCedgegen_xnear_free
libgmsh.so.4.8:CCfmatch_fractional_2match
libgmsh.so.4.8:CCkdtree_3opt_tour
libgmsh.so.4.8:CCkdtree_boruvka_tour
libgmsh.so.4.8:CCkdtree_build
libgmsh.so.4.8:CCkdtree_delete
libgmsh.so.4.8:CCkdtree_delete_all
libgmsh.so.4.8:CCkdtree_far_add_tour
libgmsh.so.4.8:CCkdtree_fixed_radius_nearest
libgmsh.so.4.8:CCkdtree_free
libgmsh.so.4.8:CCkdtree_greedy_tour
libgmsh.so.4.8:CCkdtree_k_nearest
libgmsh.so.4.8:CCkdtree_nearest_neighbor_2match
libgmsh.so.4.8:CCkdtree_nearest_neighbor_tour
libgmsh.so.4.8:CCkdtree_node_k_nearest
libgmsh.so.4.8:CCkdtree_node_nearest
libgmsh.so.4.8:CCkdtree_node_quadrant_k_nearest
libgmsh.so.4.8:CCkdtree_prim_spanningtree
libgmsh.so.4.8:CCkdtree_qboruvka_tour
libgmsh.so.4.8:CCkdtree_quadrant_k_nearest
libgmsh.so.4.8:CCkdtree_twoopt_tour
libgmsh.so.4.8:CCkdtree_undelete
libgmsh.so.4.8:CCkdtree_undelete_all
libgmsh.so.4.8:CClinkern_flipper_cycle
libgmsh.so.4.8:CClinkern_flipper_finish
libgmsh.so.4.8:CClinkern_flipper_flip
libgmsh.so.4.8:CClinkern_flipper_free_world
libgmsh.so.4.8:CClinkern_flipper_init
libgmsh.so.4.8:CClinkern_flipper_next
libgmsh.so.4.8:CClinkern_flipper_prev
libgmsh.so.4.8:CClinkern_flipper_sequence
libgmsh.so.4.8:CClinkern_tour
libgmsh.so.4.8:CClp_addcols
libgmsh.so.4.8:CClp_addrows
libgmsh.so.4.8:CClp_basis
libgmsh.so.4.8:CClp_delete_column
libgmsh.so.4.8:CClp_delete_row
libgmsh.so.4.8:CClp_delete_set_of_columns
libgmsh.so.4.8:CClp_delete_set_of_rows
libgmsh.so.4.8:CClp_dualopt
libgmsh.so.4.8:CClp_dump_lp
libgmsh.so.4.8:CClp_free
libgmsh.so.4.8:CClp_free_basis
libgmsh.so.4.8:CClp_get_basis_and_norms
libgmsh.so.4.8:CClp_getbasis_and_norms
libgmsh.so.4.8:CClp_getfarkasmultipliers
libgmsh.so.4.8:CClp_getgoodlist
libgmsh.so.4.8:CClp_getweight
libgmsh.so.4.8:CClp_init
libgmsh.so.4.8:CClp_init_basis
libgmsh.so.4.8:CClp_init_struct
libgmsh.so.4.8:CClp_limited_dualopt
libgmsh.so.4.8:CClp_load_basis_and_norms
libgmsh.so.4.8:CClp_loadbasis
libgmsh.so.4.8:CClp_loadbasis_and_norms
libgmsh.so.4.8:CClp_loadlp
libgmsh.so.4.8:CClp_nonzeros
libgmsh.so.4.8:CClp_objval
libgmsh.so.4.8:CClp_opt
libgmsh.so.4.8:CClp_pi_range
libgmsh.so.4.8:CClp_pivotin
libgmsh.so.4.8:CClp_primalopt
libgmsh.so.4.8:CClp_rc
libgmsh.so.4.8:CClp_setbnd
libgmsh.so.4.8:CClp_status
libgmsh.so.4.8:CClp_strongbranch
libgmsh.so.4.8:CClp_x
libgmsh.so.4.8:CCtsp_add_branchhistory_to_lp
libgmsh.so.4.8:CCtsp_add_cut
libgmsh.so.4.8:CCtsp_add_cut_to_cutlist
libgmsh.so.4.8:CCtsp_add_cuts_to_queue
libgmsh.so.4.8:CCtsp_add_multiple_rows
libgmsh.so.4.8:CCtsp_add_node_to_lpclique
libgmsh.so.4.8:CCtsp_add_nzlist_to_lp
libgmsh.so.4.8:CCtsp_add_to_cutpool
libgmsh.so.4.8:CCtsp_add_to_cutpool_lpcut_in
libgmsh.so.4.8:CCtsp_add_vars_to_lp
libgmsh.so.4.8:CCtsp_addbad_variables
libgmsh.so.4.8:CCtsp_array_to_lpclique
libgmsh.so.4.8:CCtsp_array_to_subtour
libgmsh.so.4.8:CCtsp_bb_cutting
libgmsh.so.4.8:CCtsp_bb_find_branch
libgmsh.so.4.8:CCtsp_bb_init_lp
libgmsh.so.4.8:CCtsp_bb_splitprob
libgmsh.so.4.8:CCtsp_bfs_brancher
libgmsh.so.4.8:CCtsp_branch_cutpool_cliques
libgmsh.so.4.8:CCtsp_build_lpadj
libgmsh.so.4.8:CCtsp_build_lpgraph
libgmsh.so.4.8:CCtsp_buildcut_abort
libgmsh.so.4.8:CCtsp_buildcut_addclique
libgmsh.so.4.8:CCtsp_buildcut_begin
libgmsh.so.4.8:CCtsp_buildcut_finish
libgmsh.so.4.8:CCtsp_call_x_heuristic
libgmsh.so.4.8:CCtsp_check_integral
libgmsh.so.4.8:CCtsp_clique_count
libgmsh.so.4.8:CCtsp_clique_delta
libgmsh.so.4.8:CCtsp_clique_to_array
libgmsh.so.4.8:CCtsp_connect_cuts
libgmsh.so.4.8:CCtsp_copy_lpclique
libgmsh.so.4.8:CCtsp_copy_lpcut_in
libgmsh.so.4.8:CCtsp_cutprice
libgmsh.so.4.8:CCtsp_cutting_loop
libgmsh.so.4.8:CCtsp_delete_cut
libgmsh.so.4.8:CCtsp_delete_cut_from_cutlist
libgmsh.so.4.8:CCtsp_delete_node_from_lpclique
libgmsh.so.4.8:CCtsp_display_cutpool
libgmsh.so.4.8:CCtsp_do_interactive_branch
libgmsh.so.4.8:CCtsp_dump_x
libgmsh.so.4.8:CCtsp_dumptour
libgmsh.so.4.8:CCtsp_easy_dfs_brancher
libgmsh.so.4.8:CCtsp_edge_elimination
libgmsh.so.4.8:CCtsp_edgehash_add
libgmsh.so.4.8:CCtsp_edgehash_del
libgmsh.so.4.8:CCtsp_edgehash_delall
libgmsh.so.4.8:CCtsp_edgehash_find
libgmsh.so.4.8:CCtsp_edgehash_free
libgmsh.so.4.8:CCtsp_edgehash_init
libgmsh.so.4.8:CCtsp_edgelist_to_genadj
libgmsh.so.4.8:CCtsp_eliminate_variables
libgmsh.so.4.8:CCtsp_exact_dual
libgmsh.so.4.8:CCtsp_exact_price
libgmsh.so.4.8:CCtsp_exact_subtours
libgmsh.so.4.8:CCtsp_execute_branch
libgmsh.so.4.8:CCtsp_execute_unbranch
libgmsh.so.4.8:CCtsp_file_cuts
libgmsh.so.4.8:CCtsp_file_cuts_write
libgmsh.so.4.8:CCtsp_find_branch
libgmsh.so.4.8:CCtsp_find_branch_cliques
libgmsh.so.4.8:CCtsp_find_branch_edge
libgmsh.so.4.8:CCtsp_find_edge
libgmsh.so.4.8:CCtsp_find_pure_handle
libgmsh.so.4.8:CCtsp_free_bigdual
libgmsh.so.4.8:CCtsp_free_branchobj
libgmsh.so.4.8:CCtsp_free_cliquehash
libgmsh.so.4.8:CCtsp_free_cutpool
libgmsh.so.4.8:CCtsp_free_edgegenerator
libgmsh.so.4.8:CCtsp_free_lpclique
libgmsh.so.4.8:CCtsp_free_lpcut_in
libgmsh.so.4.8:CCtsp_free_lpgraph
libgmsh.so.4.8:CCtsp_free_lprow
libgmsh.so.4.8:CCtsp_free_qsparsify
libgmsh.so.4.8:CCtsp_free_tsp_lp_struct
libgmsh.so.4.8:CCtsp_generate_edges
libgmsh.so.4.8:CCtsp_get_lp_result
libgmsh.so.4.8:CCtsp_infeas_recover
libgmsh.so.4.8:CCtsp_init_branchobj
libgmsh.so.4.8:CCtsp_init_cliquehash
libgmsh.so.4.8:CCtsp_init_cutpool
libgmsh.so.4.8:CCtsp_init_cutselect
libgmsh.so.4.8:CCtsp_init_edgegenerator
libgmsh.so.4.8:CCtsp_init_lp
libgmsh.so.4.8:CCtsp_init_lpclique
libgmsh.so.4.8:CCtsp_init_lpcut_in
libgmsh.so.4.8:CCtsp_init_lpgraph_struct
libgmsh.so.4.8:CCtsp_init_lprow
libgmsh.so.4.8:CCtsp_init_tighten_info
libgmsh.so.4.8:CCtsp_init_tsp_lp_struct
libgmsh.so.4.8:CCtsp_inspect_full_edges
libgmsh.so.4.8:CCtsp_is_clique_marked
libgmsh.so.4.8:CCtsp_lpclique_compare
libgmsh.so.4.8:CCtsp_lpcut_in_nzlist
libgmsh.so.4.8:CCtsp_lpcut_to_lpcut_in
libgmsh.so.4.8:CCtsp_mark_clique
libgmsh.so.4.8:CCtsp_mark_clique_and_neighbors
libgmsh.so.4.8:CCtsp_mark_clique_and_neighbors_double
libgmsh.so.4.8:CCtsp_mark_cut
libgmsh.so.4.8:CCtsp_mark_cut_and_neighbors
libgmsh.so.4.8:CCtsp_price_cuts
libgmsh.so.4.8:CCtsp_pricing_loop
libgmsh.so.4.8:CCtsp_print_branchhistory
libgmsh.so.4.8:CCtsp_print_lpclique
libgmsh.so.4.8:CCtsp_print_lpcut_in
libgmsh.so.4.8:CCtsp_print_tighten_info
libgmsh.so.4.8:CCtsp_prob_file_delete
libgmsh.so.4.8:CCtsp_prob_getbasis
libgmsh.so.4.8:CCtsp_prob_getchildren
libgmsh.so.4.8:CCtsp_prob_getcuts
libgmsh.so.4.8:CCtsp_prob_getedges
libgmsh.so.4.8:CCtsp_prob_getexactdual
libgmsh.so.4.8:CCtsp_prob_getexactlb
libgmsh.so.4.8:CCtsp_prob_getfixed
libgmsh.so.4.8:CCtsp_prob_getfulladj
libgmsh.so.4.8:CCtsp_prob_gethistory
libgmsh.so.4.8:CCtsp_prob_getid
libgmsh.so.4.8:CCtsp_prob_getinfeasible
libgmsh.so.4.8:CCtsp_prob_getlb
libgmsh.so.4.8:CCtsp_prob_getname
libgmsh.so.4.8:CCtsp_prob_getnnodes
libgmsh.so.4.8:CCtsp_prob_getnorms
libgmsh.so.4.8:CCtsp_prob_getparent
libgmsh.so.4.8:CCtsp_prob_getprocessed
libgmsh.so.4.8:CCtsp_prob_getreal
libgmsh.so.4.8:CCtsp_prob_gettour
libgmsh.so.4.8:CCtsp_prob_getub
libgmsh.so.4.8:CCtsp_prob_putbasis
libgmsh.so.4.8:CCtsp_prob_putchildren
libgmsh.so.4.8:CCtsp_prob_putcuts
libgmsh.so.4.8:CCtsp_prob_putedges
libgmsh.so.4.8:CCtsp_prob_putexactdual
libgmsh.so.4.8:CCtsp_prob_putexactlb
libgmsh.so.4.8:CCtsp_prob_putfixed
libgmsh.so.4.8:CCtsp_prob_putfulladj
libgmsh.so.4.8:CCtsp_prob_puthistory
libgmsh.so.4.8:CCtsp_prob_putid
libgmsh.so.4.8:CCtsp_prob_putinfeasible
libgmsh.so.4.8:CCtsp_prob_putlb
libgmsh.so.4.8:CCtsp_prob_putname
libgmsh.so.4.8:CCtsp_prob_putnnodes
libgmsh.so.4.8:CCtsp_prob_putnorms
libgmsh.so.4.8:CCtsp_prob_putparent
libgmsh.so.4.8:CCtsp_prob_putprocessed
libgmsh.so.4.8:CCtsp_prob_putreal
libgmsh.so.4.8:CCtsp_prob_puttour
libgmsh.so.4.8:CCtsp_prob_putub
libgmsh.so.4.8:CCtsp_prob_rclose
libgmsh.so.4.8:CCtsp_prob_read
libgmsh.so.4.8:CCtsp_prob_read_name
libgmsh.so.4.8:CCtsp_prob_wclose
libgmsh.so.4.8:CCtsp_prob_write
libgmsh.so.4.8:CCtsp_prob_write_name
libgmsh.so.4.8:CCtsp_process_cuts
libgmsh.so.4.8:CCtsp_qsparsify
libgmsh.so.4.8:CCtsp_read_probfile
libgmsh.so.4.8:CCtsp_read_probfile_id
libgmsh.so.4.8:CCtsp_register_clique
libgmsh.so.4.8:CCtsp_register_cliques
libgmsh.so.4.8:CCtsp_reset_edgegenerator
libgmsh.so.4.8:CCtsp_search_cutpool
libgmsh.so.4.8:CCtsp_search_cutpool_cliques
libgmsh.so.4.8:CCtsp_seglist_to_lpclique
libgmsh.so.4.8:CCtsp_segment_cuts
libgmsh.so.4.8:CCtsp_segment_to_subtour
libgmsh.so.4.8:CCtsp_splitprob
libgmsh.so.4.8:CCtsp_subtour_loop
libgmsh.so.4.8:CCtsp_teething
libgmsh.so.4.8:CCtsp_teething_lp
libgmsh.so.4.8:CCtsp_test_cut_branch
libgmsh.so.4.8:CCtsp_test_pseudocomb
libgmsh.so.4.8:CCtsp_test_pure_comb
libgmsh.so.4.8:CCtsp_test_teeth_disjoint
libgmsh.so.4.8:CCtsp_tighten_lp
libgmsh.so.4.8:CCtsp_tighten_lpcut
libgmsh.so.4.8:CCtsp_tighten_lpcut_in
libgmsh.so.4.8:CCtsp_unregister_clique
libgmsh.so.4.8:CCtsp_unregister_cliques
libgmsh.so.4.8:CCtsp_update_result
libgmsh.so.4.8:CCtsp_verify_infeasible_lp
libgmsh.so.4.8:CCtsp_verify_lp_prune
libgmsh.so.4.8:CCtsp_write_cutpool
libgmsh.so.4.8:CCtsp_write_probfile_id
libgmsh.so.4.8:CCtsp_write_probfile_sav
libgmsh.so.4.8:CCtsp_x_greedy_tour
libgmsh.so.4.8:CCtsp_x_greedy_tour_lk
libgmsh.so.4.8:CCutil_allocrus
libgmsh.so.4.8:CCutil_att_edgelen
libgmsh.so.4.8:CCutil_bigchunk_free_world
libgmsh.so.4.8:CCutil_bigchunkalloc
libgmsh.so.4.8:CCutil_bigchunkfree
libgmsh.so.4.8:CCutil_bigchunkquery
libgmsh.so.4.8:CCutil_bix_getopt
libgmsh.so.4.8:CCutil_crystal_edgelen
libgmsh.so.4.8:CCutil_datagroup_perm
libgmsh.so.4.8:CCutil_dheap_changekey
libgmsh.so.4.8:CCutil_dheap_delete
libgmsh.so.4.8:CCutil_dheap_deletemin
libgmsh.so.4.8:CCutil_dheap_findmin
libgmsh.so.4.8:CCutil_dheap_free
libgmsh.so.4.8:CCutil_dheap_init
libgmsh.so.4.8:CCutil_dheap_insert
libgmsh.so.4.8:CCutil_dheap_resize
libgmsh.so.4.8:CCutil_double_perm_quicksort
libgmsh.so.4.8:CCutil_dsjrand_edgelen
libgmsh.so.4.8:CCutil_dsjrand_init
libgmsh.so.4.8:CCutil_edge_to_cycle
libgmsh.so.4.8:CCutil_euclid3d_edgelen
libgmsh.so.4.8:CCutil_euclid_ceiling_edgelen
libgmsh.so.4.8:CCutil_euclid_edgelen
libgmsh.so.4.8:CCutil_freedatagroup
libgmsh.so.4.8:CCutil_freerus
libgmsh.so.4.8:CCutil_genhash_delete
libgmsh.so.4.8:CCutil_genhash_delete_h
libgmsh.so.4.8:CCutil_genhash_free
libgmsh.so.4.8:CCutil_genhash_hash
libgmsh.so.4.8:CCutil_genhash_init
libgmsh.so.4.8:CCutil_genhash_insert
libgmsh.so.4.8:CCutil_genhash_insert_h
libgmsh.so.4.8:CCutil_genhash_lookup
libgmsh.so.4.8:CCutil_genhash_lookup_h
libgmsh.so.4.8:CCutil_genhash_replace
libgmsh.so.4.8:CCutil_genhash_replace_h
libgmsh.so.4.8:CCutil_genhash_u_data
libgmsh.so.4.8:CCutil_geographic_edgelen
libgmsh.so.4.8:CCutil_getcycle
libgmsh.so.4.8:CCutil_getcycle_edgelist
libgmsh.so.4.8:CCutil_getdata
libgmsh.so.4.8:CCutil_getedgelist
libgmsh.so.4.8:CCutil_getedgelist_n
libgmsh.so.4.8:CCutil_getedges_double
libgmsh.so.4.8:CCutil_getmaster
libgmsh.so.4.8:CCutil_getnodeweights
libgmsh.so.4.8:CCutil_gettsplib
libgmsh.so.4.8:CCutil_ibm_edgelen
libgmsh.so.4.8:CCutil_init_dat_edgelen
libgmsh.so.4.8:CCutil_int_array_quicksort
libgmsh.so.4.8:CCutil_int_perm_quicksort
libgmsh.so.4.8:CCutil_linked_radixsort
libgmsh.so.4.8:CCutil_lprand
libgmsh.so.4.8:CCutil_matrix_edgelen
libgmsh.so.4.8:CCutil_max_edgelen
libgmsh.so.4.8:CCutil_nextprime
libgmsh.so.4.8:CCutil_our_gcd
libgmsh.so.4.8:CCutil_priority_changekey
libgmsh.so.4.8:CCutil_priority_delete
libgmsh.so.4.8:CCutil_priority_deletemin
libgmsh.so.4.8:CCutil_priority_findmin
libgmsh.so.4.8:CCutil_priority_free
libgmsh.so.4.8:CCutil_priority_init
libgmsh.so.4.8:CCutil_priority_insert
libgmsh.so.4.8:CCutil_readint
libgmsh.so.4.8:CCutil_real_zeit
libgmsh.so.4.8:CCutil_reallocrus
libgmsh.so.4.8:CCutil_reallocrus_count
libgmsh.so.4.8:CCutil_reallocrus_scale
libgmsh.so.4.8:CCutil_rselect
libgmsh.so.4.8:CCutil_sbits
libgmsh.so.4.8:CCutil_sclose
libgmsh.so.4.8:CCutil_sdelete_file
libgmsh.so.4.8:CCutil_sdelete_file_backup
libgmsh.so.4.8:CCutil_sdopen
libgmsh.so.4.8:CCutil_sflush
libgmsh.so.4.8:CCutil_sopen
libgmsh.so.4.8:CCutil_sprand
libgmsh.so.4.8:CCutil_sread
libgmsh.so.4.8:CCutil_sread_bits
libgmsh.so.4.8:CCutil_sread_char
libgmsh.so.4.8:CCutil_sread_double
libgmsh.so.4.8:CCutil_sread_double_r
libgmsh.so.4.8:CCutil_sread_int
libgmsh.so.4.8:CCutil_sread_int_r
libgmsh.so.4.8:CCutil_sread_short
libgmsh.so.4.8:CCutil_sread_short_r
libgmsh.so.4.8:CCutil_sread_string
libgmsh.so.4.8:CCutil_srewind
libgmsh.so.4.8:CCutil_sseek
libgmsh.so.4.8:CCutil_stell
libgmsh.so.4.8:CCutil_strrchr
libgmsh.so.4.8:CCutil_swrite
libgmsh.so.4.8:CCutil_swrite_bits
libgmsh.so.4.8:CCutil_swrite_char
libgmsh.so.4.8:CCutil_swrite_double
libgmsh.so.4.8:CCutil_swrite_int
libgmsh.so.4.8:CCutil_swrite_short
libgmsh.so.4.8:CCutil_swrite_string
libgmsh.so.4.8:CCutil_writecycle
libgmsh.so.4.8:CCutil_writecycle_edgelist
libgmsh.so.4.8:CCutil_writeedges
libgmsh.so.4.8:CCutil_writeedges_double
libgmsh.so.4.8:CCutil_writemaster
libgmsh.so.4.8:CCutil_zeit
libgmsh.so.4.8:GMSH_RegisterAnalyseMeshQualityPlugin
libgmsh.so.4.8:GMSH_RegisterAnnotatePlugin
libgmsh.so.4.8:GMSH_RegisterBoundaryAnglesPlugin
libgmsh.so.4.8:GMSH_RegisterBubblesPlugin
libgmsh.so.4.8:GMSH_RegisterCrackPlugin
libgmsh.so.4.8:GMSH_RegisterCurlPlugin
libgmsh.so.4.8:GMSH_RegisterCurvedBndDistPlugin
libgmsh.so.4.8:GMSH_RegisterCutBoxPlugin
libgmsh.so.4.8:GMSH_RegisterCutGridPlugin
libgmsh.so.4.8:GMSH_RegisterCutMeshPlugin
libgmsh.so.4.8:GMSH_RegisterCutParametricPlugin
libgmsh.so.4.8:GMSH_RegisterCutPlanePlugin
libgmsh.so.4.8:GMSH_RegisterCutSpherePlugin
libgmsh.so.4.8:GMSH_RegisterDiscretizationErrorPlugin
libgmsh.so.4.8:GMSH_RegisterDistancePlugin
libgmsh.so.4.8:GMSH_RegisterDivergencePlugin
libgmsh.so.4.8:GMSH_RegisterEigenvaluesPlugin
libgmsh.so.4.8:GMSH_RegisterEigenvectorsPlugin
libgmsh.so.4.8:GMSH_RegisterExtractEdgesPlugin
libgmsh.so.4.8:GMSH_RegisterExtractElementsPlugin
libgmsh.so.4.8:GMSH_RegisterFieldFromAmplitudePhasePlugin
libgmsh.so.4.8:GMSH_RegisterGaussPointsPlugin
libgmsh.so.4.8:GMSH_RegisterGradientPlugin
libgmsh.so.4.8:GMSH_RegisterHarmonicToTimePlugin
libgmsh.so.4.8:GMSH_RegisterHomologyComputationPlugin
libgmsh.so.4.8:GMSH_RegisterHomologyPostProcessingPlugin
libgmsh.so.4.8:GMSH_RegisterIntegratePlugin
libgmsh.so.4.8:GMSH_RegisterInvisiblePlugin
libgmsh.so.4.8:GMSH_RegisterIsosurfacePlugin
libgmsh.so.4.8:GMSH_RegisterLambda2Plugin
libgmsh.so.4.8:GMSH_RegisterLongituteLatitudePlugin
libgmsh.so.4.8:GMSH_RegisterMakeSimplexPlugin
libgmsh.so.4.8:GMSH_RegisterMathEvalPlugin
libgmsh.so.4.8:GMSH_RegisterMeshSizeFieldViewPlugin
libgmsh.so.4.8:GMSH_RegisterMeshSubEntitiesPlugin
libgmsh.so.4.8:GMSH_RegisterMeshVolumePlugin
libgmsh.so.4.8:GMSH_RegisterMinMaxPlugin
libgmsh.so.4.8:GMSH_RegisterModifyComponentsPlugin
libgmsh.so.4.8:GMSH_RegisterModulusPhasePlugin
libgmsh.so.4.8:GMSH_RegisterNearToFarFieldPlugin
libgmsh.so.4.8:GMSH_RegisterNearestNeighborPlugin
libgmsh.so.4.8:GMSH_RegisterNewViewPlugin
libgmsh.so.4.8:GMSH_RegisterParticlesPlugin
libgmsh.so.4.8:GMSH_RegisterProbePlugin
libgmsh.so.4.8:GMSH_RegisterRemovePlugin
libgmsh.so.4.8:GMSH_RegisterScal2TensPlugin
libgmsh.so.4.8:GMSH_RegisterScal2VecPlugin
libgmsh.so.4.8:GMSH_RegisterShowNeighborElementsPlugin
libgmsh.so.4.8:GMSH_RegisterSimplePartitionPlugin
libgmsh.so.4.8:GMSH_RegisterSkinPlugin
libgmsh.so.4.8:GMSH_RegisterSmoothPlugin
libgmsh.so.4.8:GMSH_RegisterSpanningTreePlugin
libgmsh.so.4.8:GMSH_RegisterSphericalRaisePlugin
libgmsh.so.4.8:GMSH_RegisterStreamLinesPlugin
libgmsh.so.4.8:GMSH_RegisterSummationPlugin
libgmsh.so.4.8:GMSH_RegisterTetrahedralizePlugin
libgmsh.so.4.8:GMSH_RegisterTransformPlugin
libgmsh.so.4.8:GMSH_RegisterTriangulatePlugin
libgmsh.so.4.8:GMSH_RegisterVoroMetalPlugin
libgmsh.so.4.8:GMSH_RegisterWarpPlugin
libgmsh.so.4.8:Ng_ClearSolutionData
libgmsh.so.4.8:Ng_InitSolutionData
libgmsh.so.4.8:Ng_Redraw
libgmsh.so.4.8:Ng_SetSolutionData
libgmsh.so.4.8:XPQ_find_root
libgmsh.so.4.8:XPQ_free_all
libgmsh.so.4.8:XPQ_init_tree
libgmsh.so.4.8:XPQ_process
libgmsh.so.4.8:XPQ_restore_tree
libgmsh.so.4.8:XPQ_save_tree
libgmsh.so.4.8:XPQ_save_tree_free
libgmsh.so.4.8:XTmark_components
libgmsh.so.4.8:Xadd_edgeptr
libgmsh.so.4.8:Xadd_extralink
libgmsh.so.4.8:Xadd_intptrptr
libgmsh.so.4.8:Xadd_neckedgeptr
libgmsh.so.4.8:Xadd_nodeptr
libgmsh.so.4.8:Xadd_nodeptrptr
libgmsh.so.4.8:Xadd_tooth
libgmsh.so.4.8:Xall_tightcuts
libgmsh.so.4.8:Xbasicclique
libgmsh.so.4.8:Xbasiccliques
libgmsh.so.4.8:Xblinkalloc
libgmsh.so.4.8:Xblinkfree
libgmsh.so.4.8:Xblobcuts
libgmsh.so.4.8:Xblobsviolated
libgmsh.so.4.8:Xblockcombs
libgmsh.so.4.8:Xblockptralloc
libgmsh.so.4.8:Xblockptrfree
libgmsh.so.4.8:Xbuildgraph
libgmsh.so.4.8:Xbuildpseudonodelist
libgmsh.so.4.8:Xbuildpseudonodenumbers
libgmsh.so.4.8:Xcheckclique
libgmsh.so.4.8:Xcheckcomb
libgmsh.so.4.8:Xcleancomb
libgmsh.so.4.8:Xclinkalloc
libgmsh.so.4.8:Xclinkfree
libgmsh.so.4.8:Xclique_hash_value
libgmsh.so.4.8:Xcliquealloc
libgmsh.so.4.8:Xcliquefluff
libgmsh.so.4.8:Xcliquefree
libgmsh.so.4.8:Xcliquetree
libgmsh.so.4.8:Xcliquetree_slack_rhs_flow
libgmsh.so.4.8:Xcliquetree_work
libgmsh.so.4.8:Xcliquetrees
libgmsh.so.4.8:Xcomb_hash_value
libgmsh.so.4.8:Xcombfluff
libgmsh.so.4.8:Xcombhashalloc
libgmsh.so.4.8:Xcombhashfree
libgmsh.so.4.8:Xconsecutiveones
libgmsh.so.4.8:Xcplane_list_free
libgmsh.so.4.8:Xcplane_to_iplane
libgmsh.so.4.8:Xcplanealloc
libgmsh.so.4.8:Xcplanefree
libgmsh.so.4.8:Xcurrentedge
libgmsh.so.4.8:Xcut_hash_value
libgmsh.so.4.8:Xcutchecksout
libgmsh.so.4.8:Xcutnodeptralloc
libgmsh.so.4.8:Xcutnodeptrfree
libgmsh.so.4.8:Xcuttree_free
libgmsh.so.4.8:Xcuttree_nodealloc
libgmsh.so.4.8:Xcuttree_nodefree
libgmsh.so.4.8:Xdestroypseudonodelist
libgmsh.so.4.8:Xdumpchvatalcomb
libgmsh.so.4.8:Xdumpcliquetree
libgmsh.so.4.8:Xdumppseudograph
libgmsh.so.4.8:Xdumppseudograph_edgelist
libgmsh.so.4.8:Xedge_list_free
libgmsh.so.4.8:Xedgealloc
libgmsh.so.4.8:Xedgefree
libgmsh.so.4.8:Xedgeptr_list_free
libgmsh.so.4.8:Xedgeptralloc
libgmsh.so.4.8:Xedgeptrfree
libgmsh.so.4.8:Xeqnalloc
libgmsh.so.4.8:Xeqnfree
libgmsh.so.4.8:Xexactblossomcheck
libgmsh.so.4.8:Xexactblossoms_run
libgmsh.so.4.8:Xexactcutcheck
libgmsh.so.4.8:Xexactsubtours
libgmsh.so.4.8:Xextralink_list_free
libgmsh.so.4.8:Xfastcuts
libgmsh.so.4.8:Xfastsubtours
libgmsh.so.4.8:Xflow
libgmsh.so.4.8:Xfreecplanelist
libgmsh.so.4.8:Xfreecplanestruct
libgmsh.so.4.8:Xfreegraph
libgmsh.so.4.8:Xfreeiplanestruct
libgmsh.so.4.8:Xfreepancake
libgmsh.so.4.8:Xfreeteeth
libgmsh.so.4.8:Xglobalcombs
libgmsh.so.4.8:Xgomory_hu
libgmsh.so.4.8:Xheavy_edge_cuts
libgmsh.so.4.8:Xhistok
libgmsh.so.4.8:Xinduced_edges_flow
libgmsh.so.4.8:Xinit_hash_values
libgmsh.so.4.8:Xintptr_list_free
libgmsh.so.4.8:Xintptralloc
libgmsh.so.4.8:Xintptrfree
libgmsh.so.4.8:Xintptrptr_list_free
libgmsh.so.4.8:Xintptrptr_list_freeall
libgmsh.so.4.8:Xintptrptralloc
libgmsh.so.4.8:Xintptrptrfree
libgmsh.so.4.8:Xiplane_list_free
libgmsh.so.4.8:Xiplane_to_cplane
libgmsh.so.4.8:Xiplane_to_portablecut
libgmsh.so.4.8:Xiplanealloc
libgmsh.so.4.8:Xiplanefree
libgmsh.so.4.8:Xloadcplane
libgmsh.so.4.8:Xloadcplane_cut
libgmsh.so.4.8:Xloadx
libgmsh.so.4.8:Xlocalcombs
libgmsh.so.4.8:Xlocalshrink_a
libgmsh.so.4.8:Xlocalshrink_b
libgmsh.so.4.8:Xlocalshrink_c
libgmsh.so.4.8:Xmarktooth
libgmsh.so.4.8:Xmarktoothend
libgmsh.so.4.8:Xmincut
libgmsh.so.4.8:Xneckedgeptr_list_free
libgmsh.so.4.8:Xneckedgeptralloc
libgmsh.so.4.8:Xneckedgeptrfree
libgmsh.so.4.8:Xnecklacecuts
libgmsh.so.4.8:Xnecklaces
libgmsh.so.4.8:Xnewkids
libgmsh.so.4.8:Xnodealloc
libgmsh.so.4.8:Xnodefree
libgmsh.so.4.8:Xnodeptr_list_free
libgmsh.so.4.8:Xnodeptralloc
libgmsh.so.4.8:Xnodeptrfree
libgmsh.so.4.8:Xnodeptrptr_list_free
libgmsh.so.4.8:Xnodeptrptralloc
libgmsh.so.4.8:Xnodeptrptrfree
libgmsh.so.4.8:Xolaf
libgmsh.so.4.8:Xolaf_combs
libgmsh.so.4.8:Xpancakex
libgmsh.so.4.8:Xportablecut_to_cplane
libgmsh.so.4.8:Xportablecut_to_handles_and_teeth
libgmsh.so.4.8:Xportablecut_to_iplane
libgmsh.so.4.8:Xprintchvatalcomb
libgmsh.so.4.8:Xprintcliquetree
libgmsh.so.4.8:Xrebuildcadj
libgmsh.so.4.8:Xrepeat_1_shrink
libgmsh.so.4.8:Xrunconnectcuts
libgmsh.so.4.8:Xsearch_cutpool_for_slack_cliques
libgmsh.so.4.8:Xsearchbasiccliques
libgmsh.so.4.8:Xshrinkprocess
libgmsh.so.4.8:Xshrinksmallblobs
libgmsh.so.4.8:Xsimpleshrink
libgmsh.so.4.8:Xslackclique
libgmsh.so.4.8:Xslowcuts
libgmsh.so.4.8:Xtemp_combcheck
libgmsh.so.4.8:Xtemp_combfluff
libgmsh.so.4.8:Xtemp_doblossom
libgmsh.so.4.8:Xtightblobs
libgmsh.so.4.8:Xunion_nodeptr
libgmsh.so.4.8:Xviolated_clique_flow
libgmsh.so.4.8:_Z10CreatePathRKNSt7__cxx1112basic_stringIcSt11char_traitsIcESaIcEEE
libgmsh.so.4.8:_Z10EndSurfaceP7Surface
libgmsh.so.4.8:_Z10FindVolumei
libgmsh.so.4.8:_Z10FreeVertexPvS_
libgmsh.so.4.8:_Z10FreeVolumePvS_
libgmsh.so.4.8:_Z10GetOptionsbb
libgmsh.so.4.8:_Z10GmshRemotev
libgmsh.so.4.8:_Z10HSV_to_RGBdddPdS_S_
libgmsh.so.4.8:_Z10IsoSimplexPdS_S_S_dS_S_S_S_
libgmsh.so.4.8:_Z10List_ResetP6List_T
libgmsh.so.4.8:_Z10List_WriteP6List_TiPv
libgmsh.so.4.8:_Z10MElementBBPvPdS0_
libgmsh.so.4.8:_Z10NEWSURFACEv
libgmsh.so.4.8:_Z10PrintUsageRKNSt7__cxx1112basic_stringIcSt11char_traitsIcESaIcEEE
libgmsh.so.4.8:_Z10ProtudeXYZRdS_S_P13ExtrudeParams
libgmsh.so.4.8:_Z10RGB_to_HSVdddPdS_S_
libgmsh.so.4.8:_Z10RefineMeshP6GModelbbb
libgmsh.so.4.8:_Z10SplitCurveiP6List_TS0_
libgmsh.so.4.8:_Z10SystemCallRKNSt7__cxx1112basic_stringIcSt11char_traitsIcESaIcEEEb
libgmsh.so.4.8:_Z10Tree_QueryP6Tree_TPv
libgmsh.so.4.8:_Z10UnlinkFileRKNSt7__cxx1112basic_stringIcSt11char_traitsIcESaIcEEE
libgmsh.so.4.8:_Z10angle_02pid
libgmsh.so.4.8:_Z10angle_planPdS_S_S_
libgmsh.so.4.8:_Z10annAllocPtid
libgmsh.so.4.8:_Z10annPrintPtPdiRSo
libgmsh.so.4.8:_Z10assignFaceP5GFaceRSt3setIP8MElementSt4lessIS3_ESaIS3_EE
libgmsh.so.4.8:_Z10avl_deleteP15avl_tree_structPPvS2_
libgmsh.so.4.8:_Z10avl_insertP15avl_tree_structPvS1_
libgmsh.so.4.8:_Z10avl_lookupP15avl_tree_structPvPS1_
libgmsh.so.4.8:_Z10avl_numcmpPKvS0_
libgmsh.so.4.8:_Z10catchPausev
libgmsh.so.4.8:_Z10cgnsImportv
libgmsh.so.4.8:_Z10cgnsStringRKNSt7__cxx1112basic_stringIcSt11char_traitsIcESaIcEEEm
libgmsh.so.4.8:_Z10char2floatc
libgmsh.so.4.8:_Z10cmp_hedgesRKSt4pairI5MEdgemES3_
libgmsh.so.4.8:_Z10convertIntB5cxx11i
libgmsh.so.4.8:_Z10create_gifP8_IO_FILEP11PixelBufferiiii
libgmsh.so.4.8:_Z10create_pngP8_IO_FILEP11PixelBufferi
libgmsh.so.4.8:_Z10create_ppmP8_IO_FILEP11PixelBuffer
libgmsh.so.4.8:_Z10create_yuvP8_IO_FILEP11PixelBuffer
libgmsh.so.4.8:_Z10eigenvaluePA3_dPd
libgmsh.so.4.8:_Z10fair_splitPPdPiRK11ANNorthRectiiRiRdS5_
libgmsh.so.4.8:_Z10findCavityRSt6vectorI8faceXtetSaIS0_EERS_IP5MTet4SaIS5_EEP7MVertexS5_
libgmsh.so.4.8:_Z10float2charf
libgmsh.so.4.8:_Z10getNGQHPtsi
libgmsh.so.4.8:_Z10getNGQLPtsi
libgmsh.so.4.8:_Z10getNGQQPtsi
libgmsh.so.4.8:_Z10getNGQTPtsi
libgmsh.so.4.8:_Z10gmsh_yylexv
libgmsh.so.4.8:_Z10isLastQInVRKSt6vectorIP7DI_QuadSaIS1_EEi
libgmsh.so.4.8:_Z10mesh_1d_cbP9Fl_WidgetPv
libgmsh.so.4.8:_Z10mesh_2d_cbP9Fl_WidgetPv
libgmsh.so.4.8:_Z10mesh_3d_cbP9Fl_WidgetPv
libgmsh.so.4.8:_Z10options_cbP9Fl_WidgetPv
libgmsh.so.4.8:_Z10preProcessRKNSt7__cxx1112basic_stringIcSt11char_traitsIcESaIcEEES6_
libgmsh.so.4.8:_Z10qualityTriPK8DI_PointS1_S1_
libgmsh.so.4.8:_Z10read_arrayNSt7__cxx1112basic_stringIcSt11char_traitsIcESaIcEEEc
libgmsh.so.4.8:_Z10recurAddLsP12RecurElement
libgmsh.so.4.8:_Z10signChangeP12RecurElementPK10DI_ElementRKSt6vectorIP9gLevelsetSaIS6_EEPPd
libgmsh.so.4.8:_Z10topoExistsP6GModel
libgmsh.so.4.8:_Z10updateFltkv
libgmsh.so.4.8:_Z10validFacesR5PrismRSt3mapIP7MVertexSt3setIP8MElementSt4lessIS6_ESaIS6_EES7_IS3_ESaISt4pairIKS3_SA_EEE
libgmsh.so.4.8:_Z11CSRList_AddP9CSRList_TPKv
libgmsh.so.4.8:_Z11CSRList_NbrP9CSRList_T
libgmsh.so.4.8:_Z11ColorOptioniPKciS0_Rjb
libgmsh.so.4.8:_Z11CreateCurveiiiP6List_TS0_iiddRb
libgmsh.so.4.8:_Z11CutTrianglePdS_S_S_ddS_S_S_S_
libgmsh.so.4.8:_Z11DeleteCurveib
libgmsh.so.4.8:_Z11DeletePointib
libgmsh.so.4.8:_Z11DilatShapesddddddP6List_T
libgmsh.so.4.8:_Z11FindSurfacei
libgmsh.so.4.8:_Z11FixPathNameRKNSt7__cxx1112basic_stringIcSt11char_traitsIcESaIcEEE
libgmsh.so.4.8:_Z11FreeSurfacePvS_
libgmsh.so.4.8:_Z11GetHostNameB5cxx11v
libgmsh.so.4.8:_Z11InitOptionsi
libgmsh.so.4.8:_Z11IsoTrianglePdS_S_S_dS_S_S_
libgmsh.so.4.8:_Z11KillProcessi
libgmsh.so.4.8:_Z11List_ActionP6List_TPFvPvS1_E
libgmsh.so.4.8:_Z11List_Createiii
libgmsh.so.4.8:_Z11List_DeleteP6List_T
libgmsh.so.4.8:_Z11List_InvertP6List_TS0_
libgmsh.so.4.8:_Z11List_PQueryP6List_TPvPFiPKvS3_E
libgmsh.so.4.8:_Z11List_RemoveP6List_Ti
libgmsh.so.4.8:_Z11List_SearchP6List_TPvPFiPKvS3_E
libgmsh.so.4.8:_Z11List_UniqueP6List_TPFiPKvS2_E
libgmsh.so.4.8:_Z11NEWLINELOOPv
libgmsh.so.4.8:_Z11NEWPHYSICALv
libgmsh.so.4.8:_Z11OpenProjectRKNSt7__cxx1112basic_stringIcSt11char_traitsIcESaIcEEEb
libgmsh.so.4.8:_Z11ParseStringRKNSt7__cxx1112basic_stringIcSt11char_traitsIcESaIcEEEb
libgmsh.so.4.8:_Z11SortHilbertRSt6vectorIP7MVertexSaIS1_EE
libgmsh.so.4.8:_Z11SplitStringRKNSt7__cxx1112basic_stringIcSt11char_traitsIcESaIcEEEcb
libgmsh.so.4.8:_Z11Tree_ActionP6Tree_TPFvPvS1_E
libgmsh.so.4.8:_Z11Tree_CreateiPFiPKvS0_E
libgmsh.so.4.8:_Z11Tree_DeleteP6Tree_T
libgmsh.so.4.8:_Z11Tree_DeleteP6Tree_TPFvPvE
libgmsh.so.4.8:_Z11Tree_InsertP6Tree_TPv
libgmsh.so.4.8:_Z11Tree_PQueryP6Tree_TPv
libgmsh.so.4.8:_Z11Tree_SearchP6Tree_TPv
libgmsh.so.4.8:_Z11addEmbeddediSt6vectorIiSaIiEEii
libgmsh.so.4.8:_Z11annAllocPtsii
libgmsh.so.4.8:_Z11annBnds2BoxRK11ANNorthRectiiP16ANNorthHalfSpaceRS_
libgmsh.so.4.8:_Z11annBox2BndsRK11ANNorthRectS1_iRiRP16ANNorthHalfSpace
libgmsh.so.4.8:_Z11annBoxSplitPPdPiiiR11ANNorthRectRi
libgmsh.so.4.8:_Z11annEnclCubePPdPiiiR11ANNorthRect
libgmsh.so.4.8:_Z11annEnclRectPPdPiiiR11ANNorthRect
libgmsh.so.4.8:_Z11arrowEditorPKcRdS1_S1_
libgmsh.so.4.8:_Z11bestQualityP8DI_PointS0_S0_S0_S0_S0_PP8DI_TetraS3_S3_RSt6vectorIP12DI_QualErrorSaIS6_EE
libgmsh.so.4.8:_Z11bestQualityPK8DI_PointS1_S1_S1_PP11DI_TriangleS4_
libgmsh.so.4.8:_Z11bestQualityPK8DI_PointS1_S1_S1_S1_PP8DI_TetraS4_
libgmsh.so.4.8:_Z11buildMetricP5GFacePdS1_
libgmsh.so.4.8:_Z11connectTetsRNSt7__cxx114listIP5MTet4SaIS2_EEEPKSt3setI5MFace13MFaceLessThanSaIS7_EE
libgmsh.so.4.8:_Z11connectTetsRSt6vectorIP5MTet4SaIS1_EEPKSt3setI5MFace13MFaceLessThanSaIS6_EE
libgmsh.so.4.8:_Z11countInListRNSt7__cxx114listIP5GEdgeSaIS2_EEES2_
libgmsh.so.4.8:_Z11createZonesiiiRKSt3mapINSt7__cxx1112basic_stringIcSt11char_traitsIcESaIcEEESt6vectorIS6_IiSaIiEESaIS8_EESt4lessIS5_ESaISt4pairIKS5_SA_EEERS6_IP8CGNSZoneSaISL_EERS_IS5_iSC_SaISD_ISE_iEEERb
libgmsh.so.4.8:_Z11create_jpegP8_IO_FILEP11PixelBufferii
libgmsh.so.4.8:_Z11decasteljaudRK7SPoint3S1_S1_RSt6vectorIS_SaIS_EERS2_IdSaIdEE
libgmsh.so.4.8:_Z11decasteljaudRK7SPoint3S1_S1_S1_RSt6vectorIS_SaIS_EERS2_IdSaIdEE
libgmsh.so.4.8:_Z11decasteljaudRKSt6vectorI7SPoint3SaIS0_EERS2_RS_IdSaIdEE
libgmsh.so.4.8:_Z11fcmp_absintPKvS0_
libgmsh.so.4.8:_Z11fcmp_doublePKvS0_
libgmsh.so.4.8:_Z11fileChooser17FILE_CHOOSER_TYPEPKcS1_S1_
libgmsh.so.4.8:_Z11fourthPointPdS_S_S_
libgmsh.so.4.8:_Z11getGQPriPtsi
libgmsh.so.4.8:_Z11getGQPyrPtsi
libgmsh.so.4.8:_Z11getGQTetPtsi
libgmsh.so.4.8:_Z11gmsh_yyfreePv
libgmsh.so.4.8:_Z11gradSimplexPdS_S_S_S_
libgmsh.so.4.8:_Z11insertOneBBPvPdS0_P6bucket
libgmsh.so.4.8:_Z11isLastLnInVRKSt6vectorIP7DI_LineSaIS1_EEi
libgmsh.so.4.8:_Z11isLastTrInVRKSt6vectorIP11DI_TriangleSaIS1_EEi
libgmsh.so.4.8:_Z11midpt_splitPPdPiRK11ANNorthRectiiRiRdS5_
libgmsh.so.4.8:_Z11mvprintLeftiPKcz
libgmsh.so.4.8:_Z11mvprintListiiNSt7__cxx114listIPcSaIS1_EEEi
libgmsh.so.4.8:_Z11mvterminatev
libgmsh.so.4.8:_Z11parsestringc
libgmsh.so.4.8:_Z11quadMidNodePK8DI_PointS1_S1_PK10DI_ElementRKSt6vectorIP9gLevelsetSaIS7_EE
libgmsh.so.4.8:_Z11scriptEmbedRKNSt7__cxx1112basic_stringIcSt11char_traitsIcESaIcEEES6_RSt6vectorIiSaIiEEii
libgmsh.so.4.8:_Z12BGM_MeshSizeP7GEntityddddd
libgmsh.so.4.8:_Z12ClearProjectv
libgmsh.so.4.8:_Z12CompareCurvePKvS0_
libgmsh.so.4.8:_Z12CreateVertexiddP11gmshSurfaced
libgmsh.so.4.8:_Z12CreateVertexiddddd
libgmsh.so.4.8:_Z12CreateVolumeii
libgmsh.so.4.8:_Z12DeleteVolumeib
libgmsh.so.4.8:_Z12ExtrudeCurveiiddddddddddPP7SurfaceiP13ExtrudeParams
libgmsh.so.4.8:_Z12ExtrudePointiiddddddddddPP5CurveS1_iP13ExtrudeParams
libgmsh.so.4.8:_Z12FindEdgeLoopi
libgmsh.so.4.8:_Z12FreeEdgeLoopPvS_
libgmsh.so.4.8:_Z12GenerateMeshP6GModeli
libgmsh.so.4.8:_Z12GetBuildInfoB5cxx11v
libgmsh.so.4.8:_Z12GetProcessIdv
libgmsh.so.4.8:_Z12GmshFinalizev
libgmsh.so.4.8:_Z12GmshMainFLTKiPPc
libgmsh.so.4.8:_Z12List_PointerP6List_Ti
libgmsh.so.4.8:_Z12List_ReallocP6List_Ti
libgmsh.so.4.8:_Z12NumberOptioniPKciS0_Rdb
libgmsh.so.4.8:_Z12OptimizeMeshP6GModelRKNSt7__cxx1112basic_stringIcSt11char_traitsIcESaIcEEEbi
libgmsh.so.4.8:_Z12PrintOptionsiiiiPKcPSt6vectorINSt7__cxx1112basic_stringIcSt11char_traitsIcESaIcEEESaIS7_EE
libgmsh.so.4.8:_Z12RotateShapesdddddddP6List_T
libgmsh.so.4.8:_Z12StringOptioniPKciS0_RNSt7__cxx1112basic_stringIcSt11char_traitsIcESaIcEEEb
libgmsh.so.4.8:_Z12TransferListPvS_
libgmsh.so.4.8:_Z12annDeallocPtRPd
libgmsh.so.4.8:_Z12annMaxSpreadPPdPiii
libgmsh.so.4.8:_Z12avl_extremumP15avl_tree_structiPPv
libgmsh.so.4.8:_Z12avl_free_genP20avl_generator_struct
libgmsh.so.4.8:_Z12avl_init_genP15avl_tree_structi
libgmsh.so.4.8:_Z12axis_to_quatPddS_
libgmsh.so.4.8:_Z12bowyerWatsonP5GFaceiPSt3mapIP7MVertexS3_St4lessIS3_ESaISt4pairIKS3_S3_EEEPS1_IS3_7SPoint2S5_SaIS6_IS7_SC_EEE
libgmsh.so.4.8:_Z12buildCutMeshP6GModelP9gLevelsetPSt3mapIiSt6vectorIP8MElementSaIS6_EESt4lessIiESaISt4pairIKiS8_EEERS3_IiP7MVertexSA_SaISB_ISC_SI_EEEPS3_IiS3_IiNSt7__cxx1112basic_stringIcSt11char_traitsIcESaIcEEESA_SaISB_ISC_SS_EEESA_SaISB_ISC_SV_EEEb
libgmsh.so.4.8:_Z12build_chordsRKSt3setIP5GFaceSt4lessIS1_ESaIS1_EERSt6vectorIS_IP5GEdgeS2_ISA_ESaISA_EESaISD_EE
libgmsh.so.4.8:_Z12debugBSplineRKN11opencascade6handleI17Geom_BSplineCurveEE
libgmsh.so.4.8:_Z12delaunayTrglmmmPSt6vectorIP4VertSaIS1_EER12tetContainer
libgmsh.so.4.8:_Z12export_pointP31surfacePointWithExclusionRegioniP8_IO_FILEP5GFace
libgmsh.so.4.8:_Z12extractLogicRKNSt7__cxx1112basic_stringIcSt11char_traitsIcESaIcEEERSt6vectorIS4_SaIS4_EE
libgmsh.so.4.8:_Z12file_quit_cbP9Fl_WidgetPv
libgmsh.so.4.8:_Z12fill_min_maxddddPdS_
libgmsh.so.4.8:_Z12free_bucketsP6bucket
libgmsh.so.4.8:_Z12getNGQPriPtsi
libgmsh.so.4.8:_Z12getNGQPyrPtsi
libgmsh.so.4.8:_Z12getNGQTetPtsi
libgmsh.so.4.8:_Z12gmp_blas_dotPA1_12__mpz_structmS1_mS1_m
libgmsh.so.4.8:_Z12gmp_blas_inzmPA1_12__mpz_structm
libgmsh.so.4.8:_Z12gmp_blas_rotmP12__mpz_structS0_PA1_S_mS0_S0_S2_m
libgmsh.so.4.8:_Z12gmsh_yyallocm
libgmsh.so.4.8:_Z12gmsh_yyerrorPKc
libgmsh.so.4.8:_Z12gmsh_yyflushv
libgmsh.so.4.8:_Z12gmsh_yyparsev
libgmsh.so.4.8:_Z12init_optionsi
libgmsh.so.4.8:_Z12intersectionRK8SMetric3S1_
libgmsh.so.4.8:_Z12mesh_save_cbP9Fl_WidgetPv
libgmsh.so.4.8:_Z12mvprintRightiPKcz
libgmsh.so.4.8:_Z12opt_view_maxiid
libgmsh.so.4.8:_Z12opt_view_miniid
libgmsh.so.4.8:_Z12optimizeMeshP7GRegionRKN13qmTetrahedron8MeasuresE
libgmsh.so.4.8:_Z12quadToTriJacdd
libgmsh.so.4.8:_Z12recoverEdgesRSt6vectorIP5MTri3SaIS1_EERS_I5MEdgeSaIS5_EE
libgmsh.so.4.8:_Z12recover_edgeP8PolyMeshPNS_6VertexES2_
libgmsh.so.4.8:_Z12recurClearLsP12RecurElement
libgmsh.so.4.8:_Z12removeBlanksRKNSt7__cxx1112basic_stringIcSt11char_traitsIcESaIcEEE
libgmsh.so.4.8:_Z12scriptAddBoxRKNSt7__cxx1112basic_stringIcSt11char_traitsIcESaIcEEES6_S6_S6_S6_S6_S6_
libgmsh.so.4.8:_Z12scriptDilateRKNSt7__cxx1112basic_stringIcSt11char_traitsIcESaIcEEERKSt6vectorISt4pairIiiESaIS9_EES6_S6_S6_S6_S6_S6_b
libgmsh.so.4.8:_Z12scriptFilletRKNSt7__cxx1112basic_stringIcSt11char_traitsIcESaIcEEERKSt6vectorIiSaIiEESB_S6_
libgmsh.so.4.8:_Z12scriptMirrorRKNSt7__cxx1112basic_stringIcSt11char_traitsIcESaIcEEERKSt6vectorISt4pairIiiESaIS9_EES6_S6_S6_S6_b
libgmsh.so.4.8:_Z12scriptRotateRKNSt7__cxx1112basic_stringIcSt11char_traitsIcESaIcEEERKSt6vectorISt4pairIiiESaIS9_EES6_S6_S6_S6_S6_S6_S6_b
libgmsh.so.4.8:_Z12selectDecompPPdPiiiRK11ANNorthRectPFvS0_S1_S4_iiRiRdS5_E13ANNshrinkRuleRS2_
libgmsh.so.4.8:_Z12skipcommentsv
libgmsh.so.4.8:_Z12smoothVertexP5MTet4iRKN13qmTetrahedron8MeasuresE
libgmsh.so.4.8:_Z12sortByInvDimRKSt4pairIiiES2_
libgmsh.so.4.8:_Z12sortVerticesRKSt6vectorIP7MVertexSaIS1_EERS_IcSaIcEE
libgmsh.so.4.8:_Z13CompareVertexPKvS0_
libgmsh.so.4.8:_Z13CompareVolumePKvS0_
libgmsh.so.4.8:_Z13ConvertToHTMLRNSt7__cxx1112basic_stringIcSt11char_traitsIcESaIcEEE
libgmsh.so.4.8:_Z13CreateSurfaceii
libgmsh.so.4.8:_Z13DeleteSurfaceib
libgmsh.so.4.8:_Z13ExtrudeShapesiP6List_TddddddddddP13ExtrudeParamsS0_
libgmsh.so.4.8:_Z13GetColorTablei
libgmsh.so.4.8:_Z13GetMouseUsageB5cxx11v
libgmsh.so.4.8:_Z13GetStatisticsPdPA100_db
libgmsh.so.4.8:_Z13GmshGetOptionRKNSt7__cxx1112basic_stringIcSt11char_traitsIcESaIcEEES6_RS4_i
libgmsh.so.4.8:_Z13GmshGetOptionRKNSt7__cxx1112basic_stringIcSt11char_traitsIcESaIcEEES6_Rdi
libgmsh.so.4.8:_Z13GmshGetOptionRKNSt7__cxx1112basic_stringIcSt11char_traitsIcESaIcEEES6_Rji
libgmsh.so.4.8:_Z13GmshMainBatchiPPc
libgmsh.so.4.8:_Z13GmshMergeFileRKNSt7__cxx1112basic_stringIcSt11char_traitsIcESaIcEEE
libgmsh.so.4.8:_Z13GmshSetOptionRKNSt7__cxx1112basic_stringIcSt11char_traitsIcESaIcEEES6_S4_i
libgmsh.so.4.8:_Z13GmshSetOptionRKNSt7__cxx1112basic_stringIcSt11char_traitsIcESaIcEEES6_di
libgmsh.so.4.8:_Z13GmshSetOptionRKNSt7__cxx1112basic_stringIcSt11char_traitsIcESaIcEEES6_ji
libgmsh.so.4.8:_Z13GmshWriteFileRKNSt7__cxx1112basic_stringIcSt11char_traitsIcESaIcEEE
libgmsh.so.4.8:_Z13List_SuppressP6List_TPvPFiPKvS3_E
libgmsh.so.4.8:_Z13MElementInElePvPd
libgmsh.so.4.8:_Z13MeshOptimizerRSt6vectorIP7GEntitySaIS1_EER17MeshOptParameters
libgmsh.so.4.8:_Z13Octree_CreateiPdS_PFvPvS_S_EPFvS0_S_EPFiS0_S_E
libgmsh.so.4.8:_Z13Octree_DeleteP6Octree
libgmsh.so.4.8:_Z13Octree_InsertPvP6Octree
libgmsh.so.4.8:_Z13Octree_SearchPdP6Octree
libgmsh.so.4.8:_Z13PartitionMeshP6GModel
libgmsh.so.4.8:_Z13QuoteExecPathRKNSt7__cxx1112basic_stringIcSt11char_traitsIcESaIcEEE
libgmsh.so.4.8:_Z13ReInitOptionsi
libgmsh.so.4.8:_Z13RecombineMeshP6GModel
libgmsh.so.4.8:_Z13SplitFileNameRKNSt7__cxx1112basic_stringIcSt11char_traitsIcESaIcEEE
libgmsh.so.4.8:_Z13SystemCallExeRKNSt7__cxx1112basic_stringIcSt11char_traitsIcESaIcEEES6_b
libgmsh.so.4.8:_Z13Tree_SuppressP6Tree_TPv
libgmsh.so.4.8:_Z13_myGetFaceRepP11MHexahedroniPdS1_S1_P8SVector3i
libgmsh.so.4.8:_Z13analyzeCornerRSt8multimapIP7MVertexP7cross2dSt4lessIS1_ESaISt4pairIKS1_S3_EEES1_
libgmsh.so.4.8:_Z13annAssignRectiR11ANNorthRectRKS_
libgmsh.so.4.8:_Z13annDeallocPtsRPPd
libgmsh.so.4.8:_Z13annPlaneSplitPPdPiiidRiS2_
libgmsh.so.4.8:_Z13annPrintStats7ANNbool
libgmsh.so.4.8:_Z13annResetStatsi
libgmsh.so.4.8:_Z13bdfFileDialogPKc
libgmsh.so.4.8:_Z13bfgs_callbackRKN6alglib13real_1d_arrayERdRS0_Pv
libgmsh.so.4.8:_Z13classifyFacesP6GModeld
libgmsh.so.4.8:_Z13classifyFacesP6GModeldbbd
libgmsh.so.4.8:_Z13copy_elementsP6GModelS0_RSt3mapIP7MVertexS3_St4lessIS3_ESaISt4pairIKS3_S3_EEEPSt6vectorI4PairIP7GVertexSF_ESaISG_EEPSC_ISD_IP5GEdgeSL_ESaISM_EEPSC_ISD_IP5GFaceSR_ESaISS_EEPSC_ISD_IP7GRegionSX_ESaISY_EE
libgmsh.so.4.8:_Z13copy_verticesP6GModelS0_RSt3mapIP7MVertexS3_St4lessIS3_ESaISt4pairIKS3_S3_EEEPSt6vectorI4PairIP7GVertexSF_ESaISG_EEPSC_ISD_IP5GEdgeSL_ESaISM_EEPSC_ISD_IP5GFaceSR_ESaISS_EEPSC_ISD_IP7GRegionSX_ESaISY_EE
libgmsh.so.4.8:_Z13eigenvalue2x2PA2_dPd
libgmsh.so.4.8:_Z13equalVerticesRKSt6vectorIP7MVertexSaIS1_EES5_
libgmsh.so.4.8:_Z13file_watch_cbP9Fl_WidgetPv
libgmsh.so.4.8:_Z13fillMeanPlanePdS_S_R10mean_plane
libgmsh.so.4.8:_Z13filterColumnsRSt6vectorIP8MElementSaIS1_EERSt3mapIS1_S3_St4lessIS1_ESaISt4pairIKS1_S3_EEE
libgmsh.so.4.8:_Z13find_in_arrayiiRKSt6vectorIS_IdSaIdEESaIS1_EE
libgmsh.so.4.8:_Z13geoFileDialogPKc
libgmsh.so.4.8:_Z13getMATLABNameB5cxx11i
libgmsh.so.4.8:_Z13getParentTagsiP6List_TS0_
libgmsh.so.4.8:_Z13gifFileDialogPKc
libgmsh.so.4.8:_Z13gmp_blas_axpymP12__mpz_structPA1_S_mS2_m
libgmsh.so.4.8:_Z13gmp_blas_copymPA1_12__mpz_structmS1_m
libgmsh.so.4.8:_Z13gmp_blas_scalmP12__mpz_structPA1_S_m
libgmsh.so.4.8:_Z13gmp_blas_swapmPA1_12__mpz_structmS1_m
libgmsh.so.4.8:_Z13gmsh_yyget_inv
libgmsh.so.4.8:_Z13gmsh_yyset_inP8_IO_FILE
libgmsh.so.4.8:_Z13help_about_cbP9Fl_WidgetPv
libgmsh.so.4.8:_Z13insertVertexBRSt6vectorI8faceXtetSaIS0_EERS_IP5MTet4SaIS5_EEP7MVertexddRS_IdSaIdEESD_S5_R12MTet4FactoryRSt3setIS5_14compareTet4PtrS6_ERKSG_I5MFace13MFaceLessThanSaISK_EE
libgmsh.so.4.8:_Z13interpolationRK8SMetric3S1_S1_S1_ddd
libgmsh.so.4.8:_Z13interpolationRK8SMetric3S1_S1_dd
libgmsh.so.4.8:_Z13interpolationRK8SMetric3S1_d
libgmsh.so.4.8:_Z13keyFileDialogPKcS0_i
libgmsh.so.4.8:_Z13meshGFaceBamgP5GFace
libgmsh.so.4.8:_Z13meshGeneratorP5GFaceibbbPSt6vectorIP5GEdgeSaIS3_EE
libgmsh.so.4.8:_Z13mshFileDialogPKc
libgmsh.so.4.8:_Z13mvprintCenteriPKcz
libgmsh.so.4.8:_Z13normal2pointsddddddPd
libgmsh.so.4.8:_Z13normal3pointsdddddddddPd
libgmsh.so.4.8:_Z13normalize_axeR10Quaternion
libgmsh.so.4.8:_Z13old_algo_hexav
libgmsh.so.4.8:_Z13opt_mesh_clipiid
libgmsh.so.4.8:_Z13opt_mesh_dualiid
libgmsh.so.4.8:_Z13opt_post_linkiid
libgmsh.so.4.8:_Z13opt_view_axesiid
libgmsh.so.4.8:_Z13opt_view_clipiid
libgmsh.so.4.8:_Z13opt_view_nameiiRKNSt7__cxx1112basic_stringIcSt11char_traitsIcESaIcEEE
libgmsh.so.4.8:_Z13opt_view_timeiid
libgmsh.so.4.8:_Z13opt_view_typeiid
libgmsh.so.4.8:_Z13opt_view_xmaxiid
libgmsh.so.4.8:_Z13opt_view_xminiid
libgmsh.so.4.8:_Z13opt_view_ymaxiid
libgmsh.so.4.8:_Z13opt_view_yminiid
libgmsh.so.4.8:_Z13opt_view_zmaxiid
libgmsh.so.4.8:_Z13opt_view_zminiid
libgmsh.so.4.8:_Z13posFileDialogPKc
libgmsh.so.4.8:_Z13printProgressPKcmm
libgmsh.so.4.8:_Z13readPhysicalsiiRSt6vectorINSt7__cxx1112basic_stringIcSt11char_traitsIcESaIcEEESaIS5_EERSt8multimapIS5_iSt4lessIS5_ESaISt4pairIKS5_iEEE
libgmsh.so.4.8:_Z13refineMeshBDSP5GFaceR8BDS_MeshibPSt3mapIP7MVertexP9BDS_PointSt4lessIS5_ESaISt4pairIKS5_S7_EEEPS3_IS7_S5_13PointLessThanSaISA_IKS7_S5_EEEPSt6vectorI7SPoint2SaISN_EE
libgmsh.so.4.8:_Z13refineMeshMMGP7GRegion
libgmsh.so.4.8:_Z13scriptAddConeRKNSt7__cxx1112basic_stringIcSt11char_traitsIcESaIcEEES6_S6_S6_S6_S6_S6_S6_S6_S6_
libgmsh.so.4.8:_Z13scriptAddDiskRKNSt7__cxx1112basic_stringIcSt11char_traitsIcESaIcEEES6_S6_S6_S6_S6_
libgmsh.so.4.8:_Z13scriptAddPipeRKNSt7__cxx1112basic_stringIcSt11char_traitsIcESaIcEEERKSt6vectorISt4pairIiiESaIS9_EERKS7_IiSaIiEE
libgmsh.so.4.8:_Z13scriptBooleanRKNSt7__cxx1112basic_stringIcSt11char_traitsIcESaIcEEES6_RKSt6vectorISt4pairIiiESaIS9_EESD_ii
libgmsh.so.4.8:_Z13scriptExtrudeRKNSt7__cxx1112basic_stringIcSt11char_traitsIcESaIcEEERKSt6vectorISt4pairIiiESaIS9_EES6_S6_S6_bS6_b
libgmsh.so.4.8:_Z13scriptProtudeRKNSt7__cxx1112basic_stringIcSt11char_traitsIcESaIcEEERKSt6vectorISt4pairIiiESaIS9_EES6_S6_S6_S6_S6_S6_S6_bS6_b
libgmsh.so.4.8:_Z13searchElementP6bucketPdP6globalPFvPvS1_S1_EPFiS4_S1_E
libgmsh.so.4.8:_Z13setVisibilityRKSt6vectorISt4pairIiiESaIS1_EEib
libgmsh.so.4.8:_Z13setVisibilityiib
libgmsh.so.4.8:_Z13sl_fair_splitPPdPiRK11ANNorthRectiiRiRdS5_
libgmsh.so.4.8:_Z13smooth_obj_3DPdPv
libgmsh.so.4.8:_Z13statistics_cbP9Fl_WidgetPv
libgmsh.so.4.8:_Z13stlFileDialogPKc
libgmsh.so.4.8:_Z13surfaceFaceUVP8MElementP5GFaceb
libgmsh.so.4.8:_Z13triangle_areaPdS_S_
libgmsh.so.4.8:_Z13visibility_cbP9Fl_WidgetPv
libgmsh.so.4.8:_Z13writePeriodicRKSt6vectorIP7GEntitySaIS1_EEiiRKS_INSt7__cxx1112basic_stringIcSt11char_traitsIcESaIcEEESaISB_EERSt3mapIP7MVertexS_I9LocalDataSaISJ_EESt4lessISI_ESaISt4pairIKSI_SL_EEE
libgmsh.so.4.8:_Z14BGM_MeshMetricP7GEntityddddd
libgmsh.so.4.8:_Z14CheckResourcesv
libgmsh.so.4.8:_Z14CompareSurfacePKvS0_
libgmsh.so.4.8:_Z14CreateEdgeLoopiP6List_T
libgmsh.so.4.8:_Z14DuplicateCurveP5Curve
libgmsh.so.4.8:_Z14ExtrudeSurfaceiiddddddddddPP6VolumeP13ExtrudeParams
libgmsh.so.4.8:_Z14FindCubicRootsPKdPdS1_
libgmsh.so.4.8:_Z14FixWindowsPathRKNSt7__cxx1112basic_stringIcSt11char_traitsIcESaIcEEE
libgmsh.so.4.8:_Z14GFace2PolyMeshiPP8PolyMesh
libgmsh.so.4.8:_Z14GetGmshBuildOSv
libgmsh.so.4.8:_Z14GetGmshVersionv
libgmsh.so.4.8:_Z14GetMemoryUsagev
libgmsh.so.4.8:_Z14GmshInitializeiPPcbb
libgmsh.so.4.8:_Z14InitOptionsGUIi
libgmsh.so.4.8:_Z14InterpolateIsoPdS_S_S_diiS_S_S_
libgmsh.so.4.8:_Z14List_PSuppressP6List_Ti
libgmsh.so.4.8:_Z14NEWSURFACELOOPv
libgmsh.so.4.8:_Z14Octree_ArrangeP6Octree
libgmsh.so.4.8:_Z14PrintBuildInfov
libgmsh.so.4.8:_Z14SetBoundingBoxb
libgmsh.so.4.8:_Z14SetBoundingBoxdddddd
libgmsh.so.4.8:_Z14SleepInSecondsd
libgmsh.so.4.8:_Z14SymmetryShapesddddP6List_T
libgmsh.so.4.8:_Z14allEdgesLinkediP6List_T
libgmsh.so.4.8:_Z14allFacesLinkediP6List_T
libgmsh.so.4.8:_Z14angle3VerticesPK7MVertexS1_S1_
libgmsh.so.4.8:_Z14annAspectRatioiRK11ANNorthRect
libgmsh.so.4.8:_Z14annBoxDistancePdS_S_i
libgmsh.so.4.8:_Z14annMaxPtsVisiti
libgmsh.so.4.8:_Z14annMedianSplitPPdPiiiRdi
libgmsh.so.4.8:_Z14annResetCountsv
libgmsh.so.4.8:_Z14annUpdateStatsv
libgmsh.so.4.8:_Z14assignVariableRKNSt7__cxx1112basic_stringIcSt11char_traitsIcESaIcEEEiid
libgmsh.so.4.8:_Z14avl_check_treeP15avl_tree_struct
libgmsh.so.4.8:_Z14avl_free_tableP15avl_tree_structPFvPvES3_
libgmsh.so.4.8:_Z14avl_init_tablePFiPKvS0_E
libgmsh.so.4.8:_Z14cgnsFileDialogPKc
libgmsh.so.4.8:_Z14checkIfPresentNSt7__cxx1112basic_stringIcSt11char_traitsIcESaIcEEE
libgmsh.so.4.8:_Z14circumCenterXYPdS_S_S_
libgmsh.so.4.8:_Z14collapseVertexRSt6vectorIP5MTet4SaIS1_EES1_iiRKN13qmTetrahedron8MeasuresE18localMeshModActionPd
libgmsh.so.4.8:_Z14computeBndDistP8MElementid
libgmsh.so.4.8:_Z14computeEdgeCutP6GModelRSt6vectorIP5MLineSaIS3_EEi
libgmsh.so.4.8:_Z14delaunayizeBDSP5GFaceR8BDS_MeshRi
libgmsh.so.4.8:_Z14fillPointCloudP5GEdgedRSt6vectorI7SPoint3SaIS2_EE
libgmsh.so.4.8:_Z14fill_touch_bndPiSt6vectorIbSaIbEEi
libgmsh.so.4.8:_Z14getBoundingBoxiP6List_TS0_
libgmsh.so.4.8:_Z14getUserHomedirB5cxx11v
libgmsh.so.4.8:_Z14get_smoothnessP7MVertexP5GFaceRKSt3mapIS0_dSt4lessIS0_ESaISt4pairIKS0_dEEE
libgmsh.so.4.8:_Z14gmp_blas_iamaxmPA1_12__mpz_structm
libgmsh.so.4.8:_Z14gmp_blas_iaminmPA1_12__mpz_structm
libgmsh.so.4.8:_Z14gmsh_yyget_outv
libgmsh.so.4.8:_Z14gmsh_yyreallocPvm
libgmsh.so.4.8:_Z14gmsh_yyrestartP8_IO_FILE
libgmsh.so.4.8:_Z14gmsh_yyset_outP8_IO_FILE
libgmsh.so.4.8:_Z14inCircumCircleP9MTrianglePKdS2_R13bidimMeshData
libgmsh.so.4.8:_Z14interiorNormalRK7SPoint2S1_S1_
libgmsh.so.4.8:_Z14meshGRegionHxtRSt6vectorIP7GRegionSaIS1_EE
libgmsh.so.4.8:_Z14mpegFileDialogPKc
libgmsh.so.4.8:_Z14normalizeAngleRd
libgmsh.so.4.8:_Z14opt_general_lciid
libgmsh.so.4.8:_Z14opt_mesh_lightiid
libgmsh.so.4.8:_Z14opt_mesh_linesiid
libgmsh.so.4.8:_Z14opt_mesh_nodesiid
libgmsh.so.4.8:_Z14opt_mesh_orderiid
libgmsh.so.4.8:_Z14opt_print_textiid
libgmsh.so.4.8:_Z14opt_view_groupiiRKNSt7__cxx1112basic_stringIcSt11char_traitsIcESaIcEEE
libgmsh.so.4.8:_Z14opt_view_lightiid
libgmsh.so.4.8:_Z14opt_view_size0iid
libgmsh.so.4.8:_Z14opt_view_size1iid
libgmsh.so.4.8:_Z14patternChooserB5cxx11v
libgmsh.so.4.8:_Z14printJacobiansP6GModelPKc
libgmsh.so.4.8:_Z14print_one_statPc11ANNsampStatd
libgmsh.so.4.8:_Z14removeDiamondsP5GFace
libgmsh.so.4.8:_Z14removeEmbeddedRKSt6vectorISt4pairIiiESaIS1_EEi
libgmsh.so.4.8:_Z14remove_sliversRSt3setIP8MElementSt4lessIS1_ESaIS1_EERK3HexS6_
libgmsh.so.4.8:_Z14rtree_callbackP31surfacePointWithExclusionRegionPv
libgmsh.so.4.8:_Z14rtree_callbackP4NodePv
libgmsh.so.4.8:_Z14rtree_callbackP8MElementPv
libgmsh.so.4.8:_Z14sanitizeStringRKNSt7__cxx1112basic_stringIcSt11char_traitsIcESaIcEEES6_
libgmsh.so.4.8:_Z14scriptAddCurveRKNSt7__cxx1112basic_stringIcSt11char_traitsIcESaIcEEERSt6vectorIiSaIiEES6_
libgmsh.so.4.8:_Z14scriptAddFieldiRKNSt7__cxx1112basic_stringIcSt11char_traitsIcESaIcEEES6_
libgmsh.so.4.8:_Z14scriptAddPointRKNSt7__cxx1112basic_stringIcSt11char_traitsIcESaIcEEES6_S6_S6_S6_
libgmsh.so.4.8:_Z14scriptAddTorusRKNSt7__cxx1112basic_stringIcSt11char_traitsIcESaIcEEES6_S6_S6_S6_S6_S6_
libgmsh.so.4.8:_Z14scriptAddWedgeRKNSt7__cxx1112basic_stringIcSt11char_traitsIcESaIcEEES6_S6_S6_S6_S6_S6_S6_
libgmsh.so.4.8:_Z14sl_midpt_splitPPdPiRK11ANNorthRectiiRiRdS5_
libgmsh.so.4.8:_Z14xyzInElementBBPdPvPFvS0_S_S_E
libgmsh.so.4.8:_Z15ColorTable_CopyP14GmshColorTable
libgmsh.so.4.8:_Z15ColorTable_DiffP14GmshColorTableS0_
libgmsh.so.4.8:_Z15CompareEdgeLoopPKvS0_
libgmsh.so.4.8:_Z15ComputeVonMisesPd
libgmsh.so.4.8:_Z15CreateSingleDirRKNSt7__cxx1112basic_stringIcSt11char_traitsIcESaIcEEE
libgmsh.so.4.8:_Z15DuplicateVertexP6Vertex
libgmsh.so.4.8:_Z15DuplicateVolumeP6Volume
libgmsh.so.4.8:_Z15FindSurfaceLoopi
libgmsh.so.4.8:_Z15FixPeriodicMeshP6GModel
libgmsh.so.4.8:_Z15FixRelativePathRKNSt7__cxx1112basic_stringIcSt11char_traitsIcESaIcEEES6_
libgmsh.so.4.8:_Z15FreeSurfaceLoopPvS_
libgmsh.so.4.8:_Z15GetAbsolutePathRKNSt7__cxx1112basic_stringIcSt11char_traitsIcESaIcEEE
libgmsh.so.4.8:_Z15GetGmshPackagerv
libgmsh.so.4.8:_Z15GetRGBForStringPKcRiS1_S1_
libgmsh.so.4.8:_Z15GmshOpenProjectRKNSt7__cxx1112basic_stringIcSt11char_traitsIcESaIcEEE
libgmsh.so.4.8:_Z15GradientDescentPFvRSt6vectorIdSaIdEERdbS2_PvES2_S4_
libgmsh.so.4.8:_Z15List_ISearchSeqP6List_TPvPFiPKvS3_E
libgmsh.so.4.8:_Z15PrintOptionsDocv
libgmsh.so.4.8:_Z15SortEdgesInLoopiP6List_Tb
libgmsh.so.4.8:_Z15SplitOLFileNameRKNSt7__cxx1112basic_stringIcSt11char_traitsIcESaIcEEE
libgmsh.so.4.8:_Z15SplitOLHostNameRKNSt7__cxx1112basic_stringIcSt11char_traitsIcESaIcEEE
libgmsh.so.4.8:_Z15SplitOptionNameRKNSt7__cxx1112basic_stringIcSt11char_traitsIcESaIcEEERS4_S7_Ri
libgmsh.so.4.8:_Z15TranslateShapesdddP6List_T
libgmsh.so.4.8:_Z15UnpartitionMeshP6GModel
libgmsh.so.4.8:_Z15_string2stippleNSt7__cxx1112basic_stringIcSt11char_traitsIcESaIcEEERiS5_
libgmsh.so.4.8:_Z15addPeriodicEdgeiiRKSt6vectorIdSaIdEE
libgmsh.so.4.8:_Z15addPeriodicFaceiiRKSt3mapIiiSt4lessIiESaISt4pairIKiiEEE
libgmsh.so.4.8:_Z15addPeriodicFaceiiRKSt6vectorIdSaIdEE
libgmsh.so.4.8:_Z15annSplitBalancePPdPiiid
libgmsh.so.4.8:_Z15assignVariablesRKNSt7__cxx1112basic_stringIcSt11char_traitsIcESaIcEEEP6List_TiS8_
libgmsh.so.4.8:_Z15buildEdgeCavityP5MTet4iPP7MVertexS3_RSt6vectorIS0_SaIS0_EES7_RS4_IS2_SaIS2_EE
libgmsh.so.4.8:_Z15build_rotmatrixPdS_
libgmsh.so.4.8:_Z15cgns2MshEltType13ElementType_t
libgmsh.so.4.8:_Z15circumCenterXYZPdS_S_S_S_
libgmsh.so.4.8:_Z15computeBndDistFP5GEdgeRSt6vectorIdSaIdEERK10nodalBasisRKS1_I7SPoint3SaIS8_EEd
libgmsh.so.4.8:_Z15computeBndDistGP5GEdgeRSt6vectorIdSaIdEERK10nodalBasisRKS1_I7SPoint3SaIS8_EEd
libgmsh.so.4.8:_Z15computeBndDistHP5GEdgeRSt6vectorIdSaIdEERKS1_IP7MVertexSaIS6_EERK10nodalBasisRKS1_I7SPoint3SaISE_EEd
libgmsh.so.4.8:_Z15computeLevelsetP6GModelR12cartesianBoxIdE
libgmsh.so.4.8:_Z15copy_gmp_matrixPK10gmp_matrixmmmm
libgmsh.so.4.8:_Z15faceIsValidQuadP5GFaced
libgmsh.so.4.8:_Z15gl2psFileDialogPKcS0_i
libgmsh.so.4.8:_Z15gmp_matrix_colsPK10gmp_matrix
libgmsh.so.4.8:_Z15gmp_matrix_rowsPK10gmp_matrix
libgmsh.so.4.8:_Z15gmsh_yyget_lengv
libgmsh.so.4.8:_Z15gmsh_yyget_textv
libgmsh.so.4.8:_Z15help_options_cbP9Fl_WidgetPv
libgmsh.so.4.8:_Z15inExclusionZoneR7SPoint2R5RTreeIP31surfacePointWithExclusionRegiondLi2EdLi8ELi4EERSt6vectorIS3_SaIS3_EE
libgmsh.so.4.8:_Z15intersectEdge2dRK5MEdgeS1_
libgmsh.so.4.8:_Z15latexFileDialogPKc
libgmsh.so.4.8:_Z15mesh_options_cbP9Fl_WidgetPv
libgmsh.so.4.8:_Z15msh2CgnsEltTypei
libgmsh.so.4.8:_Z15mvgetScreenSizeRiS_
libgmsh.so.4.8:_Z15normal_triangleP9BDS_PointS0_S0_Pd
libgmsh.so.4.8:_Z15opt_mesh_algo2diid
libgmsh.so.4.8:_Z15opt_mesh_algo3diid
libgmsh.so.4.8:_Z15opt_mesh_binaryiid
libgmsh.so.4.8:_Z15opt_mesh_color_iiij
libgmsh.so.4.8:_Z15opt_mesh_lc_maxiid
libgmsh.so.4.8:_Z15opt_mesh_lc_miniid
libgmsh.so.4.8:_Z15opt_mesh_prismsiid
libgmsh.so.4.8:_Z15opt_post_smoothiid
libgmsh.so.4.8:_Z15opt_print_widthiid
libgmsh.so.4.8:_Z15opt_solver_nameiiRKNSt7__cxx1112basic_stringIcSt11char_traitsIcESaIcEEE
libgmsh.so.4.8:_Z15opt_view_closediid
libgmsh.so.4.8:_Z15opt_view_formatiiRKNSt7__cxx1112basic_stringIcSt11char_traitsIcESaIcEEE
libgmsh.so.4.8:_Z15opt_view_nb_isoiid
libgmsh.so.4.8:_Z15opt_view_raise0iid
libgmsh.so.4.8:_Z15opt_view_raise1iid
libgmsh.so.4.8:_Z15opt_view_raise2iid
libgmsh.so.4.8:_Z15post_options_cbP9Fl_WidgetPv
libgmsh.so.4.8:_Z15quick_access_cbP9Fl_WidgetPv
libgmsh.so.4.8:_Z15scriptAddCircleRKNSt7__cxx1112basic_stringIcSt11char_traitsIcESaIcEEES6_S6_S6_S6_S6_S6_
libgmsh.so.4.8:_Z15scriptAddSphereRKNSt7__cxx1112basic_stringIcSt11char_traitsIcESaIcEEES6_S6_S6_S6_S6_S6_S6_
libgmsh.so.4.8:_Z15scriptAddVolumeP6List_TRKNSt7__cxx1112basic_stringIcSt11char_traitsIcESaIcEEE
libgmsh.so.4.8:_Z15scriptCoherenceRKNSt7__cxx1112basic_stringIcSt11char_traitsIcESaIcEEE
libgmsh.so.4.8:_Z15scriptTranslateRKNSt7__cxx1112basic_stringIcSt11char_traitsIcESaIcEEERKSt6vectorISt4pairIiiESaIS9_EES6_S6_S6_b
libgmsh.so.4.8:_Z15status_xyz1p_cbP9Fl_WidgetPv
libgmsh.so.4.8:_Z15storePairMATLABPK7GEntityiRSt6vectorIS2_ISt4pairIP8MElementiESaIS6_EESaIS8_EE
libgmsh.so.4.8:_Z15sys3x3_with_tolPA3_dPdS1_S1_
libgmsh.so.4.8:_Z15tetcircumcenterPdS_S_S_S_S_S_S_
libgmsh.so.4.8:_Z15triangle_area2dPdS_S_
libgmsh.so.4.8:_Z15trySimpleShrinkPPdPiiiRK11ANNorthRectRS2_
libgmsh.so.4.8:_Z15view_options_cbP9Fl_WidgetPv
libgmsh.so.4.8:_Z15writeInterfacesRKSt6vectorIP7GEntitySaIS1_EEiiRKS_INSt7__cxx1112basic_stringIcSt11char_traitsIcESaIcEEESaISB_EERSt3mapIP7MVertexS_I9LocalDataSaISJ_EESt4lessISI_ESaISt4pairIKSI_SL_EEE
libgmsh.so.4.8:_Z16ColorTable_PasteP14GmshColorTable
libgmsh.so.4.8:_Z16ColorTable_PrintP14GmshColorTableP8_IO_FILEPSt6vectorINSt7__cxx1112basic_stringIcSt11char_traitsIcESaIcEEESaIS9_EE
libgmsh.so.4.8:_Z16ComputeScalarRepiPdi
libgmsh.so.4.8:_Z16CreateOutputFileRKNSt7__cxx1112basic_stringIcSt11char_traitsIcESaIcEEEib
libgmsh.so.4.8:_Z16DuplicateSurfaceP7Surface
libgmsh.so.4.8:_Z16FixWindowsQuotesRKNSt7__cxx1112basic_stringIcSt11char_traitsIcESaIcEEE
libgmsh.so.4.8:_Z16GFaceInitialMeshii
libgmsh.so.4.8:_Z16GaussLegendreTetiiiP5IntPt
libgmsh.so.4.8:_Z16GaussLegendreTriiiP5IntPt
libgmsh.so.4.8:_Z16GetGmshBuildDatev
libgmsh.so.4.8:_Z16GetGmshBuildHostv
libgmsh.so.4.8:_Z16GmshClearProjectv
libgmsh.so.4.8:_Z16InterpolateCurveP5Curvedi
libgmsh.so.4.8:_Z16LaplaceSmoothingP7GRegion
libgmsh.so.4.8:_Z16Octree_SearchAllPdP6OctreePSt6vectorIPvSaIS3_EE
libgmsh.so.4.8:_Z16RelocateVerticesP5GFaceid
libgmsh.so.4.8:_Z16RelocateVerticesP7GRegionid
libgmsh.so.4.8:_Z16RelocateVerticesRSt6vectorIP7GRegionSaIS1_EEid
libgmsh.so.4.8:_Z16RemoveWhiteSpaceRKNSt7__cxx1112basic_stringIcSt11char_traitsIcESaIcEEE
libgmsh.so.4.8:_Z16ReplaceSubStringRKNSt7__cxx1112basic_stringIcSt11char_traitsIcESaIcEEES6_S6_
libgmsh.so.4.8:_Z16_addSimpleShapesRK12TopoDS_ShapeRSt6vectorIS_SaIS_EE
libgmsh.so.4.8:_Z16buildUniqueFacesP7GRegionRSt3setI5MFace13MFaceLessThanSaIS2_EE
libgmsh.so.4.8:_Z16collapseEdgePassP5GFaceR8BDS_MeshdiRiRd
libgmsh.so.4.8:_Z16computeBndDistG_P5GEdgeRSt6vectorIdSaIdEERK10nodalBasisRKS1_I7SPoint3SaIS8_EEm
libgmsh.so.4.8:_Z16computeBndDistGbP5GEdgeRSt6vectorIdSaIdEERK10nodalBasisRKS1_I7SPoint3SaIS8_EEd
libgmsh.so.4.8:_Z16computeIsCrossedP12RecurElementPK10DI_ElementRKSt6vectorIP9gLevelsetSaIS6_EEPPd
libgmsh.so.4.8:_Z16connectTrianglesRNSt7__cxx114listIP5MTri3SaIS2_EEE
libgmsh.so.4.8:_Z16connectTrianglesRSt3setIP5MTri314compareTri3PtrSaIS1_EE
libgmsh.so.4.8:_Z16connectTrianglesRSt6vectorIP5MTri3SaIS1_EE
libgmsh.so.4.8:_Z16delaunayMeshIn2DRSt6vectorIP7MVertexSaIS1_EERS_IP9MTriangleSaIS6_EEbPS_I5MEdgeSaISA_EEb
libgmsh.so.4.8:_Z16delaunayMeshIn3DRSt6vectorIP7MVertexSaIS1_EERS_IP12MTetrahedronSaIS6_EEb
libgmsh.so.4.8:_Z16eulerAxisFromQtnRK3Qtn
libgmsh.so.4.8:_Z16getColorByEntityP7GEntity
libgmsh.so.4.8:_Z16gmsh_yyget_debugv
libgmsh.so.4.8:_Z16gmsh_yyset_debugi
libgmsh.so.4.8:_Z16isElementVisibleP12PViewOptionsiiPPd
libgmsh.so.4.8:_Z16isElementVisibleP8MElement
libgmsh.so.4.8:_Z16laplaceSmoothingP5GFaceib
libgmsh.so.4.8:_Z16makeMLinesUniqueRSt6vectorIP5MLineSaIS1_EE
libgmsh.so.4.8:_Z16med2mshNodeIndexii
libgmsh.so.4.8:_Z16medGetFieldNamesRKNSt7__cxx1112basic_stringIcSt11char_traitsIcESaIcEEE
libgmsh.so.4.8:_Z16mesh_classify_cbP9Fl_WidgetPv
libgmsh.so.4.8:_Z16msh2medNodeIndexii
libgmsh.so.4.8:_Z16onelab_option_cbP9Fl_WidgetPv
libgmsh.so.4.8:_Z16onelab_reload_cbP9Fl_WidgetPv
libgmsh.so.4.8:_Z16opt_general_axesiid
libgmsh.so.4.8:_Z16opt_general_xmaxiid
libgmsh.so.4.8:_Z16opt_general_xminiid
libgmsh.so.4.8:_Z16opt_general_ymaxiid
libgmsh.so.4.8:_Z16opt_general_yminiid
libgmsh.so.4.8:_Z16opt_general_zmaxiid
libgmsh.so.4.8:_Z16opt_general_zminiid
libgmsh.so.4.8:_Z16opt_mesh_color_0iij
libgmsh.so.4.8:_Z16opt_mesh_color_1iij
libgmsh.so.4.8:_Z16opt_mesh_color_2iij
libgmsh.so.4.8:_Z16opt_mesh_color_3iij
libgmsh.so.4.8:_Z16opt_mesh_color_4iij
libgmsh.so.4.8:_Z16opt_mesh_color_5iij
libgmsh.so.4.8:_Z16opt_mesh_color_6iij
libgmsh.so.4.8:_Z16opt_mesh_color_7iij
libgmsh.so.4.8:_Z16opt_mesh_color_8iij
libgmsh.so.4.8:_Z16opt_mesh_color_9iij
libgmsh.so.4.8:_Z16opt_mesh_explodeiid
libgmsh.so.4.8:_Z16opt_mesh_normalsiid
libgmsh.so.4.8:_Z16opt_mesh_voronoiiid
libgmsh.so.4.8:_Z16opt_post_pluginsiid
libgmsh.so.4.8:_Z16opt_print_heightiid
libgmsh.so.4.8:_Z16opt_solver_name0iiRKNSt7__cxx1112basic_stringIcSt11char_traitsIcESaIcEEE
libgmsh.so.4.8:_Z16opt_solver_name1iiRKNSt7__cxx1112basic_stringIcSt11char_traitsIcESaIcEEE
libgmsh.so.4.8:_Z16opt_solver_name2iiRKNSt7__cxx1112basic_stringIcSt11char_traitsIcESaIcEEE
libgmsh.so.4.8:_Z16opt_solver_name3iiRKNSt7__cxx1112basic_stringIcSt11char_traitsIcESaIcEEE
libgmsh.so.4.8:_Z16opt_solver_name4iiRKNSt7__cxx1112basic_stringIcSt11char_traitsIcESaIcEEE
libgmsh.so.4.8:_Z16opt_solver_name5iiRKNSt7__cxx1112basic_stringIcSt11char_traitsIcESaIcEEE
libgmsh.so.4.8:_Z16opt_solver_name6iiRKNSt7__cxx1112basic_stringIcSt11char_traitsIcESaIcEEE
libgmsh.so.4.8:_Z16opt_solver_name7iiRKNSt7__cxx1112basic_stringIcSt11char_traitsIcESaIcEEE
libgmsh.so.4.8:_Z16opt_solver_name8iiRKNSt7__cxx1112basic_stringIcSt11char_traitsIcESaIcEEE
libgmsh.so.4.8:_Z16opt_solver_name9iiRKNSt7__cxx1112basic_stringIcSt11char_traitsIcESaIcEEE
libgmsh.so.4.8:_Z16opt_view_explodeiid
libgmsh.so.4.8:_Z16opt_view_normalsiid
libgmsh.so.4.8:_Z16opt_view_offset0iid
libgmsh.so.4.8:_Z16opt_view_offset1iid
libgmsh.so.4.8:_Z16opt_view_offset2iid
libgmsh.so.4.8:_Z16opt_view_visibleiid
libgmsh.so.4.8:_Z16partition_dialogv
libgmsh.so.4.8:_Z16quadsToTrianglesP5GFaced
libgmsh.so.4.8:_Z16scriptAddEllipseRKNSt7__cxx1112basic_stringIcSt11char_traitsIcESaIcEEES6_S6_S6_S6_S6_S6_S6_
libgmsh.so.4.8:_Z16scriptAddSurfaceRKNSt7__cxx1112basic_stringIcSt11char_traitsIcESaIcEEEP6List_TS6_
libgmsh.so.4.8:_Z16scriptSetFactoryRKNSt7__cxx1112basic_stringIcSt11char_traitsIcESaIcEEES6_
libgmsh.so.4.8:_Z16scriptSplitCurveiP6List_TRKNSt7__cxx1112basic_stringIcSt11char_traitsIcESaIcEEE
libgmsh.so.4.8:_Z16smoothVertexPassP5GFaceR8BDS_MeshRibdRd
libgmsh.so.4.8:_Z16unvinpFileDialogPKcS0_i
libgmsh.so.4.8:_Z16writeHOPointInfoRKSt3setIiSt4lessIiESaIiEEii
libgmsh.so.4.8:_Z16writeMSHEntitiesP8_IO_FILEP6GModel
libgmsh.so.4.8:_Z16writeZonesStructP6GModeldii
libgmsh.so.4.8:_Z17BDS_Face_ValidityP5GFaceP8BDS_Face
libgmsh.so.4.8:_Z17BuildSwapPattern3P11SwapPattern
libgmsh.so.4.8:_Z17BuildSwapPattern4P11SwapPattern
libgmsh.so.4.8:_Z17BuildSwapPattern5P11SwapPattern
libgmsh.so.4.8:_Z17BuildSwapPattern6P11SwapPattern
libgmsh.so.4.8:_Z17BuildSwapPattern7P11SwapPattern
libgmsh.so.4.8:_Z17CreateSurfaceLoopiP6List_T
libgmsh.so.4.8:_Z17FindPhysicalGroupii
libgmsh.so.4.8:_Z17FreePhysicalGroupPvS_
libgmsh.so.4.8:_Z17GetColorForStringiPKcPi
libgmsh.so.4.8:_Z17GetEnvironmentVarRKNSt7__cxx1112basic_stringIcSt11char_traitsIcESaIcEEE
libgmsh.so.4.8:_Z17GetShortcutsUsageRKNSt7__cxx1112basic_stringIcSt11char_traitsIcESaIcEEE
libgmsh.so.4.8:_Z17List_Pointer_FastP6List_Ti
libgmsh.so.4.8:_Z17MakeMeshConformalP6GModeli
libgmsh.so.4.8:_Z17MeshExtrudedCurveP5GEdge
libgmsh.so.4.8:_Z17RecognizeLineLoopP6List_TPi
libgmsh.so.4.8:_Z17SanitizeTeXStringB5cxx11PKci
libgmsh.so.4.8:_Z17SetEnvironmentVarRKNSt7__cxx1112basic_stringIcSt11char_traitsIcESaIcEEES6_
libgmsh.so.4.8:_Z17SetRotationMatrixPA4_dPdd
libgmsh.so.4.8:_Z17SetSymmetryMatrixPA4_ddddd
libgmsh.so.4.8:_Z17SetVolumeSurfacesP6VolumeP6List_T
libgmsh.so.4.8:_Z17_gui_action_validii
libgmsh.so.4.8:_Z17addElement2BucketP6bucketPvPdS2_S2_P6global
libgmsh.so.4.8:_Z17add_hex_to_regionP7GRegionRK3Hex
libgmsh.so.4.8:_Z17centroidOfPolygonR7SPoint2RSt6vectorIS_SaIS_EERdS5_S5_S5_P14simpleFunctionIdE
libgmsh.so.4.8:_Z17cgns2MshNodeIndexi
libgmsh.so.4.8:_Z17changeCoordinatesP5PViewiiiiiPPdS2_
libgmsh.so.4.8:_Z17changeReferentialiRK7SPoint3S1_S1_S1_PdS2_S2_S2_S2_S2_
libgmsh.so.4.8:_Z17compute4neighborsP5GFaceP7MVertexR7SPoint2bPA1_S3_R8SMetric3P8_IO_FILE
libgmsh.so.4.8:_Z17computeCrossFieldP6GModelRSt6vectorIiSaIiEE
libgmsh.so.4.8:_Z17computeQuadLayoutP6GModelRSt6vectorIiSaIiEE
libgmsh.so.4.8:_Z17computeReordering10fullMatrixIdES0_RSt6vectorIiSaIiEE
libgmsh.so.4.8:_Z17connectionChooserB5cxx11v
libgmsh.so.4.8:_Z17create_gmp_matrixmmPA1_12__mpz_struct
libgmsh.so.4.8:_Z17eulerAngleFromQtnRK3Qtn
libgmsh.so.4.8:_Z17findElementBucketP6bucketPd
libgmsh.so.4.8:_Z17general_gmpdcf_cbP9Fl_WidgetPv
libgmsh.so.4.8:_Z17getEntitiesToSaveRKSt6vectorIP7GEntitySaIS1_EEbRS3_
libgmsh.so.4.8:_Z17getParameterColorRKNSt7__cxx1112basic_stringIcSt11char_traitsIcESaIcEEERj
libgmsh.so.4.8:_Z17gmp_matrix_printfPK10gmp_matrix
libgmsh.so.4.8:_Z17gmp_matrix_transpP10gmp_matrix
libgmsh.so.4.8:_Z17gmsh_yyget_linenov
libgmsh.so.4.8:_Z17gmsh_yyset_linenoi
libgmsh.so.4.8:_Z17highordertools_cbP9Fl_WidgetPv
libgmsh.so.4.8:_Z17incrementVariableRKNSt7__cxx1112basic_stringIcSt11char_traitsIcESaIcEEEid
libgmsh.so.4.8:_Z17infinity_distanceRK7SPoint3S1_6Metric
libgmsh.so.4.8:_Z17insertActiveCellsddddR12cartesianBoxIdE
libgmsh.so.4.8:_Z17meshGRegionNetgenP7GRegion
libgmsh.so.4.8:_Z17opt_general_shineiid
libgmsh.so.4.8:_Z17opt_geometry_clipiid
libgmsh.so.4.8:_Z17opt_mesh_color_10iij
libgmsh.so.4.8:_Z17opt_mesh_color_11iij
libgmsh.so.4.8:_Z17opt_mesh_color_12iij
libgmsh.so.4.8:_Z17opt_mesh_color_13iij
libgmsh.so.4.8:_Z17opt_mesh_color_14iij
libgmsh.so.4.8:_Z17opt_mesh_color_15iij
libgmsh.so.4.8:_Z17opt_mesh_color_16iij
libgmsh.so.4.8:_Z17opt_mesh_color_17iij
libgmsh.so.4.8:_Z17opt_mesh_color_18iij
libgmsh.so.4.8:_Z17opt_mesh_color_19iij
libgmsh.so.4.8:_Z17opt_mesh_cpu_timeiid
libgmsh.so.4.8:_Z17opt_mesh_nb_nodesiid
libgmsh.so.4.8:_Z17opt_mesh_optimizeiid
libgmsh.so.4.8:_Z17opt_mesh_pyramidsiid
libgmsh.so.4.8:_Z17opt_mesh_renumberiid
libgmsh.so.4.8:_Z17opt_mesh_save_alliid
libgmsh.so.4.8:_Z17opt_mesh_tangentsiid
libgmsh.so.4.8:_Z17opt_mesh_trihedraiid
libgmsh.so.4.8:_Z17opt_post_nb_viewsiid
libgmsh.so.4.8:_Z17opt_print_pos_etaiid
libgmsh.so.4.8:_Z17opt_solver_listeniid
libgmsh.so.4.8:_Z17opt_view_boundaryiid
libgmsh.so.4.8:_Z17opt_view_filenameiiRKNSt7__cxx1112basic_stringIcSt11char_traitsIcESaIcEEE
libgmsh.so.4.8:_Z17opt_view_samplingiid
libgmsh.so.4.8:_Z17opt_view_stipple0iiRKNSt7__cxx1112basic_stringIcSt11char_traitsIcESaIcEEE
libgmsh.so.4.8:_Z17opt_view_stipple1iiRKNSt7__cxx1112basic_stringIcSt11char_traitsIcESaIcEEE
libgmsh.so.4.8:_Z17opt_view_stipple2iiRKNSt7__cxx1112basic_stringIcSt11char_traitsIcESaIcEEE
libgmsh.so.4.8:_Z17opt_view_stipple3iiRKNSt7__cxx1112basic_stringIcSt11char_traitsIcESaIcEEE
libgmsh.so.4.8:_Z17opt_view_stipple4iiRKNSt7__cxx1112basic_stringIcSt11char_traitsIcESaIcEEE
libgmsh.so.4.8:_Z17opt_view_stipple5iiRKNSt7__cxx1112basic_stringIcSt11char_traitsIcESaIcEEE
libgmsh.so.4.8:_Z17opt_view_stipple6iiRKNSt7__cxx1112basic_stringIcSt11char_traitsIcESaIcEEE
libgmsh.so.4.8:_Z17opt_view_stipple7iiRKNSt7__cxx1112basic_stringIcSt11char_traitsIcESaIcEEE
libgmsh.so.4.8:_Z17opt_view_stipple8iiRKNSt7__cxx1112basic_stringIcSt11char_traitsIcESaIcEEE
libgmsh.so.4.8:_Z17opt_view_stipple9iiRKNSt7__cxx1112basic_stringIcSt11char_traitsIcESaIcEEE
libgmsh.so.4.8:_Z17opt_view_tangentsiid
libgmsh.so.4.8:_Z17opt_view_timestepiid
libgmsh.so.4.8:_Z17optionsFileDialogPKc
libgmsh.so.4.8:_Z17outputScalarFieldRSt6vectorIP8BDS_FaceSaIS1_EEPKciP5GFace
libgmsh.so.4.8:_Z17planarQuad_xyz2xyPdS_S_S_S_
libgmsh.so.4.8:_Z17printListOfDoublePcP6List_TS_
libgmsh.so.4.8:_Z17print_stats_graphRKSt8multimapIySt4pairIP3HexS_IyS2_St4lessIyESaIS0_IKyS2_EEEES4_SaIS0_IS5_S9_EEE
libgmsh.so.4.8:_Z17rtree_callback_3DP7MVertexPv
libgmsh.so.4.8:_Z17scriptAddCylinderRKNSt7__cxx1112basic_stringIcSt11char_traitsIcESaIcEEES6_S6_S6_S6_S6_S6_S6_S6_
libgmsh.so.4.8:_Z17scriptDeleteFieldiRKNSt7__cxx1112basic_stringIcSt11char_traitsIcESaIcEEE
libgmsh.so.4.8:_Z17scriptSetCompoundRKNSt7__cxx1112basic_stringIcSt11char_traitsIcESaIcEEES6_RKSt6vectorIiSaIiEE
libgmsh.so.4.8:_Z17scriptSetMeshSizeRKNSt7__cxx1112basic_stringIcSt11char_traitsIcESaIcEEERKSt6vectorIiSaIiEES6_
libgmsh.so.4.8:_Z17searchAllElementsP6bucketPdP6globalPFvPvS1_S1_EPFiS4_S1_EPSt6vectorIS4_SaIS4_EE
libgmsh.so.4.8:_Z17show_hide_menu_cbP9Fl_WidgetPv
libgmsh.so.4.8:_Z17solver_options_cbP9Fl_WidgetPv
libgmsh.so.4.8:_Z17status_options_cbP9Fl_WidgetPv
libgmsh.so.4.8:_Z17subdivide_pyramidP8MElementP7GRegionRSt3mapI5MFaceSt6vectorIP7MVertexSaIS7_EE13MFaceLessThanSaISt4pairIKS4_S9_EEERS5_IP11MHexahedronSaISI_EE
libgmsh.so.4.8:_Z17tryCentroidShrinkPPdPiiiRK11ANNorthRectPFvS0_S1_S4_iiRiRdS5_ERS2_
libgmsh.so.4.8:_Z17vectorpair2intptrRKSt6vectorISt4pairIiiESaIS1_EEPPiPm
libgmsh.so.4.8:_Z17writeGeomEntitiesRSt3mapIP7GEntityNSt7__cxx1112basic_stringIcSt11char_traitsIcESaIcEEESt4lessIS1_ESaISt4pairIKS1_S7_EEEii
libgmsh.so.4.8:_Z17x3dViewFileDialogPKcS0_i
libgmsh.so.4.8:_Z18ColorTable_IsAlphaP14GmshColorTable
libgmsh.so.4.8:_Z18CompareSurfaceLoopPKvS0_
libgmsh.so.4.8:_Z18DeletePhysicalLinei
libgmsh.so.4.8:_Z18GetDefaultFileNameB5cxx11i
libgmsh.so.4.8:_Z18GmshGetColorOptionRKNSt7__cxx1112basic_stringIcSt11char_traitsIcESaIcEEES6_i
libgmsh.so.4.8:_Z18GmshSetBoundingBoxdddddd
libgmsh.so.4.8:_Z18GmshSetColorOptionRKNSt7__cxx1112basic_stringIcSt11char_traitsIcESaIcEEES6_ji
libgmsh.so.4.8:_Z18HilbertCoordinatesdddddddd
libgmsh.so.4.8:_Z18InterpolateSurfaceP7Surfaceddii
libgmsh.so.4.8:_Z18Intersect_Edges_2dddddddddPd
libgmsh.so.4.8:_Z18MeshDelaunayVolumeRSt6vectorIP7GRegionSaIS1_EE
libgmsh.so.4.8:_Z18PrintParserSymbolsbRSt6vectorINSt7__cxx1112basic_stringIcSt11char_traitsIcESaIcEEESaIS5_EE
libgmsh.so.4.8:_Z18addParameterWidgetRN6onelab6numberEiiiidRKNSt7__cxx1112basic_stringIcSt11char_traitsIcESaIcEEEbjjRSt6vectorIPcSaISB_EE
libgmsh.so.4.8:_Z18addParameterWidgetRN6onelab6stringEiiiidRKNSt7__cxx1112basic_stringIcSt11char_traitsIcESaIcEEEbjjRSt6vectorIPcSaISB_EE
libgmsh.so.4.8:_Z18approximationErrorR14simpleFunctionIdEP8MElement
libgmsh.so.4.8:_Z18buildEdgeToElementP5GFaceRSt3mapI5MEdgeSt4pairIP8MElementS5_E13MEdgeLessThanSaIS3_IKS2_S6_EEE
libgmsh.so.4.8:_Z18createMatLob2LagP6v
libgmsh.so.4.8:_Z18destroy_gmp_matrixP10gmp_matrix
libgmsh.so.4.8:_Z18distanceToGeometryP6GModelidii
libgmsh.so.4.8:_Z18distanceToGeometryP6GModeliiidii
libgmsh.so.4.8:_Z18ensureManifoldFaceP5GFace
libgmsh.so.4.8:_Z18fileChooserGetNameB5cxx11i
libgmsh.so.4.8:_Z18general_options_cbP9Fl_WidgetPv
libgmsh.so.4.8:_Z18geometry_reload_cbP9Fl_WidgetPv
libgmsh.so.4.8:_Z18getAllPhysicalTagsiP6List_T
libgmsh.so.4.8:_Z18getLocalInfoAtNodeP7MVertexP18BoundaryLayerFieldRd
libgmsh.so.4.8:_Z18gmp_matrix_add_colP12__mpz_structmmP10gmp_matrix
libgmsh.so.4.8:_Z18gmp_matrix_add_rowP12__mpz_structmmP10gmp_matrix
libgmsh.so.4.8:_Z18gmp_matrix_col_inzmmmP10gmp_matrix
libgmsh.so.4.8:_Z18gmp_matrix_col_rotP12__mpz_structS0_mS0_S0_mP10gmp_matrix
libgmsh.so.4.8:_Z18gmp_matrix_fprintfP8_IO_FILEPK10gmp_matrix
libgmsh.so.4.8:_Z18gmp_matrix_row_inzmmmP10gmp_matrix
libgmsh.so.4.8:_Z18gmp_matrix_row_rotP12__mpz_structS0_mS0_S0_mP10gmp_matrix
libgmsh.so.4.8:_Z18gmshGeneratePoints13FuncSpaceDataR10fullMatrixIdE
libgmsh.so.4.8:_Z18gmsh_yy_scan_bytesPKcm
libgmsh.so.4.8:_Z18gmsh_yylex_destroyv
libgmsh.so.4.8:_Z18max_surf_curvaturePK7GVertexdddPK5GEdge
libgmsh.so.4.8:_Z18med2mshElementTypei
libgmsh.so.4.8:_Z18meshStatFileDialogPKc
libgmsh.so.4.8:_Z18msh2medElementTypei
libgmsh.so.4.8:_Z18opt_general_clip0aiid
libgmsh.so.4.8:_Z18opt_general_clip0biid
libgmsh.so.4.8:_Z18opt_general_clip0ciid
libgmsh.so.4.8:_Z18opt_general_clip0diid
libgmsh.so.4.8:_Z18opt_general_clip1aiid
libgmsh.so.4.8:_Z18opt_general_clip1biid
libgmsh.so.4.8:_Z18opt_general_clip1ciid
libgmsh.so.4.8:_Z18opt_general_clip1diid
libgmsh.so.4.8:_Z18opt_general_clip2aiid
libgmsh.so.4.8:_Z18opt_general_clip2biid
libgmsh.so.4.8:_Z18opt_general_clip2ciid
libgmsh.so.4.8:_Z18opt_general_clip2diid
libgmsh.so.4.8:_Z18opt_general_clip3aiid
libgmsh.so.4.8:_Z18opt_general_clip3biid
libgmsh.so.4.8:_Z18opt_general_clip3ciid
libgmsh.so.4.8:_Z18opt_general_clip3diid
libgmsh.so.4.8:_Z18opt_general_clip4aiid
libgmsh.so.4.8:_Z18opt_general_clip4biid
libgmsh.so.4.8:_Z18opt_general_clip4ciid
libgmsh.so.4.8:_Z18opt_general_clip4diid
libgmsh.so.4.8:_Z18opt_general_clip5aiid
libgmsh.so.4.8:_Z18opt_general_clip5biid
libgmsh.so.4.8:_Z18opt_general_clip5ciid
libgmsh.so.4.8:_Z18opt_general_clip5diid
libgmsh.so.4.8:_Z18opt_general_editoriiRKNSt7__cxx1112basic_stringIcSt11char_traitsIcESaIcEEE
libgmsh.so.4.8:_Z18opt_general_light0iid
libgmsh.so.4.8:_Z18opt_general_light1iid
libgmsh.so.4.8:_Z18opt_general_light2iid
libgmsh.so.4.8:_Z18opt_general_light3iid
libgmsh.so.4.8:_Z18opt_general_light4iid
libgmsh.so.4.8:_Z18opt_general_light5iid
libgmsh.so.4.8:_Z18opt_general_scale0iid
libgmsh.so.4.8:_Z18opt_general_scale1iid
libgmsh.so.4.8:_Z18opt_general_scale2iid
libgmsh.so.4.8:_Z18opt_geometry_lightiid
libgmsh.so.4.8:_Z18opt_geometry_snap0iid
libgmsh.so.4.8:_Z18opt_geometry_snap1iid
libgmsh.so.4.8:_Z18opt_geometry_snap2iid
libgmsh.so.4.8:_Z18opt_mesh_aniso_maxiid
libgmsh.so.4.8:_Z18opt_mesh_hexahedraiid
libgmsh.so.4.8:_Z18opt_mesh_lc_factoriid
libgmsh.so.4.8:_Z18opt_mesh_nb_prismsiid
libgmsh.so.4.8:_Z18opt_mesh_node_sizeiid
libgmsh.so.4.8:_Z18opt_mesh_node_typeiid
libgmsh.so.4.8:_Z18opt_mesh_trianglesiid
libgmsh.so.4.8:_Z18opt_post_anim_stepiid
libgmsh.so.4.8:_Z18opt_post_save_meshiid
libgmsh.so.4.8:_Z18opt_print_gif_sortiid
libgmsh.so.4.8:_Z18opt_print_pos_SICNiid
libgmsh.so.4.8:_Z18opt_print_pos_SIGEiid
libgmsh.so.4.8:_Z18opt_solver_pluginsiid
libgmsh.so.4.8:_Z18opt_solver_timeoutiid
libgmsh.so.4.8:_Z18opt_view_axes_xmaxiid
libgmsh.so.4.8:_Z18opt_view_axes_xminiid
libgmsh.so.4.8:_Z18opt_view_axes_ymaxiid
libgmsh.so.4.8:_Z18opt_view_axes_yminiid
libgmsh.so.4.8:_Z18opt_view_axes_zmaxiid
libgmsh.so.4.8:_Z18opt_view_axes_zminiid
libgmsh.so.4.8:_Z18opt_view_line_typeiid
libgmsh.so.4.8:_Z18opt_view_position0iid
libgmsh.so.4.8:_Z18opt_view_position1iid
libgmsh.so.4.8:_Z18opt_view_show_timeiid
libgmsh.so.4.8:_Z18readEltNodeTransfoiiRSt3mapINSt7__cxx1112basic_stringIcSt11char_traitsIcESaIcEEESt6vectorIS6_IiSaIiEESaIS8_EESt4lessIS5_ESaISt4pairIKS5_SA_EEE
libgmsh.so.4.8:_Z18recombineIntoQuadsP5GFacebibd
libgmsh.so.4.8:_Z18scriptAddCircleArciiiRKNSt7__cxx1112basic_stringIcSt11char_traitsIcESaIcEEE
libgmsh.so.4.8:_Z18scriptAddCurveLoopP6List_TRKNSt7__cxx1112basic_stringIcSt11char_traitsIcESaIcEEEPi
libgmsh.so.4.8:_Z18scriptAddParameterRKNSt7__cxx1112basic_stringIcSt11char_traitsIcESaIcEEES6_S6_S6_S6_
libgmsh.so.4.8:_Z18scriptAddRectangleRKNSt7__cxx1112basic_stringIcSt11char_traitsIcESaIcEEES6_S6_S6_S6_S6_S6_
libgmsh.so.4.8:_Z18sqDistPointSegmentRK7SPoint3S1_S1_
libgmsh.so.4.8:_Z18status_play_manualiib
libgmsh.so.4.8:_Z18taylorDistanceEdgeP5MLineP5GEdge
libgmsh.so.4.8:_Z18taylorDistanceFaceP8MElementP5GFace
libgmsh.so.4.8:_Z18taylorDistanceSq1DPK13GradientBasisRK10fullMatrixIdERKSt6vectorI8SVector3SaIS7_EE
libgmsh.so.4.8:_Z18taylorDistanceSq2DPK13GradientBasisRK10fullMatrixIdERKSt6vectorI8SVector3SaIS7_EE
libgmsh.so.4.8:_Z19ConvertFileToStringRKNSt7__cxx1112basic_stringIcSt11char_traitsIcESaIcEEE
libgmsh.so.4.8:_Z19CreatePhysicalGroupiiP6List_T
libgmsh.so.4.8:_Z19CreateReversedCurveP5Curve
libgmsh.so.4.8:_Z19DeletePhysicalPointi
libgmsh.so.4.8:_Z19GetGmshBuildOptionsv
libgmsh.so.4.8:_Z19GetGmshExtraVersionv
libgmsh.so.4.8:_Z19GetGmshMajorVersionv
libgmsh.so.4.8:_Z19GetGmshMinorVersionv
libgmsh.so.4.8:_Z19GetGmshPatchVersionv
libgmsh.so.4.8:_Z19GetGmshShortLicensev
libgmsh.so.4.8:_Z19GetKnownFileFormatsB5cxx11b
libgmsh.so.4.8:_Z19GmshGetNumberOptionRKNSt7__cxx1112basic_stringIcSt11char_traitsIcESaIcEEES6_i
libgmsh.so.4.8:_Z19GmshGetStringOptionRKNSt7__cxx1112basic_stringIcSt11char_traitsIcESaIcEEES6_i
libgmsh.so.4.8:_Z19GmshSetNumberOptionRKNSt7__cxx1112basic_stringIcSt11char_traitsIcESaIcEEES6_di
libgmsh.so.4.8:_Z19GmshSetStringOptionRKNSt7__cxx1112basic_stringIcSt11char_traitsIcESaIcEEES6_S4_i
libgmsh.so.4.8:_Z19IsValidQuadToTriTopP5GFacePiPb
libgmsh.so.4.8:_Z19ListOfDouble2VectorP6List_TRSt6vectorIdSaIdEE
libgmsh.so.4.8:_Z19ListOfDouble2VectorP6List_TRSt6vectorIiSaIiEE
libgmsh.so.4.8:_Z19List_Insert_In_ListP6List_TiS0_
libgmsh.so.4.8:_Z19MeshExtrudedSurfaceP5GFacePSt3setISt4pairIP7MVertexS4_ESt4lessIS5_ESaIS5_EE
libgmsh.so.4.8:_Z19QtFindVertsCentroidSt6vectorIP7MVertexSaIS1_EE
libgmsh.so.4.8:_Z19RedirectIOToConsolev
libgmsh.so.4.8:_Z19SetDilatationMatrixPA4_dPdddd
libgmsh.so.4.8:_Z19SortEdgeConsecutiveRKSt6vectorI5MEdgeSaIS0_EERS_IS_IP7MVertexSaIS6_EESaIS8_EE
libgmsh.so.4.8:_Z19bowyerWatsonFrontalP5GFacePSt3mapIP7MVertexS3_St4lessIS3_ESaISt4pairIKS3_S3_EEEPS1_IS3_7SPoint2S5_SaIS6_IS7_SC_EEEPSt6vectorISC_SaISC_EE
libgmsh.so.4.8:_Z19buildBackgroundMeshP5GFacebPSt3mapIP7MVertexS3_St4lessIS3_ESaISt4pairIKS3_S3_EEEPS1_IS3_7SPoint2S5_SaIS6_IS7_SC_EEE
libgmsh.so.4.8:_Z19buildEdgeToElementsRSt6vectorIP8MElementSaIS1_EERSt3mapI5MEdgeSt4pairIS1_S1_E13MEdgeLessThanSaIS7_IKS6_S8_EEE
libgmsh.so.4.8:_Z19buildEdgeToTriangleRSt6vectorIP9MTriangleSaIS1_EERSt3mapI5MEdgeSt4pairIP8MElementS9_E13MEdgeLessThanSaIS7_IKS6_SA_EEE
libgmsh.so.4.8:_Z19computeEquivalencesP5GFaceR13bidimMeshData
libgmsh.so.4.8:_Z19computeSixNeighborsP26frameFieldBackgroundMesh3DP7MVertexRSt6vectorIS2_SaIS2_EE8STensor3d
libgmsh.so.4.8:_Z19computeTwoNeighborsP26frameFieldBackgroundMesh3DP7MVertexRSt6vectorIS2_SaIS2_EE8SVector3d
libgmsh.so.4.8:_Z19connectTets_vector2RNSt7__cxx114listIP5MTet4SaIS2_EEERSt6vectorI8faceXtetSaIS7_EE
libgmsh.so.4.8:_Z19connectTets_vector2RSt6vectorIP5MTet4SaIS1_EERS_I8faceXtetSaIS5_EE
libgmsh.so.4.8:_Z19delaunayMeshIn3DHxtRSt6vectorIP7MVertexSaIS1_EERS_IP12MTetrahedronSaIS6_EE
libgmsh.so.4.8:_Z19ensureManifoldFacesP6GModel
libgmsh.so.4.8:_Z19export_gregion_meshP7GRegionRKNSt7__cxx1112basic_stringIcSt11char_traitsIcESaIcEEE
libgmsh.so.4.8:_Z19geometry_options_cbP9Fl_WidgetPv
libgmsh.so.4.8:_Z19getPeriodicEntitiesRKSt6vectorIP7GEntitySaIS1_EERS3_
libgmsh.so.4.8:_Z19gmp_matrix_get_elemP12__mpz_structmmPK10gmp_matrix
libgmsh.so.4.8:_Z19gmp_matrix_set_elemP12__mpz_structmmPK10gmp_matrix
libgmsh.so.4.8:_Z19gmsh_yy_scan_bufferPcm
libgmsh.so.4.8:_Z19gmsh_yy_scan_stringPKc
libgmsh.so.4.8:_Z19goldenSectionSearchPK5GEdgeRK7SPoint3dddd
libgmsh.so.4.8:_Z19inCircumCircleAnisoP5GFaceP9MTrianglePKdS4_R13bidimMeshData
libgmsh.so.4.8:_Z19inCircumCircleAnisoP5GFacePdS1_S1_S1_S1_
libgmsh.so.4.8:_Z19initializeMetamodelRKNSt7__cxx1112basic_stringIcSt11char_traitsIcESaIcEEEPN6onelab6clientEPFvdEi
libgmsh.so.4.8:_Z19meshGEdgeProcessingP5GEdgeddRiRSt6vectorI8IntPointSaIS3_EERdS1_
libgmsh.so.4.8:_Z19meshQuadToTriRegionP7GRegionR12MVertexRTree
libgmsh.so.4.8:_Z19opt_general_displayiiRKNSt7__cxx1112basic_stringIcSt11char_traitsIcESaIcEEE
libgmsh.so.4.8:_Z19opt_general_gamepadiid
libgmsh.so.4.8:_Z19opt_general_light00iid
libgmsh.so.4.8:_Z19opt_general_light01iid
libgmsh.so.4.8:_Z19opt_general_light02iid
libgmsh.so.4.8:_Z19opt_general_light03iid
libgmsh.so.4.8:_Z19opt_general_light10iid
libgmsh.so.4.8:_Z19opt_general_light11iid
libgmsh.so.4.8:_Z19opt_general_light12iid
libgmsh.so.4.8:_Z19opt_general_light13iid
libgmsh.so.4.8:_Z19opt_general_light20iid
libgmsh.so.4.8:_Z19opt_general_light21iid
libgmsh.so.4.8:_Z19opt_general_light22iid
libgmsh.so.4.8:_Z19opt_general_light23iid
libgmsh.so.4.8:_Z19opt_general_light30iid
libgmsh.so.4.8:_Z19opt_general_light31iid
libgmsh.so.4.8:_Z19opt_general_light32iid
libgmsh.so.4.8:_Z19opt_general_light33iid
libgmsh.so.4.8:_Z19opt_general_light40iid
libgmsh.so.4.8:_Z19opt_general_light41iid
libgmsh.so.4.8:_Z19opt_general_light42iid
libgmsh.so.4.8:_Z19opt_general_light43iid
libgmsh.so.4.8:_Z19opt_general_light50iid
libgmsh.so.4.8:_Z19opt_general_light51iid
libgmsh.so.4.8:_Z19opt_general_light52iid
libgmsh.so.4.8:_Z19opt_general_light53iid
libgmsh.so.4.8:_Z19opt_general_nopopupiid
libgmsh.so.4.8:_Z19opt_general_versioniiRKNSt7__cxx1112basic_stringIcSt11char_traitsIcESaIcEEE
libgmsh.so.4.8:_Z19opt_geometry_curvesiid
libgmsh.so.4.8:_Z19opt_geometry_pointsiid
libgmsh.so.4.8:_Z19opt_mesh_ho_max_rhoiid
libgmsh.so.4.8:_Z19opt_mesh_ho_nlayersiid
libgmsh.so.4.8:_Z19opt_mesh_ho_poissoniid
libgmsh.so.4.8:_Z19opt_mesh_label_typeiid
libgmsh.so.4.8:_Z19opt_mesh_line_widthiid
libgmsh.so.4.8:_Z19opt_mesh_radius_infiid
libgmsh.so.4.8:_Z19opt_mesh_radius_supiid
libgmsh.so.4.8:_Z19opt_mesh_tetrahedraiid
libgmsh.so.4.8:_Z19opt_post_anim_cycleiid
libgmsh.so.4.8:_Z19opt_post_anim_delayiid
libgmsh.so.4.8:_Z19opt_print_parameteriid
libgmsh.so.4.8:_Z19opt_print_pos_distoiid
libgmsh.so.4.8:_Z19opt_print_pos_gammaiid
libgmsh.so.4.8:_Z19opt_print_x3d_edgesiid
libgmsh.so.4.8:_Z19opt_view_attributesiiRKNSt7__cxx1112basic_stringIcSt11char_traitsIcESaIcEEE
libgmsh.so.4.8:_Z19opt_view_axes_tics0iid
libgmsh.so.4.8:_Z19opt_view_axes_tics1iid
libgmsh.so.4.8:_Z19opt_view_axes_tics2iid
libgmsh.so.4.8:_Z19opt_view_color_axesiij
libgmsh.so.4.8:_Z19opt_view_custom_maxiid
libgmsh.so.4.8:_Z19opt_view_custom_miniid
libgmsh.so.4.8:_Z19opt_view_draw_linesiid
libgmsh.so.4.8:_Z19opt_view_gen_raise0iiRKNSt7__cxx1112basic_stringIcSt11char_traitsIcESaIcEEE
libgmsh.so.4.8:_Z19opt_view_gen_raise1iiRKNSt7__cxx1112basic_stringIcSt11char_traitsIcESaIcEEE
libgmsh.so.4.8:_Z19opt_view_gen_raise2iiRKNSt7__cxx1112basic_stringIcSt11char_traitsIcESaIcEEE
libgmsh.so.4.8:_Z19opt_view_line_widthiid
libgmsh.so.4.8:_Z19opt_view_point_sizeiid
libgmsh.so.4.8:_Z19opt_view_point_typeiid
libgmsh.so.4.8:_Z19opt_view_range_typeiid
libgmsh.so.4.8:_Z19opt_view_scale_typeiid
libgmsh.so.4.8:_Z19opt_view_show_scaleiid
libgmsh.so.4.8:_Z19partition_cancel_cbP9Fl_WidgetPv
libgmsh.so.4.8:_Z19pgfBitmapFileDialogPKcS0_i
libgmsh.so.4.8:_Z19projectPointToPlaneRK7SPoint3RS_RK10mean_plane
libgmsh.so.4.8:_Z19pvtuAdaptFileDialogPKc
libgmsh.so.4.8:_Z19removeBadChildCellsP12cartesianBoxIdE
libgmsh.so.4.8:_Z19removeTwoQuadsNodesP5GFace
libgmsh.so.4.8:_Z19scriptAddEllipseArciiiiRKNSt7__cxx1112basic_stringIcSt11char_traitsIcESaIcEEE
libgmsh.so.4.8:_Z19scriptSetVisibilityiRKSt6vectorISt4pairIiiESaIS1_EERKNSt7__cxx1112basic_stringIcSt11char_traitsIcESaIcEEE
libgmsh.so.4.8:_Z19writeElementsMATLABP8_IO_FILEPK7GEntityibi
libgmsh.so.4.8:_Z20ColorTable_InitParamiP14GmshColorTable
libgmsh.so.4.8:_Z20ColorTable_RecomputeP14GmshColorTable
libgmsh.so.4.8:_Z20ComparePhysicalGroupPKvS0_
libgmsh.so.4.8:_Z20DeletePhysicalVolumei
libgmsh.so.4.8:_Z20MeshQualityOptimizerP6GModelR21MeshQualOptParameters
libgmsh.so.4.8:_Z20MeshQualityOptimizerRSt6vectorIP7GEntitySaIS1_EER21MeshQualOptParameters
libgmsh.so.4.8:_Z20OpenProjectMacFinderPKc
libgmsh.so.4.8:_Z20QtMakeCentroidVertexRKSt6vectorIP7MVertexSaIS1_EEPS3_P7GEntityR12MVertexRTree
libgmsh.so.4.8:_Z20RecognizeSurfaceLoopP6List_TPi
libgmsh.so.4.8:_Z20ReplaceAllDuplicatesv
libgmsh.so.4.8:_Z20Sanitize_String_TexiRNSt7__cxx1112basic_stringIcSt11char_traitsIcESaIcEEE
libgmsh.so.4.8:_Z20SetTranslationMatrixPA4_dPd
libgmsh.so.4.8:_Z20_eulerCharacteristicP7GRegion
libgmsh.so.4.8:_Z20buildListOfEdgeAngleSt3mapI5MEdgeSt4pairIP8MElementS3_E13MEdgeLessThanSaIS1_IKS0_S4_EEERSt6vectorI10edge_angleSaISB_EESE_
libgmsh.so.4.8:_Z20checkElementInBucketP6bucketPv
libgmsh.so.4.8:_Z20computeDistanceRatioRKdS0_S0_S0_PdS0_S0_
libgmsh.so.4.8:_Z20computeFourNeighborsP26frameFieldBackgroundMesh2DP7MVertexR7SPoint2bPA1_S3_R8SMetric3
libgmsh.so.4.8:_Z20computeSetSmoothnessSt6vectorI7cross3DSaIS0_EE
libgmsh.so.4.8:_Z20curve2DBoundaryLayerRSt6vectorISt4pairIP8MElementS_IS2_SaIS2_EEESaIS5_EE8SVector3PK5GEdge
libgmsh.so.4.8:_Z20curve2DBoundaryLayerRSt6vectorISt4pairIP8MElementS_IS2_SaIS2_EEESaIS5_EEPK5GFacePK5GEdge
libgmsh.so.4.8:_Z20curve3DBoundaryLayerRSt6vectorISt4pairIP8MElementS_IS2_SaIS2_EEESaIS5_EEPK5GFace
libgmsh.so.4.8:_Z20exportMeshToDassaultP6GModelRKNSt7__cxx1112basic_stringIcSt11char_traitsIcESaIcEEEi
libgmsh.so.4.8:_Z20extractExpandPatternRKNSt7__cxx1112basic_stringIcSt11char_traitsIcESaIcEEE
libgmsh.so.4.8:_Z20far_from_boundary_3DP26frameFieldBackgroundMesh3DP7MVertexd
libgmsh.so.4.8:_Z20fileChooserGetFilterv
libgmsh.so.4.8:_Z20getAllElementaryTagsiP6List_T
libgmsh.so.4.8:_Z20gmp_matrix_left_multPK10gmp_matrixPS_
libgmsh.so.4.8:_Z20gmp_matrix_swap_colsmmP10gmp_matrix
libgmsh.so.4.8:_Z20gmp_matrix_swap_rowsmmP10gmp_matrix
libgmsh.so.4.8:_Z20gmsh_yy_flush_bufferP15yy_buffer_state
libgmsh.so.4.8:_Z20infinity_distance_3DPK7MVertexS1_R8STensor3
libgmsh.so.4.8:_Z20intersection_alauzetRK8SMetric3S1_
libgmsh.so.4.8:_Z20makeCavityStarShapedRSt6vectorI8faceXtetSaIS0_EERS_IP5MTet4SaIS5_EEP7MVertex
libgmsh.so.4.8:_Z20opt_general_filenameiiRKNSt7__cxx1112basic_stringIcSt11char_traitsIcESaIcEEE
libgmsh.so.4.8:_Z20opt_general_fontsizeiid
libgmsh.so.4.8:_Z20opt_general_terminaliid
libgmsh.so.4.8:_Z20opt_general_tooltipsiid
libgmsh.so.4.8:_Z20opt_geometry_normalsiid
libgmsh.so.4.8:_Z20opt_geometry_offset0iid
libgmsh.so.4.8:_Z20opt_geometry_offset1iid
libgmsh.so.4.8:_Z20opt_geometry_offset2iid
libgmsh.so.4.8:_Z20opt_geometry_volumesiid
libgmsh.so.4.8:_Z20opt_mesh_color_linesiij
libgmsh.so.4.8:_Z20opt_mesh_color_nodesiij
libgmsh.so.4.8:_Z20opt_mesh_file_formatiid
libgmsh.so.4.8:_Z20opt_mesh_ho_dist_cadiid
libgmsh.so.4.8:_Z20opt_mesh_ho_iter_maxiid
libgmsh.so.4.8:_Z20opt_mesh_ho_optimizeiid
libgmsh.so.4.8:_Z20opt_mesh_ho_pass_maxiid
libgmsh.so.4.8:_Z20opt_mesh_ho_periodiciid
libgmsh.so.4.8:_Z20opt_mesh_light_linesiid
libgmsh.so.4.8:_Z20opt_mesh_line_labelsiid
libgmsh.so.4.8:_Z20opt_mesh_max_retriesiid
libgmsh.so.4.8:_Z20opt_mesh_nb_pyramidsiid
libgmsh.so.4.8:_Z20opt_mesh_nb_trihedraiid
libgmsh.so.4.8:_Z20opt_mesh_node_labelsiid
libgmsh.so.4.8:_Z20opt_mesh_quadranglesiid
libgmsh.so.4.8:_Z20opt_mesh_quality_infiid
libgmsh.so.4.8:_Z20opt_mesh_quality_supiid
libgmsh.so.4.8:_Z20opt_mesh_rand_factoriid
libgmsh.so.4.8:_Z20opt_mesh_random_seediid
libgmsh.so.4.8:_Z20opt_post_file_formatiid
libgmsh.so.4.8:_Z20opt_print_backgroundiid
libgmsh.so.4.8:_Z20opt_print_geo_labelsiid
libgmsh.so.4.8:_Z20opt_print_gif_ditheriid
libgmsh.so.4.8:_Z20opt_solver_auto_meshiid
libgmsh.so.4.8:_Z20opt_solver_extensioniiRKNSt7__cxx1112basic_stringIcSt11char_traitsIcESaIcEEE
libgmsh.so.4.8:_Z20opt_view_axes_label0iiRKNSt7__cxx1112basic_stringIcSt11char_traitsIcESaIcEEE
libgmsh.so.4.8:_Z20opt_view_axes_label1iiRKNSt7__cxx1112basic_stringIcSt11char_traitsIcESaIcEEE
libgmsh.so.4.8:_Z20opt_view_axes_label2iiRKNSt7__cxx1112basic_stringIcSt11char_traitsIcESaIcEEE
libgmsh.so.4.8:_Z20opt_view_axes_mikadoiid
libgmsh.so.4.8:_Z20opt_view_color_linesiij
libgmsh.so.4.8:_Z20opt_view_draw_pointsiid
libgmsh.so.4.8:_Z20opt_view_draw_prismsiid
libgmsh.so.4.8:_Z20opt_view_light_linesiid
libgmsh.so.4.8:_Z20opt_view_max_visibleiid
libgmsh.so.4.8:_Z20opt_view_min_visibleiid
libgmsh.so.4.8:_Z20opt_view_nb_timestepiid
libgmsh.so.4.8:_Z20opt_view_tensor_typeiid
libgmsh.so.4.8:_Z20opt_view_transform00iid
libgmsh.so.4.8:_Z20opt_view_transform01iid
libgmsh.so.4.8:_Z20opt_view_transform02iid
libgmsh.so.4.8:_Z20opt_view_transform10iid
libgmsh.so.4.8:_Z20opt_view_transform11iid
libgmsh.so.4.8:_Z20opt_view_transform12iid
libgmsh.so.4.8:_Z20opt_view_transform20iid
libgmsh.so.4.8:_Z20opt_view_transform21iid
libgmsh.so.4.8:_Z20opt_view_transform22iid
libgmsh.so.4.8:_Z20opt_view_use_stippleiid
libgmsh.so.4.8:_Z20opt_view_vector_typeiid
libgmsh.so.4.8:_Z20print_nodal_info_intRKNSt7__cxx1112basic_stringIcSt11char_traitsIcESaIcEEERSt3mapIP7MVertexiSt4lessIS9_ESaISt4pairIKS9_iEEE
libgmsh.so.4.8:_Z20projectPointsToPlaneRKSt6vectorI7SPoint3SaIS0_EERS2_RK10mean_plane
libgmsh.so.4.8:_Z20readMSHPeriodicNodesP8_IO_FILEP6GModel
libgmsh.so.4.8:_Z20scriptAddFieldOptioniRKNSt7__cxx1112basic_stringIcSt11char_traitsIcESaIcEEES6_S6_
libgmsh.so.4.8:_Z20scriptAddSurfaceLoopP6List_TRKNSt7__cxx1112basic_stringIcSt11char_traitsIcESaIcEEEPi
libgmsh.so.4.8:_Z20scriptDeleteEntitiesRKNSt7__cxx1112basic_stringIcSt11char_traitsIcESaIcEEERKSt6vectorISt4pairIiiESaIS9_EEb
libgmsh.so.4.8:_Z20show_hide_message_cbP9Fl_WidgetPv
libgmsh.so.4.8:_Z20smoothVertexOptimizeP5MTet4iRKN13qmTetrahedron8MeasuresE
libgmsh.so.4.8:_Z21BarycentricRefineMeshP6GModel
libgmsh.so.4.8:_Z21CurvatureRusinkiewiczRKSt6vectorIiSaIiEERKS_I7SPoint3SaIS4_EERS_ISt4pairI8SVector3SA_ESaISB_EE
libgmsh.so.4.8:_Z21CurvatureRusinkiewiczRKSt6vectorIiSaIiEERKS_I7SPoint3SaIS4_EERS_ISt4pairI8SVector3SA_ESaISB_EERS_IdSaIdEE
libgmsh.so.4.8:_Z21DeletePhysicalSurfacei
libgmsh.so.4.8:_Z21GetExecutableFileNameB5cxx11v
libgmsh.so.4.8:_Z21GmshGetMessageHandlerv
libgmsh.so.4.8:_Z21GmshSetMessageHandlerP11GmshMessage
libgmsh.so.4.8:_Z21IsInToroidalQuadToTriP5GFace
libgmsh.so.4.8:_Z21LC_MVertex_CURV_ANISOP7GEntitydd
libgmsh.so.4.8:_Z21List_Pointer_NoChangeP6List_Ti
libgmsh.so.4.8:_Z21MeshTransfiniteVolumeP7GRegion
libgmsh.so.4.8:_Z21ProjectPointOnSurfaceP7SurfaceR6VertexPd
libgmsh.so.4.8:_Z21ReplaceBndQuadsInFaceP5GFace
libgmsh.so.4.8:_Z21SubdivideExtrudedMeshP6GModel
libgmsh.so.4.8:_Z21attach_detach_menu_cbP9Fl_WidgetPv
libgmsh.so.4.8:_Z21centroidOfOrientedBoxRSt6vectorI7SPoint2SaIS0_EERKdRdS6_S6_S6_
libgmsh.so.4.8:_Z21compare_xmax_trianglePK14TriangleToSortS1_
libgmsh.so.4.8:_Z21compare_xmin_trianglePK14TriangleToSortS1_
libgmsh.so.4.8:_Z21compare_ymax_trianglePK14TriangleToSortS1_
libgmsh.so.4.8:_Z21compare_ymin_trianglePK14TriangleToSortS1_
libgmsh.so.4.8:_Z21compare_zmax_trianglePK14TriangleToSortS1_
libgmsh.so.4.8:_Z21compare_zmin_trianglePK14TriangleToSortS1_
libgmsh.so.4.8:_Z21computeCrossFieldAndHP6GModelRSt6vectorIiSaIiEE
libgmsh.so.4.8:_Z21createExtraConnexionsR10dofManagerIdERSt6vectorI14groupOfCross2dSaIS3_EERS2_I15cutGraphPassageSaIS7_EE
libgmsh.so.4.8:_Z21create_gmp_matrix_intmmPKl
libgmsh.so.4.8:_Z21delaunayTriangulationiiRSt6vectorIP7MVertexSaIS1_EERS_IP12MTetrahedronSaIS6_EEb
libgmsh.so.4.8:_Z21general_options_ok_cbP9Fl_WidgetPv
libgmsh.so.4.8:_Z21genericMeshFileDialogPKcS0_ibb
libgmsh.so.4.8:_Z21genericViewFileDialogPKcS0_i
libgmsh.so.4.8:_Z21gmp_matrix_negate_colmP10gmp_matrix
libgmsh.so.4.8:_Z21gmp_matrix_negate_rowmP10gmp_matrix
libgmsh.so.4.8:_Z21gmp_matrix_read_coordPc
libgmsh.so.4.8:_Z21gmp_matrix_right_multP10gmp_matrixPKS_
libgmsh.so.4.8:_Z21gmshGenerateMonomials13FuncSpaceDataR10fullMatrixIdE
libgmsh.so.4.8:_Z21gmsh_yy_create_bufferP8_IO_FILEi
libgmsh.so.4.8:_Z21gmsh_yy_delete_bufferP15yy_buffer_state
libgmsh.so.4.8:_Z21intersectCurveSurfaceR12curveFunctorR14surfaceFunctorPdd
libgmsh.so.4.8:_Z21intersection_segmentsRK7SPoint2S1_S1_S1_Pd
libgmsh.so.4.8:_Z21intersection_segmentsRK7SPoint3S1_S1_S1_Pd
libgmsh.so.4.8:_Z21opt_general_axes_xmaxiid
libgmsh.so.4.8:_Z21opt_general_axes_xminiid
libgmsh.so.4.8:_Z21opt_general_axes_ymaxiid
libgmsh.so.4.8:_Z21opt_general_axes_yminiid
libgmsh.so.4.8:_Z21opt_general_axes_zmaxiid
libgmsh.so.4.8:_Z21opt_general_axes_zminiid
libgmsh.so.4.8:_Z21opt_general_gui_themeiiRKNSt7__cxx1112basic_stringIcSt11char_traitsIcESaIcEEE
libgmsh.so.4.8:_Z21opt_general_rotation0iid
libgmsh.so.4.8:_Z21opt_general_rotation1iid
libgmsh.so.4.8:_Z21opt_general_rotation2iid
libgmsh.so.4.8:_Z21opt_general_trackballiid
libgmsh.so.4.8:_Z21opt_general_verbosityiid
libgmsh.so.4.8:_Z21opt_geometry_surfacesiid
libgmsh.so.4.8:_Z21opt_geometry_tangentsiid
libgmsh.so.4.8:_Z21opt_mesh_color_prismsiij
libgmsh.so.4.8:_Z21opt_mesh_ho_max_angleiid
libgmsh.so.4.8:_Z21opt_mesh_nb_hexahedraiid
libgmsh.so.4.8:_Z21opt_mesh_nb_smoothingiid
libgmsh.so.4.8:_Z21opt_mesh_nb_trianglesiid
libgmsh.so.4.8:_Z21opt_mesh_quality_typeiid
libgmsh.so.4.8:_Z21opt_mesh_refine_stepsiid
libgmsh.so.4.8:_Z21opt_mesh_smooth_ratioiid
libgmsh.so.4.8:_Z21opt_mesh_volume_edgesiid
libgmsh.so.4.8:_Z21opt_mesh_volume_facesiid
libgmsh.so.4.8:_Z21opt_print_eps_qualityiid
libgmsh.so.4.8:_Z21opt_print_file_formatiid
libgmsh.so.4.8:_Z21opt_print_pgf_two_dimiid
libgmsh.so.4.8:_Z21opt_print_pos_elementiid
libgmsh.so.4.8:_Z21opt_solver_auto_checkiid
libgmsh.so.4.8:_Z21opt_solver_executableiiRKNSt7__cxx1112basic_stringIcSt11char_traitsIcESaIcEEE
libgmsh.so.4.8:_Z21opt_solver_extension0iiRKNSt7__cxx1112basic_stringIcSt11char_traitsIcESaIcEEE
libgmsh.so.4.8:_Z21opt_solver_extension1iiRKNSt7__cxx1112basic_stringIcSt11char_traitsIcESaIcEEE
libgmsh.so.4.8:_Z21opt_solver_extension2iiRKNSt7__cxx1112basic_stringIcSt11char_traitsIcESaIcEEE
libgmsh.so.4.8:_Z21opt_solver_extension3iiRKNSt7__cxx1112basic_stringIcSt11char_traitsIcESaIcEEE
libgmsh.so.4.8:_Z21opt_solver_extension4iiRKNSt7__cxx1112basic_stringIcSt11char_traitsIcESaIcEEE
libgmsh.so.4.8:_Z21opt_solver_extension5iiRKNSt7__cxx1112basic_stringIcSt11char_traitsIcESaIcEEE
libgmsh.so.4.8:_Z21opt_solver_extension6iiRKNSt7__cxx1112basic_stringIcSt11char_traitsIcESaIcEEE
libgmsh.so.4.8:_Z21opt_solver_extension7iiRKNSt7__cxx1112basic_stringIcSt11char_traitsIcESaIcEEE
libgmsh.so.4.8:_Z21opt_solver_extension8iiRKNSt7__cxx1112basic_stringIcSt11char_traitsIcESaIcEEE
libgmsh.so.4.8:_Z21opt_solver_extension9iiRKNSt7__cxx1112basic_stringIcSt11char_traitsIcESaIcEEE
libgmsh.so.4.8:_Z21opt_view_axes_format0iiRKNSt7__cxx1112basic_stringIcSt11char_traitsIcESaIcEEE
libgmsh.so.4.8:_Z21opt_view_axes_format1iiRKNSt7__cxx1112basic_stringIcSt11char_traitsIcESaIcEEE
libgmsh.so.4.8:_Z21opt_view_axes_format2iiRKNSt7__cxx1112basic_stringIcSt11char_traitsIcESaIcEEE
libgmsh.so.4.8:_Z21opt_view_color_pointsiij
libgmsh.so.4.8:_Z21opt_view_color_prismsiij
libgmsh.so.4.8:_Z21opt_view_color_text2diij
libgmsh.so.4.8:_Z21opt_view_color_text3diij
libgmsh.so.4.8:_Z21opt_view_draw_scalarsiid
libgmsh.so.4.8:_Z21opt_view_draw_stringsiid
libgmsh.so.4.8:_Z21opt_view_draw_tensorsiid
libgmsh.so.4.8:_Z21opt_view_draw_vectorsiid
libgmsh.so.4.8:_Z21opt_view_normal_raiseiid
libgmsh.so.4.8:_Z21opt_view_show_elementiid
libgmsh.so.4.8:_Z21opt_view_target_erroriid
libgmsh.so.4.8:_Z21partition_defaults_cbP9Fl_WidgetPv
libgmsh.so.4.8:_Z21recurChangeVisibilityP12RecurElement
libgmsh.so.4.8:_Z21recurChangeVisibilityP12RecurElementRKSt6vectorIP9gLevelsetSaIS3_EEd
libgmsh.so.4.8:_Z21reparamMeshEdgeOnFaceP7MVertexS0_P5GFaceR7SPoint2S4_
libgmsh.so.4.8:_Z21subdivideOctantBucketP6bucketP6global
libgmsh.so.4.8:_Z21transferDataStructureP5GFaceRSt3setIP5MTri314compareTri3PtrSaIS3_EER13bidimMeshData
libgmsh.so.4.8:_Z21writeMSHPeriodicNodesP8_IO_FILERSt6vectorIP7GEntitySaIS3_EEbb
libgmsh.so.4.8:_Z22GetFileNameWithoutPathRKNSt7__cxx1112basic_stringIcSt11char_traitsIcESaIcEEE
libgmsh.so.4.8:_Z22HighOrderMeshOptimizerP6GModelR16OptHomParameters
libgmsh.so.4.8:_Z22HighOrderMeshOptimizerRSt6vectorIP7GEntitySaIS1_EER16OptHomParameters
libgmsh.so.4.8:_Z22InterpolateCubicSplinePP6VertexdPA4_dddP11gmshSurfacei
libgmsh.so.4.8:_Z22IsSurfaceATopForRegionP7GRegionP5GFace
libgmsh.so.4.8:_Z22IsValidQuadToTriRegionP7GRegionPb
libgmsh.so.4.8:_Z22ListOfDouble2ListOfIntP6List_T
libgmsh.so.4.8:_Z22MeshTransfiniteSurfaceP5GFace
libgmsh.so.4.8:_Z22QuadToTriEdgeGeneratorP7GRegionR25CategorizedSourceElementsRSt3setISt4pairIP7MVertexS6_ESt4lessIS7_ESaIS7_EESC_RSt3mapIP8MElementS3_IS4_IjjES8_ISG_ESaISG_EES8_ISF_ESaIS4_IKSF_SJ_EEER12MVertexRTree
libgmsh.so.4.8:_Z22SetSurfaceGeneratricesP7SurfaceP6List_T
libgmsh.so.4.8:_Z22_getIndicesReversedHexiRSt6vectorIiSaIiEE
libgmsh.so.4.8:_Z22_getIndicesReversedPriiRSt6vectorIiSaIiEE
libgmsh.so.4.8:_Z22_getIndicesReversedPyriRSt6vectorIiSaIiEE
libgmsh.so.4.8:_Z22_getIndicesReversedTetiRSt6vectorIiSaIiEE
libgmsh.so.4.8:_Z22change_print_parameteri
libgmsh.so.4.8:_Z22computeMeanPlaneSimpleRKSt6vectorI7SPoint3SaIS0_EER10mean_plane
libgmsh.so.4.8:_Z22computeParametrizationRKSt6vectorIP9MTriangleSaIS1_EERS_IP7MVertexSaIS7_EERS_I7SPoint2SaISB_EERS_I7SPoint3SaISF_EERS_IiSaIiEE
libgmsh.so.4.8:_Z22create_gmp_matrix_zeromm
libgmsh.so.4.8:_Z22fileChooserGetPositionPiS_
libgmsh.so.4.8:_Z22findTransfiniteCornersP5GFaceRSt6vectorIP7MVertexSaIS3_EE
libgmsh.so.4.8:_Z22findTransfiniteCornersP7GRegionRSt6vectorIP7MVertexSaIS3_EE
libgmsh.so.4.8:_Z22gmp_matrix_is_diagonalPK10gmp_matrix
libgmsh.so.4.8:_Z22gmp_matrix_write_coordPcP10gmp_matrix
libgmsh.so.4.8:_Z22gmshGeneratePointsLinei
libgmsh.so.4.8:_Z22insertVerticesInRegionP7GRegionidbP17splitQuadRecovery
libgmsh.so.4.8:_Z22non_recursive_classifyP5MTet4RNSt7__cxx114listIS0_SaIS0_EEERSt3setIP5GFaceSt4lessIS8_ESaIS8_EEP7GRegionP6GModelRKSt3mapI5MFaceS8_13MFaceLessThanSaISt4pairIKSJ_S8_EEE
libgmsh.so.4.8:_Z22opt_general_axes_tics0iid
libgmsh.so.4.8:_Z22opt_general_axes_tics1iid
libgmsh.so.4.8:_Z22opt_general_axes_tics2iid
libgmsh.so.4.8:_Z22opt_general_build_infoiiRKNSt7__cxx1112basic_stringIcSt11char_traitsIcESaIcEEE
libgmsh.so.4.8:_Z22opt_general_color_axesiij
libgmsh.so.4.8:_Z22opt_general_color_textiij
libgmsh.so.4.8:_Z22opt_general_line_widthiid
libgmsh.so.4.8:_Z22opt_general_menu_size0iid
libgmsh.so.4.8:_Z22opt_general_menu_size1iid
libgmsh.so.4.8:_Z22opt_general_point_sizeiid
libgmsh.so.4.8:_Z22opt_general_small_axesiid
libgmsh.so.4.8:_Z22opt_geometry_toleranceiid
libgmsh.so.4.8:_Z22opt_geometry_transformiid
libgmsh.so.4.8:_Z22opt_mesh_color_normalsiij
libgmsh.so.4.8:_Z22opt_mesh_color_pyramidiij
libgmsh.so.4.8:_Z22opt_mesh_nb_tetrahedraiid
libgmsh.so.4.8:_Z22opt_mesh_num_sub_edgesiid
libgmsh.so.4.8:_Z22opt_mesh_partition_numiid
libgmsh.so.4.8:_Z22opt_mesh_rand_factor3diid
libgmsh.so.4.8:_Z22opt_mesh_recombine_alliid
libgmsh.so.4.8:_Z22opt_mesh_save_topologyiid
libgmsh.so.4.8:_Z22opt_mesh_surface_edgesiid
libgmsh.so.4.8:_Z22opt_mesh_surface_facesiid
libgmsh.so.4.8:_Z22opt_mesh_volume_labelsiid
libgmsh.so.4.8:_Z22opt_print_eps_compressiid
libgmsh.so.4.8:_Z22opt_print_jpeg_qualityiid
libgmsh.so.4.8:_Z22opt_print_x3d_surfacesiid
libgmsh.so.4.8:_Z22opt_print_x3d_verticesiid
libgmsh.so.4.8:_Z22opt_solver_executable0iiRKNSt7__cxx1112basic_stringIcSt11char_traitsIcESaIcEEE
libgmsh.so.4.8:_Z22opt_solver_executable1iiRKNSt7__cxx1112basic_stringIcSt11char_traitsIcESaIcEEE
libgmsh.so.4.8:_Z22opt_solver_executable2iiRKNSt7__cxx1112basic_stringIcSt11char_traitsIcESaIcEEE
libgmsh.so.4.8:_Z22opt_solver_executable3iiRKNSt7__cxx1112basic_stringIcSt11char_traitsIcESaIcEEE
libgmsh.so.4.8:_Z22opt_solver_executable4iiRKNSt7__cxx1112basic_stringIcSt11char_traitsIcESaIcEEE
libgmsh.so.4.8:_Z22opt_solver_executable5iiRKNSt7__cxx1112basic_stringIcSt11char_traitsIcESaIcEEE
libgmsh.so.4.8:_Z22opt_solver_executable6iiRKNSt7__cxx1112basic_stringIcSt11char_traitsIcESaIcEEE
libgmsh.so.4.8:_Z22opt_solver_executable7iiRKNSt7__cxx1112basic_stringIcSt11char_traitsIcESaIcEEE
libgmsh.so.4.8:_Z22opt_solver_executable8iiRKNSt7__cxx1112basic_stringIcSt11char_traitsIcESaIcEEE
libgmsh.so.4.8:_Z22opt_solver_executable9iiRKNSt7__cxx1112basic_stringIcSt11char_traitsIcESaIcEEE
libgmsh.so.4.8:_Z22opt_solver_socket_nameiiRKNSt7__cxx1112basic_stringIcSt11char_traitsIcESaIcEEE
libgmsh.so.4.8:_Z22opt_view_auto_positioniid
libgmsh.so.4.8:_Z22opt_view_center_glyphsiid
libgmsh.so.4.8:_Z22opt_view_color_normalsiij
libgmsh.so.4.8:_Z22opt_view_colormap_betaiid
libgmsh.so.4.8:_Z22opt_view_colormap_biasiid
libgmsh.so.4.8:_Z22opt_view_colormap_swapiid
libgmsh.so.4.8:_Z22opt_view_draw_pyramidsiid
libgmsh.so.4.8:_Z22opt_view_draw_trihedraiid
libgmsh.so.4.8:_Z22opt_view_external_viewiid
libgmsh.so.4.8:_Z22opt_view_use_gen_raiseiid
libgmsh.so.4.8:_Z22partition_partition_cbP9Fl_WidgetPv
libgmsh.so.4.8:_Z22scriptRecombineSurfaceRKNSt7__cxx1112basic_stringIcSt11char_traitsIcESaIcEEERKSt6vectorIiSaIiEE
libgmsh.so.4.8:_Z22scriptSetVisibilityAlliRKNSt7__cxx1112basic_stringIcSt11char_traitsIcESaIcEEE
libgmsh.so.4.8:_Z23DeleteAllModelsAndViewsv
libgmsh.so.4.8:_Z23Extend2dMeshIn3dVolumesv
libgmsh.so.4.8:_Z23FindDiagonalEdgeIndicesSt6vectorIP7MVertexSaIS1_EEP5GFacebj
libgmsh.so.4.8:_Z23GFaceDelaunayRefinementm
libgmsh.so.4.8:_Z23GetDefaultFileExtensionB5cxx11ib
libgmsh.so.4.8:_Z23IsValidQuadToTriLateralP5GFacePiPb
libgmsh.so.4.8:_Z23MergePostProcessingFileRKNSt7__cxx1112basic_stringIcSt11char_traitsIcESaIcEEEibb
libgmsh.so.4.8:_Z23MeshQuadToTriTopSurfaceP5GFaceS0_R12MVertexRTree
libgmsh.so.4.8:_Z23PartitionUsingThisSplitP6GModelmRSt6vectorISt4pairIP8MElementiESaIS5_EE
libgmsh.so.4.8:_Z23QuadToTriCreateElementsP7GRegionR25CategorizedSourceElementsRSt3setISt4pairIP7MVertexS6_ESt4lessIS7_ESaIS7_EESC_RSt3mapIP8MElementS3_IS4_IjjES8_ISG_ESaISG_EES8_ISF_ESaIS4_IKSF_SJ_EEER12MVertexRTree
libgmsh.so.4.8:_Z23ReplaceAllDuplicatesNewd
libgmsh.so.4.8:_Z23ReplaceSubStringInPlaceRKNSt7__cxx1112basic_stringIcSt11char_traitsIcESaIcEEES6_RS4_
libgmsh.so.4.8:_Z23assembleExtraConnexionsR10dofManagerIdERSt6vectorI14groupOfCross2dSaIS3_EERS2_I15cutGraphPassageSaIS7_EE
libgmsh.so.4.8:_Z23buildAdditionalPoints2DP5GFace
libgmsh.so.4.8:_Z23buildVertexCavity_recurP5MTet4P7MVertexRSt6vectorIS0_SaIS0_EE
libgmsh.so.4.8:_Z23checkHighOrderTrianglesPKcP6GModelRSt6vectorIP8MElementSaIS5_EERd
libgmsh.so.4.8:_Z23computeNonManifoldEdgesP6GModelRSt6vectorIP5MLineSaIS3_EEb
libgmsh.so.4.8:_Z23destroy_gmp_normal_formP15gmp_normal_form
libgmsh.so.4.8:_Z23discreteFrechetDistanceRKSt6vectorI7SPoint3SaIS0_EES4_
libgmsh.so.4.8:_Z23genericBitmapFileDialogPKcS0_i
libgmsh.so.4.8:_Z23getEntitiesInPartitionsRKSt6vectorIP7GEntitySaIS1_EERS_IS3_SaIS3_EE
libgmsh.so.4.8:_Z23getInnerVertexPlacementii
libgmsh.so.4.8:_Z23gmshGeneratePointsPrismib
libgmsh.so.4.8:_Z23gmsh_yypop_buffer_statev
libgmsh.so.4.8:_Z23initializeOctantBucketsPdS_iPP6bucketPP6global
libgmsh.so.4.8:_Z23intersection_conserveM1RK8SMetric3S1_
libgmsh.so.4.8:_Z23opt_general_axes_label0iiRKNSt7__cxx1112basic_stringIcSt11char_traitsIcESaIcEEE
libgmsh.so.4.8:_Z23opt_general_axes_label1iiRKNSt7__cxx1112basic_stringIcSt11char_traitsIcESaIcEEE
libgmsh.so.4.8:_Z23opt_general_axes_label2iiRKNSt7__cxx1112basic_stringIcSt11char_traitsIcESaIcEEE
libgmsh.so.4.8:_Z23opt_general_axes_mikadoiid
libgmsh.so.4.8:_Z23opt_general_camera_modeiid
libgmsh.so.4.8:_Z23opt_general_clip_factoriid
libgmsh.so.4.8:_Z23opt_general_expert_modeiid
libgmsh.so.4.8:_Z23opt_general_extra_size0iid
libgmsh.so.4.8:_Z23opt_general_extra_size1iid
libgmsh.so.4.8:_Z23opt_general_fast_redrawiid
libgmsh.so.4.8:_Z23opt_general_field_size0iid
libgmsh.so.4.8:_Z23opt_general_field_size1iid
libgmsh.so.4.8:_Z23opt_general_num_threadsiid
libgmsh.so.4.8:_Z23opt_general_quaternion0iid
libgmsh.so.4.8:_Z23opt_general_quaternion1iid
libgmsh.so.4.8:_Z23opt_general_quaternion2iid
libgmsh.so.4.8:_Z23opt_general_quaternion3iid
libgmsh.so.4.8:_Z23opt_general_stereo_modeiid
libgmsh.so.4.8:_Z23opt_general_vector_typeiid
libgmsh.so.4.8:_Z23opt_general_zoom_factoriid
libgmsh.so.4.8:_Z23opt_geometry_curve_typeiid
libgmsh.so.4.8:_Z23opt_geometry_label_typeiid
libgmsh.so.4.8:_Z23opt_geometry_old_circleiid
libgmsh.so.4.8:_Z23opt_geometry_old_newregiid
libgmsh.so.4.8:_Z23opt_geometry_point_sizeiid
libgmsh.so.4.8:_Z23opt_geometry_point_typeiid
libgmsh.so.4.8:_Z23opt_mesh_algo_recombineiid
libgmsh.so.4.8:_Z23opt_mesh_algo_subdivideiid
libgmsh.so.4.8:_Z23opt_mesh_color_carouseliid
libgmsh.so.4.8:_Z23opt_mesh_color_tangentsiij
libgmsh.so.4.8:_Z23opt_mesh_draw_skin_onlyiid
libgmsh.so.4.8:_Z23opt_mesh_first_node_tagiid
libgmsh.so.4.8:_Z23opt_mesh_label_samplingiid
libgmsh.so.4.8:_Z23opt_mesh_lc_from_pointsiid
libgmsh.so.4.8:_Z23opt_mesh_light_two_sideiid
libgmsh.so.4.8:_Z23opt_mesh_nb_quadranglesiid
libgmsh.so.4.8:_Z23opt_mesh_scaling_factoriid
libgmsh.so.4.8:_Z23opt_mesh_smooth_normalsiid
libgmsh.so.4.8:_Z23opt_mesh_surface_labelsiid
libgmsh.so.4.8:_Z23opt_print_eps_best_rootiid
libgmsh.so.4.8:_Z23opt_print_gif_interlaceiid
libgmsh.so.4.8:_Z23opt_print_pgf_horiz_bariid
libgmsh.so.4.8:_Z23opt_print_x3d_precisioniid
libgmsh.so.4.8:_Z23opt_solver_remote_loginiiRKNSt7__cxx1112basic_stringIcSt11char_traitsIcESaIcEEE
libgmsh.so.4.8:_Z23opt_view_arrow_size_maxiid
libgmsh.so.4.8:_Z23opt_view_arrow_size_miniid
libgmsh.so.4.8:_Z23opt_view_color_pyramidsiij
libgmsh.so.4.8:_Z23opt_view_color_tangentsiij
libgmsh.so.4.8:_Z23opt_view_color_trihedraiij
libgmsh.so.4.8:_Z23opt_view_colormap_alphaiid
libgmsh.so.4.8:_Z23opt_view_component_map0iid
libgmsh.so.4.8:_Z23opt_view_component_map1iid
libgmsh.so.4.8:_Z23opt_view_component_map2iid
libgmsh.so.4.8:_Z23opt_view_component_map3iid
libgmsh.so.4.8:_Z23opt_view_component_map4iid
libgmsh.so.4.8:_Z23opt_view_component_map5iid
libgmsh.so.4.8:_Z23opt_view_component_map6iid
libgmsh.so.4.8:_Z23opt_view_component_map7iid
libgmsh.so.4.8:_Z23opt_view_component_map8iid
libgmsh.so.4.8:_Z23opt_view_draw_hexahedraiid
libgmsh.so.4.8:_Z23opt_view_draw_skin_onlyiid
libgmsh.so.4.8:_Z23opt_view_draw_trianglesiid
libgmsh.so.4.8:_Z23opt_view_gen_raise_viewiid
libgmsh.so.4.8:_Z23opt_view_glyph_locationiid
libgmsh.so.4.8:_Z23opt_view_intervals_typeiid
libgmsh.so.4.8:_Z23opt_view_light_two_sideiid
libgmsh.so.4.8:_Z23opt_view_smooth_normalsiid
libgmsh.so.4.8:_Z23packingOfParallelogramsP5GFaceRSt6vectorIP7MVertexSaIS3_EERS1_I8SMetric3SaIS7_EE
libgmsh.so.4.8:_Z23print_nodal_info_doubleRKNSt7__cxx1112basic_stringIcSt11char_traitsIcESaIcEEERSt3mapIP7MVertexdSt4lessIS9_ESaISt4pairIKS9_dEEE
libgmsh.so.4.8:_Z23quad_face_opposite_edgeP5GFaceP5GEdge
libgmsh.so.4.8:_Z23reparamMeshVertexOnEdgeP7MVertexPK5GEdgeRd
libgmsh.so.4.8:_Z23reparamMeshVertexOnFacePK7MVertexPK5GFaceR7SPoint2b
libgmsh.so.4.8:_Z23scriptRemoveLastCommandRKNSt7__cxx1112basic_stringIcSt11char_traitsIcESaIcEEE
libgmsh.so.4.8:_Z23signedDistancePointLineRK7SPoint3S1_S1_RdRS_
libgmsh.so.4.8:_Z23vectorstring2charptrptrRKSt6vectorINSt7__cxx1112basic_stringIcSt11char_traitsIcESaIcEEESaIS5_EEPPPcPm
libgmsh.so.4.8:_Z24Extend1dMeshIn2dSurfacesP5GFace
libgmsh.so.4.8:_Z24GetNeighborRegionsOfFaceP5GFaceRSt6vectorIP7GRegionSaIS3_EE
libgmsh.so.4.8:_Z24HighOrderMeshFastCurvingP6GModelR21FastCurvingParametersb
libgmsh.so.4.8:_Z24Mesh2DWithBoundaryLayersP6GModel
libgmsh.so.4.8:_Z24buildEdgeSearchStructureP6GModelRSt8multimapIP7MVertexSt4pairIP5MLineP5GEdgeESt4lessIS3_ESaIS4_IKS3_S9_EEE
libgmsh.so.4.8:_Z24buildFaceSearchStructureP6GModelRSt3mapI5MFaceP5GFace13MFaceLessThanSaISt4pairIKS2_S4_EEEb
libgmsh.so.4.8:_Z24createTopologyFromMesh1DP6GModelRi
libgmsh.so.4.8:_Z24createTopologyFromMesh2DP6GModelRi
libgmsh.so.4.8:_Z24createTopologyFromMesh3DP6GModelRi
libgmsh.so.4.8:_Z24getAllConnectedTrianglesP7cross2dRSt6vectorIS0_SaIS0_EERSt3setIP7MVertex18MVertexPtrLessThanSaIS7_EESB_RS5_IP9MTriangleSt4lessISD_ESaISD_EESI_
libgmsh.so.4.8:_Z24getGaussJacobiQuadratureiiiPPdS0_
libgmsh.so.4.8:_Z24gmsh_yy_switch_to_bufferP15yy_buffer_state
libgmsh.so.4.8:_Z24gmsh_yypush_buffer_stateP15yy_buffer_state
libgmsh.so.4.8:_Z24msh2CgnsReferenceElementiRK10fullMatrixIdERSt6vectorIdSaIdEES6_S6_
libgmsh.so.4.8:_Z24opt_general_antialiasingiid
libgmsh.so.4.8:_Z24opt_general_axes_format0iiRKNSt7__cxx1112basic_stringIcSt11char_traitsIcESaIcEEE
libgmsh.so.4.8:_Z24opt_general_axes_format1iiRKNSt7__cxx1112basic_stringIcSt11char_traitsIcESaIcEEE
libgmsh.so.4.8:_Z24opt_general_axes_format2iiRKNSt7__cxx1112basic_stringIcSt11char_traitsIcESaIcEEE
libgmsh.so.4.8:_Z24opt_general_color_schemeiid
libgmsh.so.4.8:_Z24opt_general_message_sizeiid
libgmsh.so.4.8:_Z24opt_general_options_saveiid
libgmsh.so.4.8:_Z24opt_general_orthographiciid
libgmsh.so.4.8:_Z24opt_general_plugin_size0iid
libgmsh.so.4.8:_Z24opt_general_plugin_size1iid
libgmsh.so.4.8:_Z24opt_general_recent_file0iiRKNSt7__cxx1112basic_stringIcSt11char_traitsIcESaIcEEE
libgmsh.so.4.8:_Z24opt_general_recent_file1iiRKNSt7__cxx1112basic_stringIcSt11char_traitsIcESaIcEEE
libgmsh.so.4.8:_Z24opt_general_recent_file2iiRKNSt7__cxx1112basic_stringIcSt11char_traitsIcESaIcEEE
libgmsh.so.4.8:_Z24opt_general_recent_file3iiRKNSt7__cxx1112basic_stringIcSt11char_traitsIcESaIcEEE
libgmsh.so.4.8:_Z24opt_general_recent_file4iiRKNSt7__cxx1112basic_stringIcSt11char_traitsIcESaIcEEE
libgmsh.so.4.8:_Z24opt_general_recent_file5iiRKNSt7__cxx1112basic_stringIcSt11char_traitsIcESaIcEEE
libgmsh.so.4.8:_Z24opt_general_recent_file6iiRKNSt7__cxx1112basic_stringIcSt11char_traitsIcESaIcEEE
libgmsh.so.4.8:_Z24opt_general_recent_file7iiRKNSt7__cxx1112basic_stringIcSt11char_traitsIcESaIcEEE
libgmsh.so.4.8:_Z24opt_general_recent_file8iiRKNSt7__cxx1112basic_stringIcSt11char_traitsIcESaIcEEE
libgmsh.so.4.8:_Z24opt_general_recent_file9iiRKNSt7__cxx1112basic_stringIcSt11char_traitsIcESaIcEEE
libgmsh.so.4.8:_Z24opt_general_session_saveiid
libgmsh.so.4.8:_Z24opt_general_tmp_filenameiiRKNSt7__cxx1112basic_stringIcSt11char_traitsIcESaIcEEE
libgmsh.so.4.8:_Z24opt_general_translation0iid
libgmsh.so.4.8:_Z24opt_general_translation1iid
libgmsh.so.4.8:_Z24opt_general_translation2iid
libgmsh.so.4.8:_Z24opt_geometry_curve_widthiid
libgmsh.so.4.8:_Z24opt_geometry_occ_scalingiid
libgmsh.so.4.8:_Z24opt_geometry_transform00iid
libgmsh.so.4.8:_Z24opt_geometry_transform01iid
libgmsh.so.4.8:_Z24opt_geometry_transform02iid
libgmsh.so.4.8:_Z24opt_geometry_transform10iid
libgmsh.so.4.8:_Z24opt_geometry_transform11iid
libgmsh.so.4.8:_Z24opt_geometry_transform12iid
libgmsh.so.4.8:_Z24opt_geometry_transform20iid
libgmsh.so.4.8:_Z24opt_geometry_transform21iid
libgmsh.so.4.8:_Z24opt_geometry_transform22iid
libgmsh.so.4.8:_Z24opt_mesh_color_hexahedraiij
libgmsh.so.4.8:_Z24opt_mesh_color_nodes_supiij
libgmsh.so.4.8:_Z24opt_mesh_color_trianglesiij
libgmsh.so.4.8:_Z24opt_mesh_color_trihedroniij
libgmsh.so.4.8:_Z24opt_mesh_ho_max_in_angleiid
libgmsh.so.4.8:_Z24opt_mesh_mesh_only_emptyiid
libgmsh.so.4.8:_Z24opt_mesh_min_curve_nodesiid
libgmsh.so.4.8:_Z24opt_mesh_optimize_netgeniid
libgmsh.so.4.8:_Z24opt_mesh_recombine3d_alliid
libgmsh.so.4.8:_Z24opt_mesh_save_parametriciid
libgmsh.so.4.8:_Z24opt_mesh_zone_definitioniid
libgmsh.so.4.8:_Z24opt_post_force_node_dataiid
libgmsh.so.4.8:_Z24opt_print_eps_ps3shadingiid
libgmsh.so.4.8:_Z24opt_print_jpeg_smoothingiid
libgmsh.so.4.8:_Z24opt_print_parameter_lastiid
libgmsh.so.4.8:_Z24opt_print_pos_elementaryiid
libgmsh.so.4.8:_Z24opt_solver_remote_login0iiRKNSt7__cxx1112basic_stringIcSt11char_traitsIcESaIcEEE
libgmsh.so.4.8:_Z24opt_solver_remote_login1iiRKNSt7__cxx1112basic_stringIcSt11char_traitsIcESaIcEEE
libgmsh.so.4.8:_Z24opt_solver_remote_login2iiRKNSt7__cxx1112basic_stringIcSt11char_traitsIcESaIcEEE
libgmsh.so.4.8:_Z24opt_solver_remote_login3iiRKNSt7__cxx1112basic_stringIcSt11char_traitsIcESaIcEEE
libgmsh.so.4.8:_Z24opt_solver_remote_login4iiRKNSt7__cxx1112basic_stringIcSt11char_traitsIcESaIcEEE
libgmsh.so.4.8:_Z24opt_solver_remote_login5iiRKNSt7__cxx1112basic_stringIcSt11char_traitsIcESaIcEEE
libgmsh.so.4.8:_Z24opt_solver_remote_login6iiRKNSt7__cxx1112basic_stringIcSt11char_traitsIcESaIcEEE
libgmsh.so.4.8:_Z24opt_solver_remote_login7iiRKNSt7__cxx1112basic_stringIcSt11char_traitsIcESaIcEEE
libgmsh.so.4.8:_Z24opt_solver_remote_login8iiRKNSt7__cxx1112basic_stringIcSt11char_traitsIcESaIcEEE
libgmsh.so.4.8:_Z24opt_solver_remote_login9iiRKNSt7__cxx1112basic_stringIcSt11char_traitsIcESaIcEEE
libgmsh.so.4.8:_Z24opt_view_color_hexahedraiij
libgmsh.so.4.8:_Z24opt_view_color_trianglesiij
libgmsh.so.4.8:_Z24opt_view_colormap_invertiid
libgmsh.so.4.8:_Z24opt_view_colormap_numberiid
libgmsh.so.4.8:_Z24opt_view_draw_tetrahedraiid
libgmsh.so.4.8:_Z24opt_view_saturate_valuesiid
libgmsh.so.4.8:_Z24scriptSetBackgroundFieldiRKNSt7__cxx1112basic_stringIcSt11char_traitsIcESaIcEEE
libgmsh.so.4.8:_Z24scriptSetTransfiniteLineRSt6vectorIiSaIiEERKNSt7__cxx1112basic_stringIcSt11char_traitsIcESaIcEEESA_SA_SA_
libgmsh.so.4.8:_Z24setPeriodicityInEntitiesRKSt6vectorIP8CGNSZoneSaIS1_EE
libgmsh.so.4.8:_Z24splitEquivalentTrianglesP5GFaceR13bidimMeshData
libgmsh.so.4.8:_Z25AddToTemporaryBoundingBoxddd
libgmsh.so.4.8:_Z25ExtractDoubleQuotedStringB5cxx11PKci
libgmsh.so.4.8:_Z25GmshRestoreDefaultOptionsv
libgmsh.so.4.8:_Z25ListOfListOfDouble2MatrixP6List_T
libgmsh.so.4.8:_Z25ResetTemporaryBoundingBoxv
libgmsh.so.4.8:_Z25bowyerWatsonFrontalLayersP5GFacebPSt3mapIP7MVertexS3_St4lessIS3_ESaISt4pairIKS3_S3_EEEPS1_IS3_7SPoint2S5_SaIS6_IS7_SC_EEE
libgmsh.so.4.8:_Z25buildMetricTangentToCurveR8SVector3dd
libgmsh.so.4.8:_Z25checkHighOrderTetrahedronPKcP6GModelRSt6vectorIP8MElementSaIS5_EERd
libgmsh.so.4.8:_Z25computeBndDistAndGradientP5GEdgeRSt6vectorIdSaIdEERKS1_IP7MVertexSaIS6_EERK10nodalBasisRS1_I7SPoint3SaISE_EERS1_IbSaIbEES4_d
libgmsh.so.4.8:_Z25computeDiscreteCurvaturesP6GModel
libgmsh.so.4.8:_Z25computeInnerRadiusForQuadPdS_i
libgmsh.so.4.8:_Z25ensureSimplyConnectedEdgeP5GEdge
libgmsh.so.4.8:_Z25filterOverlappingElementsRSt6vectorIP5MLineSaIS1_EERS_IP9MTriangleSaIS6_EERS_IP11MQuadrangleSaISB_EERSt3mapIP8MElementS_ISH_SaISH_EESt4lessISH_ESaISt4pairIKSH_SJ_EEERSF_ISH_SH_SL_SaISM_ISN_SH_EEE
libgmsh.so.4.8:_Z25findInEdgeSearchStructureP7MVertexS0_RKSt8multimapIS0_St4pairIP5MLineP5GEdgeESt4lessIS0_ESaIS2_IKS0_S7_EEE
libgmsh.so.4.8:_Z25findInFaceSearchStructureP7MVertexS0_S0_RKSt3mapI5MFaceP5GFace13MFaceLessThanSaISt4pairIKS2_S4_EEE
libgmsh.so.4.8:_Z25findInFaceSearchStructureRK5MFaceRKSt3mapIS_P5GFace13MFaceLessThanSaISt4pairIS0_S4_EEE
libgmsh.so.4.8:_Z25findRootSourceFaceForFaceP5GFace
libgmsh.so.4.8:_Z25getGraph2dDataPointForTagj
libgmsh.so.4.8:_Z25gmshGenerateMonomialsLineib
libgmsh.so.4.8:_Z25gmshGenerateOrderedPoints13FuncSpaceDataR10fullMatrixIdEb
libgmsh.so.4.8:_Z25gmshGeneratePointsPyramidib
libgmsh.so.4.8:_Z25id_loop_from_closed_pairsRKSt6vectorISt5arrayIiLm2EESaIS1_EERS_IiSaIiEE
libgmsh.so.4.8:_Z25invert_singular_matrix3x3PA3_dS0_
libgmsh.so.4.8:_Z25max_edge_curvature_metricPK5GEdged
libgmsh.so.4.8:_Z25max_edge_curvature_metricPK7GVertex
libgmsh.so.4.8:_Z25opt_general_build_optionsiiRKNSt7__cxx1112basic_stringIcSt11char_traitsIcESaIcEEE
libgmsh.so.4.8:_Z25opt_general_detached_menuiid
libgmsh.so.4.8:_Z25opt_general_double_bufferiid
libgmsh.so.4.8:_Z25opt_general_eye_sep_ratioiid
libgmsh.so.4.8:_Z25opt_general_graphics_fontiiRKNSt7__cxx1112basic_stringIcSt11char_traitsIcESaIcEEE
libgmsh.so.4.8:_Z25opt_general_hot_position0iid
libgmsh.so.4.8:_Z25opt_general_hot_position1iid
libgmsh.so.4.8:_Z25opt_geometry_color_curvesiij
libgmsh.so.4.8:_Z25opt_geometry_color_pointsiij
libgmsh.so.4.8:_Z25opt_geometry_curve_labelsiid
libgmsh.so.4.8:_Z25opt_geometry_occ_auto_fixiid
libgmsh.so.4.8:_Z25opt_geometry_occ_paralleliid
libgmsh.so.4.8:_Z25opt_geometry_point_labelsiid
libgmsh.so.4.8:_Z25opt_geometry_surface_typeiid
libgmsh.so.4.8:_Z25opt_mesh_bdf_field_formatiid
libgmsh.so.4.8:_Z25opt_mesh_color_tetrahedraiij
libgmsh.so.4.8:_Z25opt_mesh_ho_fast_new_algoiid
libgmsh.so.4.8:_Z25opt_mesh_ho_save_periodiciid
libgmsh.so.4.8:_Z25opt_mesh_ho_threshold_maxiid
libgmsh.so.4.8:_Z25opt_mesh_ho_threshold_miniid
libgmsh.so.4.8:_Z25opt_mesh_med_single_modeliid
libgmsh.so.4.8:_Z25opt_mesh_min_circle_nodesiid
libgmsh.so.4.8:_Z25opt_mesh_msh_file_versioniid
libgmsh.so.4.8:_Z25opt_mesh_switch_elem_tagsiid
libgmsh.so.4.8:_Z25opt_print_gif_transparentiid
libgmsh.so.4.8:_Z25opt_print_parameter_firstiid
libgmsh.so.4.8:_Z25opt_print_parameter_stepsiid
libgmsh.so.4.8:_Z25opt_print_pgf_export_axisiid
libgmsh.so.4.8:_Z25opt_print_tex_as_equationiid
libgmsh.so.4.8:_Z25opt_print_tex_width_in_mmiid
libgmsh.so.4.8:_Z25opt_view_color_tetrahedraiij
libgmsh.so.4.8:_Z25opt_view_draw_quadranglesiid
libgmsh.so.4.8:_Z25opt_view_gen_raise_factoriid
libgmsh.so.4.8:_Z25signedDistancesPointsLineRSt6vectorIdSaIdEERS_I7SPoint3SaIS3_EERKS5_RKS3_SA_
libgmsh.so.4.8:_Z26BGM_MeshSizeWithoutScalingP7GEntityddddd
libgmsh.so.4.8:_Z26GetFileFormatFromExtensionRKNSt7__cxx1112basic_stringIcSt11char_traitsIcESaIcEEEPd
libgmsh.so.4.8:_Z26IntersectCurvesWithSurfaceP6List_TiS0_
libgmsh.so.4.8:_Z26IsSurfaceALateralForRegionP7GRegionP5GFace
libgmsh.so.4.8:_Z26ListOfShapes2VectorOfPairsP6List_TRSt6vectorISt4pairIiiESaIS3_EE
libgmsh.so.4.8:_Z26PartitionFaceMinEdgeLengthP5GFaceid
libgmsh.so.4.8:_Z26RelocateVerticesOfPyramidsP7GRegionid
libgmsh.so.4.8:_Z26RelocateVerticesOfPyramidsRSt6vectorIP7GRegionSaIS1_EEid
libgmsh.so.4.8:_Z26VectorOfPairs2ListOfShapesRKSt6vectorISt4pairIiiESaIS1_EEP6List_T
libgmsh.so.4.8:_Z26bowyerWatsonParallelogramsP5GFacePSt3mapIP7MVertexS3_St4lessIS3_ESaISt4pairIKS3_S3_EEEPS1_IS3_7SPoint2S5_SaIS6_IS7_SC_EEE
libgmsh.so.4.8:_Z26compare_hex_ptr_by_qualityP3HexS0_
libgmsh.so.4.8:_Z26computeBndDistAccurateAreaP5GEdgeRSt6vectorIdSaIdEERK10nodalBasisRKS1_I7SPoint3SaIS8_EEd
libgmsh.so.4.8:_Z26computeDeviationOfTangentsP5GEdgeRSt6vectorIdSaIdEERK10nodalBasisRKS1_I7SPoint3SaIS8_EE
libgmsh.so.4.8:_Z26computeEquivalentTrianglesP5GFacePSt3mapIP7MVertexS3_St4lessIS3_ESaISt4pairIKS3_S3_EEE
libgmsh.so.4.8:_Z26create_gmp_matrix_identitym
libgmsh.so.4.8:_Z26getMaxLcWhenCollapsingEdgeP5GFaceR8BDS_MeshP8BDS_EdgeP9BDS_Point
libgmsh.so.4.8:_Z26getRegionFromBoundingFacesP6GModelRSt3setIP5GFaceSt4lessIS3_ESaIS3_EE
libgmsh.so.4.8:_Z26gmshGenerateMonomialsPrismib
libgmsh.so.4.8:_Z26gmshGeneratePointsTriangleib
libgmsh.so.4.8:_Z26initInterfVertex2LocalDataRKSt6vectorIP7GEntitySaIS1_EES5_RSt3mapIP7MVertexS_I9LocalDataSaIS9_EESt4lessIS8_ESaISt4pairIKS8_SB_EEE
libgmsh.so.4.8:_Z26invertAffineTransformationRKSt6vectorIdSaIdEERS1_
libgmsh.so.4.8:_Z26opt_general_abort_on_erroriid
libgmsh.so.4.8:_Z26opt_general_alpha_blendingiid
libgmsh.so.4.8:_Z26opt_general_clip_position0iid
libgmsh.so.4.8:_Z26opt_general_clip_position1iid
libgmsh.so.4.8:_Z26opt_general_error_filenameiiRKNSt7__cxx1112basic_stringIcSt11char_traitsIcESaIcEEE
libgmsh.so.4.8:_Z26opt_general_graphics_size0iid
libgmsh.so.4.8:_Z26opt_general_graphics_size1iid
libgmsh.so.4.8:_Z26opt_general_menu_position0iid
libgmsh.so.4.8:_Z26opt_general_menu_position1iid
libgmsh.so.4.8:_Z26opt_general_shine_exponentiid
libgmsh.so.4.8:_Z26opt_geometry_color_normalsiij
libgmsh.so.4.8:_Z26opt_geometry_color_volumesiij
libgmsh.so.4.8:_Z26opt_geometry_num_sub_edgesiid
libgmsh.so.4.8:_Z26opt_geometry_occ_sew_facesiid
libgmsh.so.4.8:_Z26opt_geometry_volume_labelsiid
libgmsh.so.4.8:_Z26opt_mesh_cgns_import_orderiid
libgmsh.so.4.8:_Z26opt_mesh_color_quadranglesiij
libgmsh.so.4.8:_Z26opt_mesh_compound_classifyiid
libgmsh.so.4.8:_Z26opt_mesh_first_element_tagiid
libgmsh.so.4.8:_Z26opt_mesh_ho_curve_outer_BLiid
libgmsh.so.4.8:_Z26opt_mesh_ho_prim_surf_meshiid
libgmsh.so.4.8:_Z26opt_mesh_lc_from_curvatureiid
libgmsh.so.4.8:_Z26opt_mesh_mesh_only_visibleiid
libgmsh.so.4.8:_Z26opt_mesh_recombine3d_leveliid
libgmsh.so.4.8:_Z26opt_mesh_unv_strict_formatiid
libgmsh.so.4.8:_Z26opt_post_horizontal_scalesiid
libgmsh.so.4.8:_Z26opt_print_delete_tmp_filesiid
libgmsh.so.4.8:_Z26opt_print_x3d_transparencyiid
libgmsh.so.4.8:_Z26opt_solver_auto_merge_fileiid
libgmsh.so.4.8:_Z26opt_solver_auto_show_viewsiid
libgmsh.so.4.8:_Z26opt_view_color_quadranglesiij
libgmsh.so.4.8:_Z26opt_view_colormap_rotationiid
libgmsh.so.4.8:_Z26opt_view_fake_transparencyiid
libgmsh.so.4.8:_Z26partition_select_groups_cbP9Fl_WidgetPv
libgmsh.so.4.8:_Z26scriptSetTransfiniteVolumeRSt6vectorIiSaIiEERKNSt7__cxx1112basic_stringIcSt11char_traitsIcESaIcEEE
libgmsh.so.4.8:_Z26setGeomAndPhysicalEntitiesP6GModeliRSt6vectorINSt7__cxx1112basic_stringIcSt11char_traitsIcESaIcEEESaIS7_EESA_RSt8multimapIS7_iSt4lessIS7_ESaISt4pairIKS7_iEEE
libgmsh.so.4.8:_Z26vectorvectorpair2intptrptrRKSt6vectorIS_ISt4pairIiiESaIS1_EESaIS3_EEPPPiPPmSB_
libgmsh.so.4.8:_Z27GmshMergePostProcessingFileRKNSt7__cxx1112basic_stringIcSt11char_traitsIcESaIcEEE
libgmsh.so.4.8:_Z27GuessFileFormatFromFileNameRKNSt7__cxx1112basic_stringIcSt11char_traitsIcESaIcEEEPd
libgmsh.so.4.8:_Z27HighOrderMeshElasticAnalogyP6GModelb
libgmsh.so.4.8:_Z27buildMetricTangentToSurfaceR8SVector3S0_ddd
libgmsh.so.4.8:_Z27computeAffineTransformationIdEbPKT_S2_S2_RSt6vectorIdSaIdEE
libgmsh.so.4.8:_Z27computeAffineTransformationIfEbPKT_S2_S2_RSt6vectorIdSaIdEE
libgmsh.so.4.8:_Z27computeAffineTransformationR7SPoint3S0_dS0_RSt6vectorIdSaIdEE
libgmsh.so.4.8:_Z27createBoundaryLayerOneLayerP7GRegionRSt6vectorIP5GFaceSaIS3_EE
libgmsh.so.4.8:_Z27discreteFace_rtree_callbackPSt4pairIP9MTriangleS1_EPv
libgmsh.so.4.8:_Z27discreteFrechetDistanceEdgeP5MLineP5GEdgedii
libgmsh.so.4.8:_Z27general_options_axes_fit_cbP9Fl_WidgetPv
libgmsh.so.4.8:_Z27getAllBoundaryLayerVerticesP5GFaceRSt3setIP7MVertexSt4lessIS3_ESaIS3_EE
libgmsh.so.4.8:_Z27getTransfiniteBoundaryDiagsP7GRegionPSt3setISt4pairIP7MVertexS4_ESt4lessIS5_ESaIS5_EE
libgmsh.so.4.8:_Z27meshGRegionBoundaryRecoveryP7GRegionP17splitQuadRecovery
libgmsh.so.4.8:_Z27numberOrStringOptionChooserRKNSt7__cxx1112basic_stringIcSt11char_traitsIcESaIcEEEiS6_bS6_bddd
libgmsh.so.4.8:_Z27opt_general_axes_value_xmaxiid
libgmsh.so.4.8:_Z27opt_general_axes_value_xminiid
libgmsh.so.4.8:_Z27opt_general_axes_value_ymaxiid
libgmsh.so.4.8:_Z27opt_general_axes_value_yminiid
libgmsh.so.4.8:_Z27opt_general_axes_value_zmaxiid
libgmsh.so.4.8:_Z27opt_general_axes_value_zminiid
libgmsh.so.4.8:_Z27opt_general_camera_apertureiid
libgmsh.so.4.8:_Z27opt_general_extra_position0iid
libgmsh.so.4.8:_Z27opt_general_extra_position1iid
libgmsh.so.4.8:_Z27opt_general_field_position0iid
libgmsh.so.4.8:_Z27opt_general_field_position1iid
libgmsh.so.4.8:_Z27opt_general_initial_contextiid
libgmsh.so.4.8:_Z27opt_general_input_scrollingiid
libgmsh.so.4.8:_Z27opt_general_manip_position0iid
libgmsh.so.4.8:_Z27opt_general_manip_position1iid
libgmsh.so.4.8:_Z27opt_general_mouse_selectioniid
libgmsh.so.4.8:_Z27opt_general_small_axes_sizeiid
libgmsh.so.4.8:_Z27opt_general_system_menu_bariid
libgmsh.so.4.8:_Z27opt_geometry_auto_coherenceiid
libgmsh.so.4.8:_Z27opt_geometry_color_surfacesiij
libgmsh.so.4.8:_Z27opt_geometry_color_tangentsiij
libgmsh.so.4.8:_Z27opt_geometry_light_two_sideiid
libgmsh.so.4.8:_Z27opt_geometry_point_sel_sizeiid
libgmsh.so.4.8:_Z27opt_geometry_scaling_factoriid
libgmsh.so.4.8:_Z27opt_geometry_surface_labelsiid
libgmsh.so.4.8:_Z27opt_mesh_compound_lc_factoriid
libgmsh.so.4.8:_Z27opt_mesh_ignore_periodicityiid
libgmsh.so.4.8:_Z27opt_mesh_max_num_threads_1diid
libgmsh.so.4.8:_Z27opt_mesh_max_num_threads_2diid
libgmsh.so.4.8:_Z27opt_mesh_max_num_threads_3diid
libgmsh.so.4.8:_Z27opt_mesh_optimize_thresholdiid
libgmsh.so.4.8:_Z27opt_mesh_smooth_cross_fieldiid
libgmsh.so.4.8:_Z27opt_post_force_element_dataiid
libgmsh.so.4.8:_Z27opt_print_composite_windowsiid
libgmsh.so.4.8:_Z27opt_print_parameter_commandiiRKNSt7__cxx1112basic_stringIcSt11char_traitsIcESaIcEEE
libgmsh.so.4.8:_Z27opt_print_x3d_compatibilityiid
libgmsh.so.4.8:_Z27opt_view_axes_auto_positioniid
libgmsh.so.4.8:_Z27opt_view_color_background2diij
libgmsh.so.4.8:_Z27opt_view_colormap_curvatureiid
libgmsh.so.4.8:_Z27options_restore_defaults_cbP9Fl_WidgetPv
libgmsh.so.4.8:_Z27pointInsideParametricDomainRSt6vectorI7SPoint2SaIS0_EERS0_S4_Ri
libgmsh.so.4.8:_Z27scriptSetTransfiniteSurfaceRSt6vectorIiSaIiEERKNSt7__cxx1112basic_stringIcSt11char_traitsIcESaIcEEESA_
libgmsh.so.4.8:_Z27setUnitAffineTransformationRSt6vectorIdSaIdEE
libgmsh.so.4.8:_Z27signedDistancePointTriangleRK7SPoint3S1_S1_S1_RdRS_
libgmsh.so.4.8:_Z27treat_Struct_FullName_FloatPcS_iidi
libgmsh.so.4.8:_Z28create_gmp_Smith_normal_formP10gmp_matrix13inverted_flagS1_
libgmsh.so.4.8:_Z28findEntitiesInPhysicalGroupsP6GModelRKSt6vectorIiSaIiEERS1_IP7GEntitySaIS7_EE
libgmsh.so.4.8:_Z28gmshGenerateMonomialsPyramidib
libgmsh.so.4.8:_Z28gmshGenerateOrderedMonomials13FuncSpaceDataR10fullMatrixIdE
libgmsh.so.4.8:_Z28gmshGeneratePointsHexahedronib
libgmsh.so.4.8:_Z28gmshGeneratePointsQuadrangleib
libgmsh.so.4.8:_Z28makePartitionSimplyConnectedRSt6vectorIP9MTriangleSaIS1_EERS_IS3_SaIS3_EE
libgmsh.so.4.8:_Z28opt_general_axes_force_valueiid
libgmsh.so.4.8:_Z28opt_general_clip_only_volumeiid
libgmsh.so.4.8:_Z28opt_general_color_backgroundiij
libgmsh.so.4.8:_Z28opt_general_color_foregroundiij
libgmsh.so.4.8:_Z28opt_general_color_small_axesiij
libgmsh.so.4.8:_Z28opt_general_default_filenameiiRKNSt7__cxx1112basic_stringIcSt11char_traitsIcESaIcEEE
libgmsh.so.4.8:_Z28opt_general_gui_color_schemeiid
libgmsh.so.4.8:_Z28opt_general_gui_refresh_rateiid
libgmsh.so.4.8:_Z28opt_general_message_fontsizeiid
libgmsh.so.4.8:_Z28opt_general_option_position0iid
libgmsh.so.4.8:_Z28opt_general_option_position1iid
libgmsh.so.4.8:_Z28opt_general_options_filenameiiRKNSt7__cxx1112basic_stringIcSt11char_traitsIcESaIcEEE
libgmsh.so.4.8:_Z28opt_general_plugin_position0iid
libgmsh.so.4.8:_Z28opt_general_plugin_position1iid
libgmsh.so.4.8:_Z28opt_general_rotation_center0iid
libgmsh.so.4.8:_Z28opt_general_rotation_center1iid
libgmsh.so.4.8:_Z28opt_general_rotation_center2iid
libgmsh.so.4.8:_Z28opt_general_session_filenameiiRKNSt7__cxx1112basic_stringIcSt11char_traitsIcESaIcEEE
libgmsh.so.4.8:_Z28opt_general_show_module_menuiid
libgmsh.so.4.8:_Z28opt_geometry_color_selectioniij
libgmsh.so.4.8:_Z28opt_geometry_curve_sel_widthiid
libgmsh.so.4.8:_Z28opt_geometry_exact_extrusioniid
libgmsh.so.4.8:_Z28opt_geometry_occ_disable_stliid
libgmsh.so.4.8:_Z28opt_geometry_occ_make_solidsiid
libgmsh.so.4.8:_Z28opt_geometry_occ_target_unitiiRKNSt7__cxx1112basic_stringIcSt11char_traitsIcESaIcEEE
libgmsh.so.4.8:_Z28opt_geometry_occ_union_unifyiid
libgmsh.so.4.8:_Z28opt_mesh_second_order_lineariid
libgmsh.so.4.8:_Z28opt_post_combine_remove_origiid
libgmsh.so.4.8:_Z28opt_post_double_clicked_viewiid
libgmsh.so.4.8:_Z28opt_print_geo_only_physicalsiid
libgmsh.so.4.8:_Z28opt_print_tex_force_fontsizeiid
libgmsh.so.4.8:_Z28opt_view_abscissa_range_typeiid
libgmsh.so.4.8:_Z28opt_view_custom_abscissa_maxiid
libgmsh.so.4.8:_Z28opt_view_custom_abscissa_miniid
libgmsh.so.4.8:_Z28opt_view_displacement_factoriid
libgmsh.so.4.8:_Z28opt_view_max_recursion_leveliid
libgmsh.so.4.8:_Z28scriptAddRemovePhysicalGroupRKNSt7__cxx1112basic_stringIcSt11char_traitsIcESaIcEEES6_RKSt6vectorIiSaIiEES6_ibS6_
libgmsh.so.4.8:_Z28treat_Struct_FullName_StringPcS_iiS_i
libgmsh.so.4.8:_Z29getPartitionInterfaceEntitiesRKSt6vectorIP7GEntitySaIS1_EEbRS3_
libgmsh.so.4.8:_Z29gmshGenerateMonomialsTriangleib
libgmsh.so.4.8:_Z29gmshGenerateOrderedPointsLineiR10fullVectorIdE
libgmsh.so.4.8:_Z29gmshGeneratePointsTetrahedronib
libgmsh.so.4.8:_Z29meshGEdgeTargetNumberOfPointsP5GEdge
libgmsh.so.4.8:_Z29opt_general_arrow_head_radiusiid
libgmsh.so.4.8:_Z29opt_general_arrow_stem_lengthiid
libgmsh.so.4.8:_Z29opt_general_arrow_stem_radiusiid
libgmsh.so.4.8:_Z29opt_general_confirm_overwriteiid
libgmsh.so.4.8:_Z29opt_general_context_position0iid
libgmsh.so.4.8:_Z29opt_general_context_position1iid
libgmsh.so.4.8:_Z29opt_general_draw_bounding_boxiid
libgmsh.so.4.8:_Z29opt_general_focallength_ratioiid
libgmsh.so.4.8:_Z29opt_general_graphics_fontsizeiid
libgmsh.so.4.8:_Z29opt_general_mouse_invert_zoomiid
libgmsh.so.4.8:_Z29opt_general_non_modal_windowsiid
libgmsh.so.4.8:_Z29opt_geometry_color_highlight0iij
libgmsh.so.4.8:_Z29opt_geometry_color_highlight1iij
libgmsh.so.4.8:_Z29opt_geometry_color_highlight2iij
libgmsh.so.4.8:_Z29opt_geometry_color_projectioniij
libgmsh.so.4.8:_Z29opt_mesh_angle_smooth_normalsiid
libgmsh.so.4.8:_Z29opt_mesh_cgns_export_cpex0045iid
libgmsh.so.4.8:_Z29opt_mesh_create_topology_msh2iid
libgmsh.so.4.8:_Z29opt_mesh_flexible_transfiniteiid
libgmsh.so.4.8:_Z29opt_mesh_max_iter_delaunay_3diid
libgmsh.so.4.8:_Z29opt_mesh_partition_hex_weightiid
libgmsh.so.4.8:_Z29opt_mesh_partition_pri_weightiid
libgmsh.so.4.8:_Z29opt_mesh_partition_pyr_weightiid
libgmsh.so.4.8:_Z29opt_mesh_partition_qua_weightiid
libgmsh.so.4.8:_Z29opt_mesh_partition_tet_weightiid
libgmsh.so.4.8:_Z29opt_mesh_partition_tri_weightiid
libgmsh.so.4.8:_Z29opt_mesh_save_groups_of_nodesiid
libgmsh.so.4.8:_Z29opt_post_combine_copy_optionsiid
libgmsh.so.4.8:_Z29opt_solver_auto_load_databaseiid
libgmsh.so.4.8:_Z29opt_solver_auto_save_databaseiid
libgmsh.so.4.8:_Z29opt_solver_octave_interpreteriiRKNSt7__cxx1112basic_stringIcSt11char_traitsIcESaIcEEE
libgmsh.so.4.8:_Z29opt_solver_python_interpreteriiRKNSt7__cxx1112basic_stringIcSt11char_traitsIcESaIcEEE
libgmsh.so.4.8:_Z29opt_view_angle_smooth_normalsiid
libgmsh.so.4.8:_Z29opt_view_colormap_alpha_poweriid
libgmsh.so.4.8:_Z29opt_view_force_num_componentsiid
libgmsh.so.4.8:_Z29removeParentCellsWithChildrenP12cartesianBoxIdE
libgmsh.so.4.8:_Z29signedDistancesPointsTriangleRSt6vectorIdSaIdEERS_I7SPoint3SaIS3_EERKS5_RKS3_SA_SA_
libgmsh.so.4.8:_Z29transformPointsIntoOrthoBasisRKSt6vectorI7SPoint3SaIS0_EERS2_RKS0_RK10mean_plane
libgmsh.so.4.8:_Z2imRK3Qtn
libgmsh.so.4.8:_Z2reRK3Qtn
libgmsh.so.4.8:_Z30ConvertOldPartitioningToNewOneP6GModel
libgmsh.so.4.8:_Z30create_gmp_Hermite_normal_formP10gmp_matrix13inverted_flagS1_
libgmsh.so.4.8:_Z30distanceFromElementsToGeometryP6GModeliRSt3mapIP8MElementdSt4lessIS3_ESaISt4pairIKS3_dEEE
libgmsh.so.4.8:_Z30getElementaryTagsInBoundingBoxiddddddP6List_T
libgmsh.so.4.8:_Z30getIndexForLowestVertexPointerSt6vectorIP7MVertexSaIS1_EE
libgmsh.so.4.8:_Z30get_local_sizes_and_directionsPK7MVertexRK7SPoint2iP5GFaceRA2_dS8_RdS9_S9_R8SVector3SB_SB_P8_IO_FILE
libgmsh.so.4.8:_Z30opt_general_axes_auto_positioniid
libgmsh.so.4.8:_Z30opt_general_graphics_position0iid
libgmsh.so.4.8:_Z30opt_general_graphics_position1iid
libgmsh.so.4.8:_Z30opt_general_mouse_hover_meshesiid
libgmsh.so.4.8:_Z30opt_general_rotation_center_cgiid
libgmsh.so.4.8:_Z30opt_general_watch_file_patterniiRKNSt7__cxx1112basic_stringIcSt11char_traitsIcESaIcEEE
libgmsh.so.4.8:_Z30opt_geometry_highlight_orphansiid
libgmsh.so.4.8:_Z30opt_geometry_occ_import_labelsiid
libgmsh.so.4.8:_Z30opt_geometry_old_ruled_surfaceiid
libgmsh.so.4.8:_Z30opt_geometry_tolerance_booleaniid
libgmsh.so.4.8:_Z30opt_mesh_allow_swap_edge_angleiid
libgmsh.so.4.8:_Z30opt_mesh_cgns_import_ignore_bciid
libgmsh.so.4.8:_Z30opt_mesh_lc_from_curvature_isoiid
libgmsh.so.4.8:_Z30opt_mesh_partition_line_weightiid
libgmsh.so.4.8:_Z30opt_mesh_partition_trih_weightiid
libgmsh.so.4.8:_Z30opt_mesh_reparam_max_trianglesiid
libgmsh.so.4.8:_Z30opt_mesh_save_element_tag_typeiid
libgmsh.so.4.8:_Z30opt_mesh_stl_linear_deflectioniid
libgmsh.so.4.8:_Z30opt_mesh_tolerance_edge_lengthiid
libgmsh.so.4.8:_Z30opt_solver_auto_show_last_stepiid
libgmsh.so.4.8:_Z30opt_view_nb_non_empty_timestepiid
libgmsh.so.4.8:_Z31QuadToTriInsertFaceEdgeVerticesP5GFaceR12MVertexRTree
libgmsh.so.4.8:_Z31computeNeighboringTetsOfACavityRKSt6vectorIP5MTet4SaIS1_EERS3_
libgmsh.so.4.8:_Z31geometry_remove_last_command_cbP9Fl_WidgetPv
libgmsh.so.4.8:_Z31gmshGenerateMonomialsHexahedronib
libgmsh.so.4.8:_Z31gmshGenerateMonomialsQuadrangleib
libgmsh.so.4.8:_Z31intersection_conserve_mostanisoRK8SMetric3S1_
libgmsh.so.4.8:_Z31opt_general_background_gradientiid
libgmsh.so.4.8:_Z31opt_general_background_image_3diid
libgmsh.so.4.8:_Z31opt_general_clip_whole_elementsiid
libgmsh.so.4.8:_Z31opt_general_color_ambient_lightiij
libgmsh.so.4.8:_Z31opt_general_color_diffuse_lightiij
libgmsh.so.4.8:_Z31opt_general_executable_filenameiiRKNSt7__cxx1112basic_stringIcSt11char_traitsIcESaIcEEE
libgmsh.so.4.8:_Z31opt_general_graphics_font_titleiiRKNSt7__cxx1112basic_stringIcSt11char_traitsIcESaIcEEE
libgmsh.so.4.8:_Z31opt_general_native_file_chooseriid
libgmsh.so.4.8:_Z31opt_general_progress_meter_stepiid
libgmsh.so.4.8:_Z31opt_general_scripting_languagesiiRKNSt7__cxx1112basic_stringIcSt11char_traitsIcESaIcEEE
libgmsh.so.4.8:_Z31opt_geometry_occ_bounds_use_stliid
libgmsh.so.4.8:_Z31opt_geometry_oriented_physicalsiid
libgmsh.so.4.8:_Z31opt_mesh_algo_switch_on_failureiid
libgmsh.so.4.8:_Z31opt_mesh_cgns_export_structurediid
libgmsh.so.4.8:_Z31opt_mesh_ignore_parametrizationiid
libgmsh.so.4.8:_Z31opt_mesh_med_file_minor_versioniid
libgmsh.so.4.8:_Z31opt_mesh_partition_convert_msh2iid
libgmsh.so.4.8:_Z31opt_mesh_recombine3d_conformityiid
libgmsh.so.4.8:_Z31opt_mesh_stl_angular_deflectioniid
libgmsh.so.4.8:_Z31opt_print_eps_line_width_factoriid
libgmsh.so.4.8:_Z31opt_print_eps_occlusion_cullingiid
libgmsh.so.4.8:_Z31opt_print_eps_point_size_factoriid
libgmsh.so.4.8:_Z31opt_view_double_clicked_commandiiRKNSt7__cxx1112basic_stringIcSt11char_traitsIcESaIcEEE
libgmsh.so.4.8:_Z31partition_opt_num_partitions_cbP9Fl_WidgetPv
libgmsh.so.4.8:_Z31smoothing_objective_function_3DdddP7MVertexRSt6vectorIP5MTet4SaIS3_EE
libgmsh.so.4.8:_Z32GFaceDelaunayRefinementOldMesheri
libgmsh.so.4.8:_Z32MeshSetTransfiniteFacesAutomaticRSt3setIP5GFaceSt4lessIS1_ESaIS1_EEdb
libgmsh.so.4.8:_Z32gmshGenerateMonomialsTetrahedronib
libgmsh.so.4.8:_Z32gmshGeneratePointsPyramidGeneralbiib
libgmsh.so.4.8:_Z32meshTransfElemWithInternalVertexP7GRegionSt6vectorIP7MVertexSaIS3_EEPSt3setISt4pairIS3_S3_ESt4lessIS8_ESaIS8_EE
libgmsh.so.4.8:_Z32opt_general_color_specular_lightiij
libgmsh.so.4.8:_Z32opt_general_graphics_font_engineiiRKNSt7__cxx1112basic_stringIcSt11char_traitsIcESaIcEEE
libgmsh.so.4.8:_Z32opt_general_polygon_offset_unitsiid
libgmsh.so.4.8:_Z32opt_general_quadric_subdivisionsiid
libgmsh.so.4.8:_Z32opt_general_small_axes_position0iid
libgmsh.so.4.8:_Z32opt_general_small_axes_position1iid
libgmsh.so.4.8:_Z32opt_general_statistics_position0iid
libgmsh.so.4.8:_Z32opt_general_statistics_position1iid
libgmsh.so.4.8:_Z32opt_general_visibility_position0iid
libgmsh.so.4.8:_Z32opt_general_visibility_position1iid
libgmsh.so.4.8:_Z32opt_geometry_copy_meshing_methodiid
libgmsh.so.4.8:_Z32opt_geometry_match_geom_and_meshiid
libgmsh.so.4.8:_Z32opt_geometry_occ_fix_degeneratediid
libgmsh.so.4.8:_Z32opt_geometry_occ_fix_small_edgesiid
libgmsh.so.4.8:_Z32opt_geometry_occ_fix_small_facesiid
libgmsh.so.4.8:_Z32opt_mesh_cgns_construct_topologyiid
libgmsh.so.4.8:_Z32opt_mesh_lc_extend_from_boundaryiid
libgmsh.so.4.8:_Z32opt_mesh_preserve_numbering_msh2iid
libgmsh.so.4.8:_Z32opt_mesh_read_groups_of_elementsiid
libgmsh.so.4.8:_Z32opt_mesh_save_groups_of_elementsiid
libgmsh.so.4.8:_Z32opt_mesh_second_order_incompleteiid
libgmsh.so.4.8:_Z32signedDistancesPointsEllipseLineRSt6vectorIdSaIdEES2_RS_IiSaIiEERS_I7SPoint3SaIS6_EERKS8_RKS6_SD_ddddi
libgmsh.so.4.8:_Z33QuadToTriInsertSourceEdgeVerticesP7GRegionR12MVertexRTree
libgmsh.so.4.8:_Z33buildMeshGenerationDataStructuresP5GFaceRSt3setIP5MTri314compareTri3PtrSaIS3_EER13bidimMeshData
libgmsh.so.4.8:_Z33discreteHausdorffDistanceFastEdgeP5MLineP5GEdgedii
libgmsh.so.4.8:_Z33export_the_clique_graphviz_formatIP3HexEvR27cliques_compatibility_graphIT_EiRKNSt7__cxx1112basic_stringIcSt11char_traitsIcESaIcEEE
libgmsh.so.4.8:_Z33getAffineTransformationParametersIdEbRKSt6vectorIdSaIdEEPT_S6_S6_
libgmsh.so.4.8:_Z33getAffineTransformationParametersIfEbRKSt6vectorIdSaIdEEPT_S6_S6_
libgmsh.so.4.8:_Z33metric_based_on_surface_curvaturePK5GFaceddbdd
libgmsh.so.4.8:_Z33opt_general_background_image_pageiid
libgmsh.so.4.8:_Z33opt_general_display_border_factoriid
libgmsh.so.4.8:_Z33opt_general_polygon_offset_alwaysiid
libgmsh.so.4.8:_Z33opt_general_polygon_offset_factoriid
libgmsh.so.4.8:_Z33opt_geometry_match_mesh_toleranceiid
libgmsh.so.4.8:_Z33opt_mesh_lc_integration_precisioniid
libgmsh.so.4.8:_Z33opt_mesh_partition_metis_min_conniid
libgmsh.so.4.8:_Z33opt_mesh_partition_old_style_msh2iid
libgmsh.so.4.8:_Z33opt_view_adapt_visualization_gridiid
libgmsh.so.4.8:_Z33packingOfParallelogramsSmoothnessP5GFaceRSt6vectorIP7MVertexSaIS3_EERS1_I8SMetric3SaIS7_EE
libgmsh.so.4.8:_Z33signedDistancesPointsEllipsePointRSt6vectorIdSaIdEES2_RS_IiSaIiEERS_I7SPoint3SaIS6_EERKS8_RKS6_SD_d
libgmsh.so.4.8:_Z34discreteHausdorffDistanceBruteEdgeP5MLineP5GEdgedii
libgmsh.so.4.8:_Z34getElementaryTagsForPhysicalGroupsiP6List_TS0_
libgmsh.so.4.8:_Z34intersection_conserve_mostaniso_2dRK8SMetric3S1_
libgmsh.so.4.8:_Z34opt_general_background_image_size0iid
libgmsh.so.4.8:_Z34opt_general_background_image_size1iid
libgmsh.so.4.8:_Z34opt_general_file_chooser_position0iid
libgmsh.so.4.8:_Z34opt_general_file_chooser_position1iid
libgmsh.so.4.8:_Z34opt_geometry_extrude_spline_pointsiid
libgmsh.so.4.8:_Z34opt_mesh_cross_field_closest_pointiid
libgmsh.so.4.8:_Z34opt_mesh_lc_from_parametric_pointsiid
libgmsh.so.4.8:_Z34opt_mesh_partition_create_topologyiid
libgmsh.so.4.8:_Z34opt_mesh_partition_metis_algorithmiid
libgmsh.so.4.8:_Z34opt_mesh_partition_metis_objectiveiid
libgmsh.so.4.8:_Z34opt_mesh_stl_one_solid_per_surfaceiid
libgmsh.so.4.8:_Z34opt_print_x3d_remove_inner_bordersiid
libgmsh.so.4.8:_Z34packingOfParallelogramsConstrainedP5GFaceRKSt3setIP7MVertexSt4lessIS3_ESaIS3_EERSt6vectorIS3_S6_ERSA_I8SMetric3SaISD_EE
libgmsh.so.4.8:_Z35gmshGenerateMonomialsPyramidGeneralbiib
libgmsh.so.4.8:_Z35opt_general_graphics_fontsize_titleiid
libgmsh.so.4.8:_Z35opt_general_show_options_on_startupiid
libgmsh.so.4.8:_Z35opt_geometry_extrude_return_lateraliid
libgmsh.so.4.8:_Z35opt_geometry_reparam_on_face_robustiid
libgmsh.so.4.8:_Z35opt_mesh_med_import_groups_of_nodesiid
libgmsh.so.4.8:_Z35opt_mesh_partition_create_physicalsiid
libgmsh.so.4.8:_Z35opt_mesh_partition_split_mesh_filesiid
libgmsh.so.4.8:_Z35opt_mesh_tolerance_initial_delaunayiid
libgmsh.so.4.8:_Z36gmshGenerateMonomialsHexaSerendipityi
libgmsh.so.4.8:_Z36gmshGenerateMonomialsQuadSerendipityi
libgmsh.so.4.8:_Z36opt_general_high_resolution_graphicsiid
libgmsh.so.4.8:_Z36opt_general_show_messages_on_startupiid
libgmsh.so.4.8:_Z36opt_geometry_match_mesh_scale_factoriid
libgmsh.so.4.8:_Z36opt_geometry_occ_thrusections_degreeiid
libgmsh.so.4.8:_Z36opt_mesh_boundary_layer_fan_elementsiid
libgmsh.so.4.8:_Z36opt_mesh_cgns_import_ignore_solutioniid
libgmsh.so.4.8:_Z36opt_mesh_newton_convergence_test_xyziid
libgmsh.so.4.8:_Z36opt_mesh_recombine_optimize_topologyiid
libgmsh.so.4.8:_Z36opt_post_save_interpolation_matricesiid
libgmsh.so.4.8:_Z36opt_solver_auto_archive_output_filesiid
libgmsh.so.4.8:_Z36opt_solver_show_invisible_parametersiid
libgmsh.so.4.8:_Z36splitElementsInBoundaryLayerIfNeededP5GFace
libgmsh.so.4.8:_Z37bowyerWatsonParallelogramsConstrainedP5GFaceRKSt3setIP7MVertexSt4lessIS3_ESaIS3_EEPSt3mapIS3_S3_S5_SaISt4pairIKS3_S3_EEEPSA_IS3_7SPoint2S5_SaISB_ISC_SH_EEE
libgmsh.so.4.8:_Z37deriv_smoothing_objective_function_3DPdS_RdPv
libgmsh.so.4.8:_Z37gmshGenerateInnerVertexPlacementPrismi
libgmsh.so.4.8:_Z37gmshGenerateMonomialsPrismSerendipityi
libgmsh.so.4.8:_Z37modifyInitialMeshToRemoveDegeneraciesP5GFaceR8BDS_MeshPSt3mapIP9BDS_PointP7MVertex13PointLessThanSaISt4pairIKS5_S7_EEE
libgmsh.so.4.8:_Z37opt_general_background_image_filenameiiRKNSt7__cxx1112basic_stringIcSt11char_traitsIcESaIcEEE
libgmsh.so.4.8:_Z37opt_general_color_background_gradientiij
libgmsh.so.4.8:_Z37opt_mesh_partition_create_ghost_cellsiid
libgmsh.so.4.8:_Z37opt_mesh_partition_save_topology_fileiid
libgmsh.so.4.8:_Z37opt_post_double_clicked_graph_point_xiid
libgmsh.so.4.8:_Z37opt_post_double_clicked_graph_point_yiid
libgmsh.so.4.8:_Z38opt_general_background_image_position0iid
libgmsh.so.4.8:_Z38opt_general_background_image_position1iid
libgmsh.so.4.8:_Z38opt_general_trackball_hyperbolic_sheetiid
libgmsh.so.4.8:_Z38opt_geometry_double_clicked_entity_tagiid
libgmsh.so.4.8:_Z38opt_mesh_angle_tolerance_facet_overlapiid
libgmsh.so.4.8:_Z38opt_mesh_partition_metis_edge_matchingiid
libgmsh.so.4.8:_Z39gmshGenerateInnerVertexPlacementPyramidi
libgmsh.so.4.8:_Z39gmshGenerateMonomialsPyramidSerendipityi
libgmsh.so.4.8:_Z39meshQuadToTriRegionAfterGlobalSubdivideP7GRegionPSt3setISt4pairIP7MVertexS4_ESt4lessIS5_ESaIS5_EER12MVertexRTree
libgmsh.so.4.8:_Z39opt_mesh_stl_remove_duplicate_trianglesiid
libgmsh.so.4.8:_Z39treat_Struct_FullName_dot_tSTRING_FloatPcS_S_idi
libgmsh.so.4.8:_Z3Cpuv
libgmsh.so.4.8:_Z3mindd
libgmsh.so.4.8:_Z3squd
libgmsh.so.4.8:_Z40gmshGenerateInnerVertexPlacementTrianglei
libgmsh.so.4.8:_Z40treat_Struct_FullName_dot_tSTRING_StringPcS_S_iS_i
libgmsh.so.4.8:_Z41general_options_rotation_center_select_cbP9Fl_WidgetPv
libgmsh.so.4.8:_Z41opt_geometry_double_clicked_curve_commandiiRKNSt7__cxx1112basic_stringIcSt11char_traitsIcESaIcEEE
libgmsh.so.4.8:_Z41opt_geometry_double_clicked_point_commandiiRKNSt7__cxx1112basic_stringIcSt11char_traitsIcESaIcEEE
libgmsh.so.4.8:_Z42gmshGenerateInnerVertexPlacementHexahedroni
libgmsh.so.4.8:_Z42gmshGenerateInnerVertexPlacementQuadranglei
libgmsh.so.4.8:_Z42opt_geometry_double_clicked_volume_commandiiRKNSt7__cxx1112basic_stringIcSt11char_traitsIcESaIcEEE
libgmsh.so.4.8:_Z42opt_geometry_occ_use_generic_closest_pointiid
libgmsh.so.4.8:_Z43gmshGenerateInnerVertexPlacementPrismLinearii
libgmsh.so.4.8:_Z43gmshGenerateInnerVertexPlacementTetrahedroni
libgmsh.so.4.8:_Z43opt_geometry_double_clicked_surface_commandiiRKNSt7__cxx1112basic_stringIcSt11char_traitsIcESaIcEEE
libgmsh.so.4.8:_Z43opt_geometry_occ_boolean_preserve_numberingiid
libgmsh.so.4.8:_Z43opt_mesh_partition_metis_max_load_imbalanceiid
libgmsh.so.4.8:_Z43opt_post_double_clicked_graph_point_commandiiRKNSt7__cxx1112basic_stringIcSt11char_traitsIcESaIcEEE
libgmsh.so.4.8:_Z45opt_mesh_partition_metis_refinement_algorithmiid
libgmsh.so.4.8:_Z45treat_Struct_FullName_dot_tSTRING_ListOfFloatPcS_S_
libgmsh.so.4.8:_Z46gmshGenerateInnerVertexPlacementTriangleLinearii
libgmsh.so.4.8:_Z46opt_general_clip_only_draw_intersecting_volumeiid
libgmsh.so.4.8:_Z46treat_Struct_FullName_dot_tSTRING_Float_getDimPcS_S_
libgmsh.so.4.8:_Z46treat_Struct_FullName_dot_tSTRING_ListOfStringPcS_S_
libgmsh.so.4.8:_Z48gmshGenerateInnerVertexPlacementHexahedronLinearii
libgmsh.so.4.8:_Z48gmshGenerateInnerVertexPlacementQuadrangleLineari
libgmsh.so.4.8:_Z49gmshGenerateInnerVertexPlacementTetrahedronLinearii
libgmsh.so.4.8:_Z4BamgP5Mesh2PdS1_S1_S1_b
libgmsh.so.4.8:_Z4FreePv
libgmsh.so.4.8:_Z4_h2dc
libgmsh.so.4.8:_Z4conjRK3Qtn
libgmsh.so.4.8:_Z4ftoaB5cxx11d
libgmsh.so.4.8:_Z4itoaB5cxx11i
libgmsh.so.4.8:_Z4multRK10QuaternionS1_
libgmsh.so.4.8:_Z4skipPKcS0_
libgmsh.so.4.8:_Z4swapRdS_
libgmsh.so.4.8:_Z4vaddPKdS0_Pd
libgmsh.so.4.8:_Z4vdotPKdS0_
libgmsh.so.4.8:_Z4vsetPdddd
libgmsh.so.4.8:_Z4vsubPKdS0_Pd
libgmsh.so.4.8:_Z5FopenPKcS0_
libgmsh.so.4.8:_Z5chmodNSt7__cxx1112basic_stringIcSt11char_traitsIcESaIcEEE
libgmsh.so.4.8:_Z5norm2PA3_d
libgmsh.so.4.8:_Z5quoteRKNSt7__cxx1112basic_stringIcSt11char_traitsIcESaIcEEE
libgmsh.so.4.8:_Z5shootRK7SPoint2S1_RKdRS_
libgmsh.so.4.8:_Z5vcopyPKdPd
libgmsh.so.4.8:_Z5vecN0i
libgmsh.so.4.8:_Z5vzeroPd
libgmsh.so.4.8:_Z5yymsgiPKcz
libgmsh.so.4.8:_Z6Callocmm
libgmsh.so.4.8:_Z6Mallocm
libgmsh.so.4.8:_Z6NEWREGv
libgmsh.so.4.8:_Z6NewtonPK8DI_PointS1_PK10DI_ElementRKSt6vectorIP9gLevelsetSaIS7_EE
libgmsh.so.4.8:_Z6det2x2PA2_d
libgmsh.so.4.8:_Z6det2x3PA3_d
libgmsh.so.4.8:_Z6det3x3PA3_d
libgmsh.so.4.8:_Z6inv2x2PA2_dS0_
libgmsh.so.4.8:_Z6inv3x3PA3_dS0_
libgmsh.so.4.8:_Z6isInQEPK11DI_TrianglePK12DI_QualError
libgmsh.so.4.8:_Z6lengthR10Quaternion
libgmsh.so.4.8:_Z6lengthR3XYZ
libgmsh.so.4.8:_Z6matmatPA3_dS0_S0_
libgmsh.so.4.8:_Z6matvecPA3_dPdS1_
libgmsh.so.4.8:_Z6mvboldb
libgmsh.so.4.8:_Z6mvinitv
libgmsh.so.4.8:_Z6myacosd
libgmsh.so.4.8:_Z6myasind
libgmsh.so.4.8:_Z6rotateRK10Quaternion3XYZ
libgmsh.so.4.8:_Z6sys2x2PA2_dPdS1_
libgmsh.so.4.8:_Z6sys3x3PA3_dPdS1_S1_
libgmsh.so.4.8:_Z6trace2PA3_d
libgmsh.so.4.8:_Z6vcrossPKdS0_Pd
libgmsh.so.4.8:_Z6vscalePdd
libgmsh.so.4.8:_Z7CutLinePdS_S_S_ddS_S_S_S_
libgmsh.so.4.8:_Z7IsoLinePdS_S_S_dS_S_S_
libgmsh.so.4.8:_Z7NEWLINEv
libgmsh.so.4.8:_Z7ReallocPvm
libgmsh.so.4.8:_Z7annDistiPdS_
libgmsh.so.4.8:_Z7avl_genP20avl_generator_structPPvS2_
libgmsh.so.4.8:_Z7clip_cbP9Fl_WidgetPv
libgmsh.so.4.8:_Z7commonVRiS_S_S_
libgmsh.so.4.8:_Z7comparePK7MVertexS1_
libgmsh.so.4.8:_Z7convertRK7cross3D
libgmsh.so.4.8:_Z7diffendP7MVertexS0_S0_S0_
libgmsh.so.4.8:_Z7eigsortPd
libgmsh.so.4.8:_Z7extractRKNSt7__cxx1112basic_stringIcSt11char_traitsIcESaIcEEERS4_S7_RSt6vectorIS4_SaIS4_EE
libgmsh.so.4.8:_Z7minimumPdS_S_i
libgmsh.so.4.8:_Z7mvcolorib
libgmsh.so.4.8:_Z7mvpausev
libgmsh.so.4.8:_Z7myatan2dd
libgmsh.so.4.8:_Z7nextOneP11GEdgeSignedRNSt7__cxx114listIP5GEdgeSaIS4_EEE
libgmsh.so.4.8:_Z7strsavePc
libgmsh.so.4.8:_Z7trapezeR7SPoint3S0_
libgmsh.so.4.8:_Z7unquoteRKNSt7__cxx1112basic_stringIcSt11char_traitsIcESaIcEEE
libgmsh.so.4.8:_Z7vlengthPKd
libgmsh.so.4.8:_Z7vnormalPd
libgmsh.so.4.8:_Z8EndCurveP5Curve
libgmsh.so.4.8:_Z8GetUsageB5cxx11v
libgmsh.so.4.8:_Z8Gmsh2HxtRSt6vectorIP7GRegionSaIS1_EEP7HXTMeshRSt3mapIP7MVertexjSt4lessIS9_ESaISt4pairIKS9_jEEERS_IS9_SaIS9_EE
libgmsh.so.4.8:_Z8GmshFLTKiPPc
libgmsh.so.4.8:_Z8List_AddP6List_TPv
libgmsh.so.4.8:_Z8List_AddP6List_Ti
libgmsh.so.4.8:_Z8List_PopP6List_T
libgmsh.so.4.8:_Z8List_PutP6List_TiPv
libgmsh.so.4.8:_Z8NEWFIELDv
libgmsh.so.4.8:_Z8NEWPOINTv
libgmsh.so.4.8:_Z8StatFileRKNSt7__cxx1112basic_stringIcSt11char_traitsIcESaIcEEE
libgmsh.so.4.8:_Z8TotalRamv
libgmsh.so.4.8:_Z8Tree_AddP6Tree_TPv
libgmsh.so.4.8:_Z8Tree_NbrP6Tree_T
libgmsh.so.4.8:_Z8annClosev
libgmsh.so.4.8:_Z8annErrorPc6ANNerr
libgmsh.so.4.8:_Z8bamg2mshPN4bamg9TrianglesEb
libgmsh.so.4.8:_Z8catenarydddddiPd
libgmsh.so.4.8:_Z8edgeSwapRSt6vectorIP5MTet4SaIS1_EES1_iRKN13qmTetrahedron8MeasuresERKSt3setI5MFace13MFaceLessThanSaISA_EE
libgmsh.so.4.8:_Z8enclosedRKNSt7__cxx1112basic_stringIcSt11char_traitsIcESaIcEEERSt6vectorIS4_SaIS4_EERm
libgmsh.so.4.8:_Z8faceSwapRSt6vectorIP5MTet4SaIS1_EES1_iRKN13qmTetrahedron8MeasuresERKSt3setI5MFace13MFaceLessThanSaISA_EE
libgmsh.so.4.8:_Z8fcmp_intPKvS0_
libgmsh.so.4.8:_Z8field_cbP9Fl_WidgetPv
libgmsh.so.4.8:_Z8findSpandiiPf
libgmsh.so.4.8:_Z8isMinMaxP7MVertexSt6vectorIP7cross2dSaIS3_EEP10dofManagerIdERbS9_
libgmsh.so.4.8:_Z8kd_splitPPdPiRK11ANNorthRectiiRiRdS5_
libgmsh.so.4.8:_Z8manip_cbP9Fl_WidgetPv
libgmsh.so.4.8:_Z8msh2bamgRK5Mesh2dPli
libgmsh.so.4.8:_Z8msh2bamgRK5Mesh2diPiiS2_Pli
libgmsh.so.4.8:_Z8mySystemNSt7__cxx1112basic_stringIcSt11char_traitsIcESaIcEEE
libgmsh.so.4.8:_Z8rbd_treePPdPiiiiR11ANNorthRectPFvS0_S1_RKS2_iiRiRdS6_E13ANNshrinkRule
libgmsh.so.4.8:_Z8read_bmpRKNSt7__cxx1112basic_stringIcSt11char_traitsIcESaIcEEE
libgmsh.so.4.8:_Z8read_pngRKNSt7__cxx1112basic_stringIcSt11char_traitsIcESaIcEEE
libgmsh.so.4.8:_Z8read_pnmRKNSt7__cxx1112basic_stringIcSt11char_traitsIcESaIcEEE
libgmsh.so.4.8:_Z8recurCutP12RecurElementii
libgmsh.so.4.8:_Z8rkd_treePPdPiiiiR11ANNorthRectPFvS0_S1_RKS2_iiRiRdS6_E
libgmsh.so.4.8:_Z8sanitizeRKNSt7__cxx1112basic_stringIcSt11char_traitsIcESaIcEEE
libgmsh.so.4.8:_Z8setColorRKSt6vectorISt4pairIiiESaIS1_EEjb
libgmsh.so.4.8:_Z8skipTestPKcS0_S0_iPi
libgmsh.so.4.8:_Z8skiplinev
libgmsh.so.4.8:_Z8swapedgeP7MVertexS0_S0_S0_P5MTri3i
libgmsh.so.4.8:_Z8trace3x3PA3_d
libgmsh.so.4.8:_Z9AdaptMeshP6GModel
libgmsh.so.4.8:_Z9ExecErrorPKc
libgmsh.so.4.8:_Z9FindCurvei
libgmsh.so.4.8:_Z9FindPointi
libgmsh.so.4.8:_Z9FixOLPathRKNSt7__cxx1112basic_stringIcSt11char_traitsIcESaIcEEE
libgmsh.so.4.8:_Z9FreeCurvePvS_
libgmsh.so.4.8:_Z9GmshBatchv
libgmsh.so.4.8:_Z9List_CopyP6List_TS0_
libgmsh.so.4.8:_Z9List_ReadP6List_TiPv
libgmsh.so.4.8:_Z9List_SortP6List_TPFiPKvS2_E
libgmsh.so.4.8:_Z9MergeFileRKNSt7__cxx1112basic_stringIcSt11char_traitsIcESaIcEEEbbbi
libgmsh.so.4.8:_Z9NEWVOLUMEv
libgmsh.so.4.8:_Z9ParseFileRKNSt7__cxx1112basic_stringIcSt11char_traitsIcESaIcEEEbb
libgmsh.so.4.8:_Z9SetOrder1P6GModelbb
libgmsh.so.4.8:_Z9SetOrderNP6GModelibbb
libgmsh.so.4.8:_Z9SwapBytesPcii
libgmsh.so.4.8:_Z9TimeOfDayv
libgmsh.so.4.8:_Z9Tree2ListP6Tree_T
libgmsh.so.4.8:_Z9Tree_SizeP6Tree_T
libgmsh.so.4.8:_Z9UnzipFileRKNSt7__cxx1112basic_stringIcSt11char_traitsIcESaIcEEES6_
libgmsh.so.4.8:_Z9add_quatsPdS_S_
libgmsh.so.4.8:_Z9annCopyPtiPd
libgmsh.so.4.8:_Z9annMinMaxPPdPiiiRdS2_
libgmsh.so.4.8:_Z9annSpreadPPdPiii
libgmsh.so.4.8:_Z9avl_countP15avl_tree_struct
libgmsh.so.4.8:_Z9belongsToPK10DI_ElementS1_
libgmsh.so.4.8:_Z9carveHoleP7GRegionidRSt6vectorIiSaIiEE
libgmsh.so.4.8:_Z9cgnsErrorPKcii
libgmsh.so.4.8:_Z9conjugate10Quaternion
libgmsh.so.4.8:_Z9edgeSplitRSt6vectorIP5MTet4SaIS1_EES1_P7MVertexiRKN13qmTetrahedron8MeasuresE
libgmsh.so.4.8:_Z9format_cbP9Fl_WidgetPv
libgmsh.so.4.8:_Z9getGQHPtsi
libgmsh.so.4.8:_Z9getGQLPtsi
libgmsh.so.4.8:_Z9getGQQPtsi
libgmsh.so.4.8:_Z9getGQTPtsi
libgmsh.so.4.8:_Z9getLSBlobmSt17_Rb_tree_iteratorISt4pairIKP7MVertexSt6vectorIP8MElementSaIS6_EEEERSt3mapIS2_S8_18MVertexPtrLessThanSaIS9_EE
libgmsh.so.4.8:_Z9getNumberRKNSt7__cxx1112basic_stringIcSt11char_traitsIcESaIcEEE
libgmsh.so.4.8:_Z9getStringRKNSt7__cxx1112basic_stringIcSt11char_traitsIcESaIcEEE
libgmsh.so.4.8:_Z9metamodelRKNSt7__cxx1112basic_stringIcSt11char_traitsIcESaIcEEE
libgmsh.so.4.8:_Z9modelNameRKNSt7__cxx1112basic_stringIcSt11char_traitsIcESaIcEEES6_
libgmsh.so.4.8:_Z9mvfillRowic
libgmsh.so.4.8:_Z9mvprintXYiiPKcz
libgmsh.so.4.8:_Z9nameIndexRKNSt7__cxx1112basic_stringIcSt11char_traitsIcESaIcEEERSt6vectorIS4_SaIS4_EE
libgmsh.so.4.8:_Z9newton_fdPFbR10fullVectorIdES1_PvES1_S2_dd
libgmsh.so.4.8:_Z9normalizeR10Quaternion
libgmsh.so.4.8:_Z9normalizeR3XYZ
libgmsh.so.4.8:_Z9onelab_cbP9Fl_WidgetPv
libgmsh.so.4.8:_Z9overlap2DP8MElementS0_
libgmsh.so.4.8:_Z9plugin_cbP9Fl_WidgetPv
libgmsh.so.4.8:_Z9print_pgfRKNSt7__cxx1112basic_stringIcSt11char_traitsIcESaIcEEEiiP11PixelBufferPdPiS9_S9_
libgmsh.so.4.8:_Z9quadToTriddPdS_S_
libgmsh.so.4.8:_Z9readScaleiiRd
libgmsh.so.4.8:_Z9read_jpegRKNSt7__cxx1112basic_stringIcSt11char_traitsIcESaIcEEE
libgmsh.so.4.8:_Z9recur_tagP8BDS_FaceP14BDS_GeomEntity
libgmsh.so.4.8:_Z9redraw_cbP9Fl_WidgetPv
libgmsh.so.4.8:_Z9setNumberRKNSt7__cxx1112basic_stringIcSt11char_traitsIcESaIcEEEd
libgmsh.so.4.8:_Z9setStringRKNSt7__cxx1112basic_stringIcSt11char_traitsIcESaIcEEES6_
libgmsh.so.4.8:_Z9solver_cbP9Fl_WidgetPv
libgmsh.so.4.8:_Z9trackballPddddd
libgmsh.so.4.8:_Z9validFaceP7MVertexS0_S0_S0_RSt3mapIS0_St3setIP8MElementSt4lessIS4_ESaIS4_EES5_IS0_ESaISt4pairIKS0_S8_EEE
libgmsh.so.4.8:_Z9window_cbP9Fl_WidgetPv
libgmsh.so.4.8:_Z9writeZoneP6GModelbdimmRKSt6vectorIP7GEntitySaIS3_EEiiRS1_INSt7__cxx1112basic_stringIcSt11char_traitsIcESaIcEEESaISD_EERSt3mapIP7MVertexS1_I9LocalDataSaISK_EESt4lessISJ_ESaISt4pairIKSJ_SM_EEERSt3setIiSN_IiESaIiEERSH_IS3_SD_SN_IS3_ESaISP_IKS3_SD_EEE
libgmsh.so.4.8:_ZN10ANNbd_treeC1EPPdiii12ANNsplitRule13ANNshrinkRule
libgmsh.so.4.8:_ZN10ANNbd_treeC1ERSi
libgmsh.so.4.8:_ZN10ANNbd_treeC2EPPdiii12ANNsplitRule13ANNshrinkRule
libgmsh.so.4.8:_ZN10ANNbd_treeC2ERSi
libgmsh.so.4.8:_ZN10ANNkdStats5mergeERKS_
libgmsh.so.4.8:_ZN10ANNkd_leaf10ann_searchEd
libgmsh.so.4.8:_ZN10ANNkd_leaf13ann_FR_searchEd
libgmsh.so.4.8:_ZN10ANNkd_leaf14ann_pri_searchEd
libgmsh.so.4.8:_ZN10ANNkd_leaf4dumpERSo
libgmsh.so.4.8:_ZN10ANNkd_leaf5printEiRSo
libgmsh.so.4.8:_ZN10ANNkd_leaf8getStatsEiR10ANNkdStatsR11ANNorthRect
libgmsh.so.4.8:_ZN10ANNkd_tree10annkSearchEPdiPiS0_d
libgmsh.so.4.8:_ZN10ANNkd_tree12SkeletonTreeEiiiPPdPi
libgmsh.so.4.8:_ZN10ANNkd_tree12annkFRSearchEPddiPiS0_d
libgmsh.so.4.8:_ZN10ANNkd_tree13annkPriSearchEPdiPiS0_d
libgmsh.so.4.8:_ZN10ANNkd_tree4DumpE7ANNboolRSo
libgmsh.so.4.8:_ZN10ANNkd_tree5PrintE7ANNboolRSo
libgmsh.so.4.8:_ZN10ANNkd_tree8getStatsER10ANNkdStats
libgmsh.so.4.8:_ZN10ANNkd_treeC1EPPdiii12ANNsplitRule
libgmsh.so.4.8:_ZN10ANNkd_treeC1ERSi
libgmsh.so.4.8:_ZN10ANNkd_treeC1Eiii
libgmsh.so.4.8:_ZN10ANNkd_treeC2EPPdiii12ANNsplitRule
libgmsh.so.4.8:_ZN10ANNkd_treeC2ERSi
libgmsh.so.4.8:_ZN10ANNkd_treeC2Eiii
libgmsh.so.4.8:_ZN10ANNkd_treeD0Ev
libgmsh.so.4.8:_ZN10ANNkd_treeD1Ev
libgmsh.so.4.8:_ZN10ANNkd_treeD2Ev
libgmsh.so.4.8:_ZN10BGMManager19set_use_cross_fieldEb
libgmsh.so.4.8:_ZN10BGMManager3getEP5GFace
libgmsh.so.4.8:_ZN10BGMManager3getEP7GRegion
libgmsh.so.4.8:_ZN10BGMManager9current2DEv
libgmsh.so.4.8:_ZN10ClosureGen12addEdgeNodesERSt6vectorIN10nodalBasis7closureESaIS2_EEPKii
libgmsh.so.4.8:_ZN10ClosureGen13rotateHexFullEiiidddRdS0_S0_
libgmsh.so.4.8:_ZN10ClosureGen17getFaceClosureTetEiiiRN10nodalBasis7closureEi
libgmsh.so.4.8:_ZN10ClosureGen18reorderFaceClosureEiiRN10nodalBasis7closureEiii
libgmsh.so.4.8:_ZN10ClosureGen19getFaceClosurePrismEiiiRN10nodalBasis7closureEi
libgmsh.so.4.8:_ZN10ClosureGen21fillInteriorFaceNodesERN10nodalBasis7closureEiiii
libgmsh.so.4.8:_ZN10ClosureGen21generate2dEdgeClosureERSt6vectorIN10nodalBasis7closureESaIS2_EEii
libgmsh.so.4.8:_ZN10ClosureGen21generateClosureOrder0ERSt6vectorIN10nodalBasis7closureESaIS2_EEi
libgmsh.so.4.8:_ZN10ClosureGen22generateFaceClosureHexERSt6vectorIN10nodalBasis7closureESaIS2_EEibRK10fullMatrixIdE
libgmsh.so.4.8:_ZN10ClosureGen22generateFaceClosurePyrERSt6vectorIN10nodalBasis7closureESaIS2_EEibRK10fullMatrixIdE
libgmsh.so.4.8:_ZN10ClosureGen22generateFaceClosureTetERSt6vectorIN10nodalBasis7closureESaIS2_EEi
libgmsh.so.4.8:_ZN10ClosureGen23generate1dVertexClosureERSt6vectorIN10nodalBasis7closureESaIS2_EEi
libgmsh.so.4.8:_ZN10ClosureGen24generateFaceClosurePrismERSt6vectorIN10nodalBasis7closureESaIS2_EEi
libgmsh.so.4.8:_ZN10ClosureGen25generate2dEdgeClosureFullERSt6vectorIN10nodalBasis7closureESaIS2_EERS0_IiSaIiEEiib
libgmsh.so.4.8:_ZN10ClosureGen26generateFaceClosureHexFullERSt6vectorIN10nodalBasis7closureESaIS2_EERS0_IiSaIiEEibRK10fullMatrixIdE
libgmsh.so.4.8:_ZN10ClosureGen26generateFaceClosureTetFullERSt6vectorIN10nodalBasis7closureESaIS2_EERS0_IiSaIiEEib
libgmsh.so.4.8:_ZN10ClosureGen27generate1dVertexClosureFullERSt6vectorIN10nodalBasis7closureESaIS2_EERS0_IiSaIiEEi
libgmsh.so.4.8:_ZN10ClosureGen28generateFaceClosurePrismFullERSt6vectorIN10nodalBasis7closureESaIS2_EERS0_IiSaIiEEi
libgmsh.so.4.8:_ZN10ClosureGen9rotateHexEiiiddRdS0_S0_
libgmsh.so.4.8:_ZN10ClosureGen9rotatePyrEiiiddRdS0_S0_
libgmsh.so.4.8:_ZN10DI_Element11addQuadEdgeEiP8DI_PointPKS_RKSt6vectorIP9gLevelsetSaIS6_EE
libgmsh.so.4.8:_ZN10DI_Element15computeLsTagDomEPKS_RKSt6vectorIP9gLevelsetSaIS4_EE
libgmsh.so.4.8:_ZN10DI_Element17computeLsTagBoundERSt6vectorIP7DI_HexaSaIS2_EERS0_IP8DI_TetraSaIS7_EE
libgmsh.so.4.8:_ZN10DI_Element17computeLsTagBoundERSt6vectorIP7DI_QuadSaIS2_EERS0_IP11DI_TriangleSaIS7_EE
libgmsh.so.4.8:_ZN10DI_Element18setPolynomialOrderEi
libgmsh.so.4.8:_ZN10DI_Element18setPolynomialOrderEiPKS_RKSt6vectorIP9gLevelsetSaIS4_EE
libgmsh.so.4.8:_ZN10DI_Element5addLsEPKS_
libgmsh.so.4.8:_ZN10DI_Element5addLsEPKS_PK9gLevelset
libgmsh.so.4.8:_ZN10DI_Element5addLsEPKS_PK9gLevelsetiPPd
libgmsh.so.4.8:_ZN10DI_Element5addLsEPKd
libgmsh.so.4.8:_ZN10DI_Element7clearLsEv
libgmsh.so.4.8:_ZN10DI_Element8chooseLsEPK9gLevelset
libgmsh.so.4.8:_ZN10DI_ElementC1ERKS_
libgmsh.so.4.8:_ZN10DI_ElementC2ERKS_
libgmsh.so.4.8:_ZN10DI_ElementaSERKS_
libgmsh.so.4.8:_ZN10MLineChild20getIntegrationPointsEiPiPP5IntPt
libgmsh.so.4.8:_ZN10MTriangle610getEdgeRepEbiPdS0_S0_P8SVector3
libgmsh.so.4.8:_ZN10MTriangle610getFaceRepEbiPdS0_S0_P8SVector3
libgmsh.so.4.8:_ZN10MTriangle614getNumEdgesRepEb
libgmsh.so.4.8:_ZN10MTriangle614getNumFacesRepEb
libgmsh.so.4.8:_ZN10MTriangle616getHighOrderFaceEiii
libgmsh.so.4.8:_ZN10MTriangle68reorientEib
libgmsh.so.4.8:_ZN10MTriangleN10getEdgeRepEbiPdS0_S0_P8SVector3
libgmsh.so.4.8:_ZN10MTriangleN10getFaceRepEbiPdS0_S0_P8SVector3
libgmsh.so.4.8:_ZN10MTriangleN14getNumEdgesRepEb
libgmsh.so.4.8:_ZN10MTriangleN14getNumFacesRepEb
libgmsh.so.4.8:_ZN10MTriangleN16getHighOrderFaceEiii
libgmsh.so.4.8:_ZN10MTriangleN7reverseEv
libgmsh.so.4.8:_ZN10MTriangleN8reorientEib
libgmsh.so.4.8:_ZN10ObjContrib13updateResultsEv
libgmsh.so.4.8:_ZN10ObjContribC1ENSt7__cxx1112basic_stringIcSt11char_traitsIcESaIcEEES5_
libgmsh.so.4.8:_ZN10ObjContribC2ENSt7__cxx1112basic_stringIcSt11char_traitsIcESaIcEEES5_
libgmsh.so.4.8:_ZN10OctreePost12searchScalarEdddPdiS0_iS0_S0_S0_bi
libgmsh.so.4.8:_ZN10OctreePost12searchTensorEdddPdiS0_iS0_S0_S0_bi
libgmsh.so.4.8:_ZN10OctreePost12searchVectorEdddPdiS0_iS0_S0_S0_bi
libgmsh.so.4.8:_ZN10OctreePost19searchScalarWithTolEdddPdiS0_diS0_S0_S0_bi
libgmsh.so.4.8:_ZN10OctreePost19searchTensorWithTolEdddPdiS0_diS0_S0_S0_bi
libgmsh.so.4.8:_ZN10OctreePost19searchVectorWithTolEdddPdiS0_diS0_S0_S0_bi
libgmsh.so.4.8:_ZN10OctreePost7_createEP9PViewData
libgmsh.so.4.8:_ZN10OctreePost9_getValueEPviPdiS1_S1_b
libgmsh.so.4.8:_ZN10OctreePost9_getValueEPviiiPdiS1_S1_b
libgmsh.so.4.8:_ZN10OctreePostC1EP5PView
libgmsh.so.4.8:_ZN10OctreePostC1EP9PViewData
libgmsh.so.4.8:_ZN10OctreePostC2EP5PView
libgmsh.so.4.8:_ZN10OctreePostC2EP9PViewData
libgmsh.so.4.8:_ZN10OctreePostD1Ev
libgmsh.so.4.8:_ZN10OctreePostD2Ev
libgmsh.so.4.8:_ZN10PETriangleC1ERKSt6vectorIP7MVertexSaIS2_EE
libgmsh.so.4.8:_ZN10PETriangleC2ERKSt6vectorIP7MVertexSaIS2_EE
libgmsh.so.4.8:_ZN10PETriangleD0Ev
libgmsh.so.4.8:_ZN10PETriangleD1Ev
libgmsh.so.4.8:_ZN10PETriangleD2Ev
libgmsh.so.4.8:_ZN10QuaternionC1ERK3XYZ
libgmsh.so.4.8:_ZN10QuaternionC1ERK3XYZRKd
libgmsh.so.4.8:_ZN10QuaternionC1Ev
libgmsh.so.4.8:_ZN10QuaternionC2ERK3XYZ
libgmsh.so.4.8:_ZN10QuaternionC2ERK3XYZRKd
libgmsh.so.4.8:_ZN10QuaternionC2Ev
libgmsh.so.4.8:_ZN10QuaternionD1Ev
libgmsh.so.4.8:_ZN10QuaternionD2Ev
libgmsh.so.4.8:_ZN10Size_field11init_regionEP7GRegion
libgmsh.so.4.8:_ZN10Size_field11print_fieldEP7GRegion
libgmsh.so.4.8:_ZN10Size_field4testEv
libgmsh.so.4.8:_ZN10Size_field5clearEv
libgmsh.so.4.8:_ZN10Size_field5solveEP7GRegion
libgmsh.so.4.8:_ZN10Size_field6searchEddd
libgmsh.so.4.8:_ZN10Size_fieldC1Ev
libgmsh.so.4.8:_ZN10Size_fieldC2Ev
libgmsh.so.4.8:_ZN10dofManagerIdE15scatterSolutionEv
libgmsh.so.4.8:_ZN10edge_angleC1EP7MVertexS1_P8MElementS3_
libgmsh.so.4.8:_ZN10edge_angleC2EP7MVertexS1_P8MElementS3_
libgmsh.so.4.8:_ZN10gmshRegion14resetNativePtrEP6Volume
libgmsh.so.4.8:_ZN10gmshRegion19resetMeshAttributesEv
libgmsh.so.4.8:_ZN10gmshRegionC1EP6GModelP6Volume
libgmsh.so.4.8:_ZN10gmshRegionC2EP6GModelP6Volume
libgmsh.so.4.8:_ZN10gmshSphere9NewSphereEidddd
libgmsh.so.4.8:_ZN10gmshVertex11setPositionER6GPoint
libgmsh.so.4.8:_ZN10gmshVertex14resetNativePtrEP6Vertex
libgmsh.so.4.8:_ZN10gmshVertex19resetMeshAttributesEv
libgmsh.so.4.8:_ZN10gmshVertex29setPrescribedMeshSizeAtVertexEd
libgmsh.so.4.8:_ZN10gmshVertex8writeGEOEP8_IO_FILERKNSt7__cxx1112basic_stringIcSt11char_traitsIcESaIcEEE
libgmsh.so.4.8:_ZN10gmshVertexC1EP6GModelP6Vertex
libgmsh.so.4.8:_ZN10gmshVertexC2EP6GModelP6Vertex
libgmsh.so.4.8:_ZN10helpWindowC1Ev
libgmsh.so.4.8:_ZN10helpWindowC2Ev
libgmsh.so.4.8:_ZN10inputRange13_loop_butt_cbEP9Fl_WidgetPv
libgmsh.so.4.8:_ZN10inputRange14_graph_menu_cbEP9Fl_WidgetPv
libgmsh.so.4.8:_ZN10inputRange14_range_butt_cbEP9Fl_WidgetPv
libgmsh.so.4.8:_ZN10inputRange20_graph_menu_reset_cbEP9Fl_WidgetPv
libgmsh.so.4.8:_ZN10inputRange9_input_cbEP9Fl_WidgetPv
libgmsh.so.4.8:_ZN10meshMetric10exportInfoEPKc
libgmsh.so.4.8:_ZN10meshMetric11getGradientEP7MVertex
libgmsh.so.4.8:_ZN10meshMetric11scaleMetricEiRSt3mapIP7MVertex8SMetric3St4lessIS2_ESaISt4pairIKS2_S3_EEE
libgmsh.so.4.8:_ZN10meshMetric12getLaplacianEP7MVertex
libgmsh.so.4.8:_ZN10meshMetric13computeMetricEi
libgmsh.so.4.8:_ZN10meshMetric13computeValuesEv
libgmsh.so.4.8:_ZN10meshMetric13updateMetricsEv
libgmsh.so.4.8:_ZN10meshMetric14computeHessianEv
libgmsh.so.4.8:_ZN10meshMetric17computeMetricFreyEP7MVertexR8SMetric3S3_Rdddd
libgmsh.so.4.8:_ZN10meshMetric20computeMetricHessianEP7MVertexR8SMetric3S3_Rdddd
libgmsh.so.4.8:_ZN10meshMetric21computeMetricEigenDirEP7MVertexR8SMetric3S3_Rdddd
libgmsh.so.4.8:_ZN10meshMetric21computeMetricLevelSetEP7MVertexR8SMetric3S3_Rdddd
libgmsh.so.4.8:_ZN10meshMetric25computeMetricIsoLinInterpEP7MVertexR8SMetric3S3_Rdddd
libgmsh.so.4.8:_ZN10meshMetric9addMetricEiP14simpleFunctionIdERKSt6vectorIdSaIdEE
libgmsh.so.4.8:_ZN10meshMetricC1EP6GModel
libgmsh.so.4.8:_ZN10meshMetricC1ESt6vectorIP8MElementSaIS2_EE
libgmsh.so.4.8:_ZN10meshMetricC2EP6GModel
libgmsh.so.4.8:_ZN10meshMetricC2ESt6vectorIP8MElementSaIS2_EE
libgmsh.so.4.8:_ZN10meshMetricD0Ev
libgmsh.so.4.8:_ZN10meshMetricD1Ev
libgmsh.so.4.8:_ZN10meshMetricD2Ev
libgmsh.so.4.8:_ZN10meshMetricclEdddP7GEntity
libgmsh.so.4.8:_ZN10meshMetricclEdddR8SMetric3P7GEntity
libgmsh.so.4.8:_ZN10my_wrapperC1ERK7SPoint2
libgmsh.so.4.8:_ZN10my_wrapperC2ERK7SPoint2
libgmsh.so.4.8:_ZN10nodalBasisC1Ei
libgmsh.so.4.8:_ZN10nodalBasisC2Ei
libgmsh.so.4.8:_ZN10qmTriangle15NCJAndGradientsERK7SPoint3S2_S2_RK8SVector3RSt6vectorIdSaIdEES9_
libgmsh.so.4.8:_ZN10qmTriangle3NCJERK7SPoint3S2_S2_RK8SVector3RSt6vectorIdSaIdEE
libgmsh.so.4.8:_ZN10qmTriangle3etaEP9MTriangle
libgmsh.so.4.8:_ZN10qmTriangle5gammaEP8BDS_Face
libgmsh.so.4.8:_ZN10qmTriangle5gammaEP9MTriangle
libgmsh.so.4.8:_ZN10qmTriangle5gammaEPK7MVertexS2_S2_
libgmsh.so.4.8:_ZN10qmTriangle5gammaEPK9BDS_PointS2_S2_
libgmsh.so.4.8:_ZN10qmTriangle5gammaERKdS1_S1_S1_S1_S1_S1_S1_S1_
libgmsh.so.4.8:_ZN10qmTriangle6anglesEP9MTriangle
libgmsh.so.4.8:_ZN10qmTriangle8NCJRangeEPK9MTriangleRdS3_
libgmsh.so.4.8:_ZN10tetgenmesh10carveholesEv
libgmsh.so.4.8:_ZN10tetgenmesh10facenormalEPdS0_S0_S0_iS0_
libgmsh.so.4.8:_ZN10tetgenmesh10flipshpushEPNS_4faceE
libgmsh.so.4.8:_ZN10tetgenmesh10incircle3dEPdS0_S0_S0_
libgmsh.so.4.8:_ZN10tetgenmesh10inittablesEv
libgmsh.so.4.8:_ZN10tetgenmesh10insphere_sEPdS0_S0_S0_S0_
libgmsh.so.4.8:_ZN10tetgenmesh10lawsonflipEv
libgmsh.so.4.8:_ZN10tetgenmesh10memorypool13traversalinitEv
libgmsh.so.4.8:_ZN10tetgenmesh10memorypool5allocEv
libgmsh.so.4.8:_ZN10tetgenmesh10memorypool7deallocEPv
libgmsh.so.4.8:_ZN10tetgenmesh10memorypool7restartEv
libgmsh.so.4.8:_ZN10tetgenmesh10memorypool8poolinitEiiii
libgmsh.so.4.8:_ZN10tetgenmesh10memorypool8traverseEv
libgmsh.so.4.8:_ZN10tetgenmesh10memorypoolC1Eiiii
libgmsh.so.4.8:_ZN10tetgenmesh10memorypoolC1Ev
libgmsh.so.4.8:_ZN10tetgenmesh10memorypoolC2Eiiii
libgmsh.so.4.8:_ZN10tetgenmesh10memorypoolC2Ev
libgmsh.so.4.8:_ZN10tetgenmesh10memorypoolD1Ev
libgmsh.so.4.8:_ZN10tetgenmesh10memorypoolD2Ev
libgmsh.so.4.8:_ZN10tetgenmesh10orient4d_sEPdS0_S0_S0_S0_ddddd
libgmsh.so.4.8:_ZN10tetgenmesh11flipnm_postEPNS_7trifaceEiiiPNS_15flipconstraintsE
libgmsh.so.4.8:_ZN10tetgenmesh11insertpointEPdPNS_7trifaceEPNS_4faceES4_PNS_17insertvertexflagsE
libgmsh.so.4.8:_ZN10tetgenmesh11linelineintEPdS0_S0_S0_S0_S0_S0_S0_
libgmsh.so.4.8:_ZN10tetgenmesh11mergefacetsEv
libgmsh.so.4.8:_ZN10tetgenmesh11orthosphereEPdS0_S0_S0_ddddS0_S0_
libgmsh.so.4.8:_ZN10tetgenmesh11projpt2edgeEPdS0_S0_S0_
libgmsh.so.4.8:_ZN10tetgenmesh11projpt2faceEPdS0_S0_S0_S0_
libgmsh.so.4.8:_ZN10tetgenmesh11scarveholesEiPd
libgmsh.so.4.8:_ZN10tetgenmesh11smoothpointEPdPNS_9arraypoolEiPNS_13optparametersE
libgmsh.so.4.8:_ZN10tetgenmesh11splitsliverEPNS_7trifaceEdi
libgmsh.so.4.8:_ZN10tetgenmesh11tetprismvolEPdS0_S0_S0_
libgmsh.so.4.8:_ZN10tetgenmesh11tri_edge_2dEPdS0_S0_S0_S0_S0_iPiS1_
libgmsh.so.4.8:_ZN10tetgenmesh12circumsphereEPdS0_S0_S0_S0_S0_
libgmsh.so.4.8:_ZN10tetgenmesh12hilbert_initEi
libgmsh.so.4.8:_ZN10tetgenmesh12lawsonflip3dEPNS_15flipconstraintsE
libgmsh.so.4.8:_ZN10tetgenmesh12optimizemeshEv
libgmsh.so.4.8:_ZN10tetgenmesh12orient3dfastEPdS0_S0_S0_
libgmsh.so.4.8:_ZN10tetgenmesh12planelineintEPdS0_S0_S0_S0_S0_S0_
libgmsh.so.4.8:_ZN10tetgenmesh12pointdeallocEPd
libgmsh.so.4.8:_ZN10tetgenmesh12randomnationEj
libgmsh.so.4.8:_ZN10tetgenmesh12randomsampleEPdPNS_7trifaceE
libgmsh.so.4.8:_ZN10tetgenmesh12tetallnormalEPdS0_S0_S0_PA3_dS0_
libgmsh.so.4.8:_ZN10tetgenmesh13finddirectionEPNS_7trifaceEPd
libgmsh.so.4.8:_ZN10tetgenmesh13getvertexstarEiPdPNS_9arraypoolES2_S2_
libgmsh.so.4.8:_ZN10tetgenmesh13hilbert_sort3EPPdiiiddddddi
libgmsh.so.4.8:_ZN10tetgenmesh13hilbert_splitEPPdiiidddddd
libgmsh.so.4.8:_ZN10tetgenmesh13interiorangleEPdS0_S0_S0_
libgmsh.so.4.8:_ZN10tetgenmesh13jettisonnodesEv
libgmsh.so.4.8:_ZN10tetgenmesh13makeshellfaceEPNS_10memorypoolEPNS_4faceE
libgmsh.so.4.8:_ZN10tetgenmesh13pointtraverseEv
libgmsh.so.4.8:_ZN10tetgenmesh13removesliversEi
libgmsh.so.4.8:_ZN10tetgenmesh13shortdistanceEPdS0_S0_
libgmsh.so.4.8:_ZN10tetgenmesh13sinsertvertexEPdPNS_4faceES2_iii
libgmsh.so.4.8:_ZN10tetgenmesh13sremovevertexEPdPNS_4faceES2_i
libgmsh.so.4.8:_ZN10tetgenmesh13sscoutsegmentEPNS_4faceEPdiii
libgmsh.so.4.8:_ZN10tetgenmesh13tri_edge_tailEPdS0_S0_S0_S0_S0_ddiPiS1_
libgmsh.so.4.8:_ZN10tetgenmesh13tri_edge_testEPdS0_S0_S0_S0_S0_iPiS1_
libgmsh.so.4.8:_ZN10tetgenmesh13tri_tri_interEPdS0_S0_S0_S0_S0_
libgmsh.so.4.8:_ZN10tetgenmesh13unifysegmentsEv
libgmsh.so.4.8:_ZN10tetgenmesh14enqueuesubfaceEPNS_10memorypoolEPNS_4faceE
libgmsh.so.4.8:_ZN10tetgenmesh14gettetrahedronEPdS0_S0_S0_PNS_7trifaceE
libgmsh.so.4.8:_ZN10tetgenmesh14tetalldihedralEPdS0_S0_S0_S0_S0_S0_
libgmsh.so.4.8:_ZN10tetgenmesh14tetaspectratioEPdS0_S0_S0_
libgmsh.so.4.8:_ZN10tetgenmesh15incrementalflipEPdiPNS_15flipconstraintsE
libgmsh.so.4.8:_ZN10tetgenmesh15initialdelaunayEPdS0_S0_S0_
libgmsh.so.4.8:_ZN10tetgenmesh15initializepoolsEv
libgmsh.so.4.8:_ZN10tetgenmesh15maketetrahedronEPNS_7trifaceE
libgmsh.so.4.8:_ZN10tetgenmesh15reconstructmeshEPv
libgmsh.so.4.8:_ZN10tetgenmesh15recoverboundaryERl
libgmsh.so.4.8:_ZN10tetgenmesh15recoverdelaunayEv
libgmsh.so.4.8:_ZN10tetgenmesh15recoversegmentsEPNS_9arraypoolEii
libgmsh.so.4.8:_ZN10tetgenmesh15recoversubfacesEPNS_9arraypoolEi
libgmsh.so.4.8:_ZN10tetgenmesh16makepoint2submapEPNS_10memorypoolERPiRPNS_4faceE
libgmsh.so.4.8:_ZN10tetgenmesh16shellfacedeallocEPNS_10memorypoolEPPPd
libgmsh.so.4.8:_ZN10tetgenmesh17insertpoint_abortEPNS_4faceEPNS_17insertvertexflagsE
libgmsh.so.4.8:_ZN10tetgenmesh17removeedgebyflipsEPNS_7trifaceEPNS_15flipconstraintsE
libgmsh.so.4.8:_ZN10tetgenmesh17removefacebyflipsEPNS_7trifaceEPNS_15flipconstraintsE
libgmsh.so.4.8:_ZN10tetgenmesh17shellfacetraverseEPNS_10memorypoolE
libgmsh.so.4.8:_ZN10tetgenmesh18enqueuetetrahedronEPNS_7trifaceE
libgmsh.so.4.8:_ZN10tetgenmesh18identifyinputedgesEPPd
libgmsh.so.4.8:_ZN10tetgenmesh18makeindex2pointmapERPPd
libgmsh.so.4.8:_ZN10tetgenmesh18recoveredgebyflipsEPdS0_PNS_4faceEPNS_7trifaceEi
libgmsh.so.4.8:_ZN10tetgenmesh18recoverfacebyflipsEPdS0_S0_PNS_4faceEPNS_7trifaceE
libgmsh.so.4.8:_ZN10tetgenmesh18tetrahedrondeallocEPPPd
libgmsh.so.4.8:_ZN10tetgenmesh19calculateabovepointEPNS_9arraypoolEPPdS3_S3_
libgmsh.so.4.8:_ZN10tetgenmesh19incrementaldelaunayERl
libgmsh.so.4.8:_ZN10tetgenmesh19reduceedgesatvertexEPdPNS_9arraypoolE
libgmsh.so.4.8:_ZN10tetgenmesh19removevertexbyflipsEPd
libgmsh.so.4.8:_ZN10tetgenmesh19report_selfint_edgeEPdS0_PNS_4faceEPNS_7trifaceENS_11interresultE
libgmsh.so.4.8:_ZN10tetgenmesh19report_selfint_faceEPdS0_S0_PNS_4faceEPNS_7trifaceEiPiS5_
libgmsh.so.4.8:_ZN10tetgenmesh19tetrahedrontraverseEv
libgmsh.so.4.8:_ZN10tetgenmesh19tri_edge_inter_tailEPdS0_S0_S0_S0_dd
libgmsh.so.4.8:_ZN10tetgenmesh20brio_multiscale_sortEPPdiidPi
libgmsh.so.4.8:_ZN10tetgenmesh20calculateabovepoint4EPdS0_S0_S0_
libgmsh.so.4.8:_ZN10tetgenmesh20checkflipeligibilityEiPdS0_S0_S0_S0_iiPNS_15flipconstraintsE
libgmsh.so.4.8:_ZN10tetgenmesh21improvequalitybyflipsEv
libgmsh.so.4.8:_ZN10tetgenmesh21suppresssteinerpointsEv
libgmsh.so.4.8:_ZN10tetgenmesh22alltetrahedrontraverseEv
libgmsh.so.4.8:_ZN10tetgenmesh24add_steinerpt_in_segmentEPNS_4faceEi
libgmsh.so.4.8:_ZN10tetgenmesh24suppressbdrysteinerpointEPd
libgmsh.so.4.8:_ZN10tetgenmesh25addsteiner4recoversegmentEPNS_4faceEi
libgmsh.so.4.8:_ZN10tetgenmesh25improvequalitybysmoothingEPNS_13optparametersE
libgmsh.so.4.8:_ZN10tetgenmesh25report_overlapping_facetsEPNS_4faceES1_d
libgmsh.so.4.8:_ZN10tetgenmesh32add_steinerpt_in_schoenhardtpolyEPNS_7trifaceEii
libgmsh.so.4.8:_ZN10tetgenmesh6flip22EPNS_4faceEii
libgmsh.so.4.8:_ZN10tetgenmesh6flip23EPNS_7trifaceEiPNS_15flipconstraintsE
libgmsh.so.4.8:_ZN10tetgenmesh6flip31EPNS_4faceEi
libgmsh.so.4.8:_ZN10tetgenmesh6flip32EPNS_7trifaceEiPNS_15flipconstraintsE
libgmsh.so.4.8:_ZN10tetgenmesh6flip41EPNS_7trifaceEiPNS_15flipconstraintsE
libgmsh.so.4.8:_ZN10tetgenmesh6flipnmEPNS_7trifaceEiiiPNS_15flipconstraintsE
libgmsh.so.4.8:_ZN10tetgenmesh6locateEPdPNS_7trifaceEi
libgmsh.so.4.8:_ZN10tetgenmesh7getedgeEPdS0_PNS_7trifaceE
libgmsh.so.4.8:_ZN10tetgenmesh7slocateEPdPNS_4faceEiii
libgmsh.so.4.8:_ZN10tetgenmesh7triareaEPdS0_S0_
libgmsh.so.4.8:_ZN10tetgenmesh8flippushERPNS_7badfaceEPNS_7trifaceE
libgmsh.so.4.8:_ZN10tetgenmesh8lu_decmpEPA4_diPiPdi
libgmsh.so.4.8:_ZN10tetgenmesh8lu_solveEPA4_diPiPdi
libgmsh.so.4.8:_ZN10tetgenmesh9arraypool6lookupEi
libgmsh.so.4.8:_ZN10tetgenmesh9arraypool7restartEv
libgmsh.so.4.8:_ZN10tetgenmesh9arraypool8getblockEi
libgmsh.so.4.8:_ZN10tetgenmesh9arraypool8newindexEPPv
libgmsh.so.4.8:_ZN10tetgenmesh9arraypool8poolinitEii
libgmsh.so.4.8:_ZN10tetgenmesh9arraypoolC1Eii
libgmsh.so.4.8:_ZN10tetgenmesh9arraypoolC2Eii
libgmsh.so.4.8:_ZN10tetgenmesh9arraypoolD1Ev
libgmsh.so.4.8:_ZN10tetgenmesh9arraypoolD2Ev
libgmsh.so.4.8:_ZN10tetgenmesh9makepointEPPdNS_8verttypeE
libgmsh.so.4.8:_ZN10viewButtonC1Eiiiiij
libgmsh.so.4.8:_ZN10viewButtonC2Eiiiiij
libgmsh.so.4.8:_ZN11ANNkd_split10ann_searchEd
libgmsh.so.4.8:_ZN11ANNkd_split13ann_FR_searchEd
libgmsh.so.4.8:_ZN11ANNkd_split14ann_pri_searchEd
libgmsh.so.4.8:_ZN11ANNkd_split4dumpERSo
libgmsh.so.4.8:_ZN11ANNkd_split5printEiRSo
libgmsh.so.4.8:_ZN11ANNkd_split8getStatsEiR10ANNkdStatsR11ANNorthRect
libgmsh.so.4.8:_ZN11ANNorthRect6insideEiPd
libgmsh.so.4.8:_ZN11BergotBasisC1Eib
libgmsh.so.4.8:_ZN11BergotBasisC2Eib
libgmsh.so.4.8:_ZN11BergotBasisD0Ev
libgmsh.so.4.8:_ZN11BergotBasisD1Ev
libgmsh.so.4.8:_ZN11BergotBasisD2Ev
libgmsh.so.4.8:_ZN11CellComplex10insertCellEP4Cell
libgmsh.so.4.8:_ZN11CellComplex10removeCellEP4Cellbb
libgmsh.so.4.8:_ZN11CellComplex11coreductionEP4CelliRSt6vectorIS1_SaIS1_EE
libgmsh.so.4.8:_ZN11CellComplex11coreductionEiiRSt6vectorIP4CellSaIS2_EE
libgmsh.so.4.8:_ZN11CellComplex11getNumCellsEii
libgmsh.so.4.8:_ZN11CellComplex11loadComplexERKNSt7__cxx1112basic_stringIcSt11char_traitsIcESaIcEEE
libgmsh.so.4.8:_ZN11CellComplex11removeCellsEi
libgmsh.so.4.8:_ZN11CellComplex11saveComplexERKNSt7__cxx1112basic_stringIcSt11char_traitsIcESaIcEEE
libgmsh.so.4.8:_ZN11CellComplex12_insertCellsERSt6vectorIP8MElementSaIS2_EEi
libgmsh.so.4.8:_ZN11CellComplex12_removeCellsERSt6vectorIP8MElementSaIS2_EEi
libgmsh.so.4.8:_ZN11CellComplex12enqueueCellsERSt3mapIP4Cells15CellPtrLessThanSaISt4pairIKS2_sEEERSt5queueIS2_St5dequeIS2_SaIS2_EEERSt3setIS2_S3_SC_E
libgmsh.so.4.8:_ZN11CellComplex12printComplexEi
libgmsh.so.4.8:_ZN11CellComplex13reduceComplexEibb
libgmsh.so.4.8:_ZN11CellComplex14_immunizeCellsERSt6vectorIP8MElementSaIS2_EE
libgmsh.so.4.8:_ZN11CellComplex14restoreComplexEv
libgmsh.so.4.8:_ZN11CellComplex15coreduceComplexEibi
libgmsh.so.4.8:_ZN11CellComplex15removeSubdomainEv
libgmsh.so.4.8:_ZN11CellComplex18bettiReduceComplexEv
libgmsh.so.4.8:_ZN11CellComplex7combineEi
libgmsh.so.4.8:_ZN11CellComplex7getSizeEib
libgmsh.so.4.8:_ZN11CellComplex7hasCellEP4Cellb
libgmsh.so.4.8:_ZN11CellComplex8coherentEv
libgmsh.so.4.8:_ZN11CellComplex8getACellEii
libgmsh.so.4.8:_ZN11CellComplex8getCellsERSt3setIP4Cell15CellPtrLessThanSaIS2_EEii
libgmsh.so.4.8:_ZN11CellComplex9_omitCellEP4Cellb
libgmsh.so.4.8:_ZN11CellComplex9cocombineEi
libgmsh.so.4.8:_ZN11CellComplex9getDomainEP4CellRNSt7__cxx1112basic_stringIcSt11char_traitsIcESaIcEEE
libgmsh.so.4.8:_ZN11CellComplex9reductionEiiRSt6vectorIP4CellSaIS2_EE
libgmsh.so.4.8:_ZN11CellComplexC1EP6GModelRSt6vectorIP8MElementSaIS4_EES7_S7_S7_S7_b
libgmsh.so.4.8:_ZN11CellComplexC2EP6GModelRSt6vectorIP8MElementSaIS4_EES7_S7_S7_S7_b
libgmsh.so.4.8:_ZN11CellComplexD1Ev
libgmsh.so.4.8:_ZN11CellComplexD2Ev
libgmsh.so.4.8:_ZN11DI_Triangle15computeIntegralEv
libgmsh.so.4.8:_ZN11DI_Triangle3cutEPK10DI_ElementRKSt6vectorIP9gLevelsetSaIS5_EERS3_IP7DI_QuadSaISB_EERS3_IPS_SaISF_EERS3_IP7DI_LineSaISK_EERS3_IP15DI_CuttingPointSaISP_EE
libgmsh.so.4.8:_ZN11ElementType12getDimensionEi
libgmsh.so.4.8:_ZN11ElementType13getParentTypeEi
libgmsh.so.4.8:_ZN11ElementType14getNumVerticesEi
libgmsh.so.4.8:_ZN11ElementType14getPrimaryTypeEi
libgmsh.so.4.8:_ZN11ElementType14getSerendipityEi
libgmsh.so.4.8:_ZN11ElementType16nameOfParentTypeB5cxx11Eib
libgmsh.so.4.8:_ZN11ElementType7getTypeEiib
libgmsh.so.4.8:_ZN11ElementType8getOrderEi
libgmsh.so.4.8:_ZN11Frame_field10initRegionEP7GRegioni
libgmsh.so.4.8:_ZN11Frame_field10smoothFaceEP5GFacei
libgmsh.so.4.8:_ZN11Frame_field11init_regionEP7GRegion
libgmsh.so.4.8:_ZN11Frame_field11save_energyEP7GRegionRKNSt7__cxx1112basic_stringIcSt11char_traitsIcESaIcEEE
libgmsh.so.4.8:_ZN11Frame_field12buildAnnDataEP7GEntityi
libgmsh.so.4.8:_ZN11Frame_field12checkAnnDataEP7GEntityRKNSt7__cxx1112basic_stringIcSt11char_traitsIcESaIcEEE
libgmsh.so.4.8:_ZN11Frame_field12findAnnIndexERK7SPoint3
libgmsh.so.4.8:_ZN11Frame_field12print_field1Ev
libgmsh.so.4.8:_ZN11Frame_field12print_field2EP7GRegion
libgmsh.so.4.8:_ZN11Frame_field12smoothRegionEP7GRegioni
libgmsh.so.4.8:_ZN11Frame_field13deleteAnnDataEv
libgmsh.so.4.8:_ZN11Frame_field13print_segmentERK7SPoint3S2_ddRSt14basic_ofstreamIcSt11char_traitsIcEE
libgmsh.so.4.8:_ZN11Frame_field14findBarycenterESt23_Rb_tree_const_iteratorISt4pairIKP7MVertexSt3setIS3_St4lessIS3_ESaIS3_EEEER8STensor3
libgmsh.so.4.8:_ZN11Frame_field14saveCrossFieldERKNSt7__cxx1112basic_stringIcSt11char_traitsIcESaIcEEEdb
libgmsh.so.4.8:_ZN11Frame_field15buildSmoothnessEv
libgmsh.so.4.8:_ZN11Frame_field18build_listVerticesEP7GEntityib
libgmsh.so.4.8:_ZN11Frame_field18recur_connect_vertEP8_IO_FILEiP7MVertexR8STensor3RSt8multimapIS3_S3_St4lessIS3_ESaISt4pairIKS3_S3_EEERSt3setIS3_S8_SaIS3_EE
libgmsh.so.4.8:_ZN11Frame_field20continuousCrossFieldEP7GRegionP5GFace
libgmsh.so.4.8:_ZN11Frame_field24build_vertex_to_elementsEP7GEntityb
libgmsh.so.4.8:_ZN11Frame_field24build_vertex_to_verticesEP7GEntityib
libgmsh.so.4.8:_ZN11Frame_field4saveERKSt6vectorISt4pairI7SPoint38STensor3ESaIS4_EERKNSt7__cxx1112basic_stringIcSt11char_traitsIcESaIcEEE
libgmsh.so.4.8:_ZN11Frame_field4testEv
libgmsh.so.4.8:_ZN11Frame_field5clearEv
libgmsh.so.4.8:_ZN11Frame_field6searchEddd
libgmsh.so.4.8:_ZN11Frame_field6smoothEv
libgmsh.so.4.8:_ZN11Frame_field7combineEddd
libgmsh.so.4.8:_ZN11Frame_field8initFaceEP5GFace
libgmsh.so.4.8:_ZN11Frame_field9findCrossEddd
libgmsh.so.4.8:_ZN11Frame_field9init_faceEP5GFace
libgmsh.so.4.8:_ZN11Frame_field9save_distERKNSt7__cxx1112basic_stringIcSt11char_traitsIcESaIcEEE
libgmsh.so.4.8:_ZN11Frame_fieldC1Ev
libgmsh.so.4.8:_ZN11Frame_fieldC2Ev
libgmsh.so.4.8:_ZN11GMSH_Plugin15setDrawFunctionEPFvPvE
libgmsh.so.4.8:_ZN11GMSH_Plugin9serializeB5cxx11Ev
libgmsh.so.4.8:_ZN11HilbertSort15ComputeGrayCodeEi
libgmsh.so.4.8:_ZN11HilbertSort4SortEPP7MVertexiiiddddddi
libgmsh.so.4.8:_ZN11HilbertSort5SplitEPP7MVertexiiidddddd
libgmsh.so.4.8:_ZN11MHexahedron10getEdgeRepEbiPdS0_S0_P8SVector3
libgmsh.so.4.8:_ZN11MHexahedron10getFaceRepEbiPdS0_S0_P8SVector3
libgmsh.so.4.8:_ZN11MHexahedron13getVolumeSignEv
libgmsh.so.4.8:_ZN11MHexahedron14getInnerRadiusEv
libgmsh.so.4.8:_ZN11MHexahedron14getNumFacesRepEb
libgmsh.so.4.8:_ZN11MHexahedron17angleShapeMeasureEv
libgmsh.so.4.8:_ZN11MHexahedron20getIntegrationPointsEiPiPP5IntPt
libgmsh.so.4.8:_ZN11MLineBorder20getIntegrationPointsEiPiPP5IntPt
libgmsh.so.4.8:_ZN11MPolyhedron20getIntegrationPointsEiPiPP5IntPt
libgmsh.so.4.8:_ZN11MPolyhedron5_initEv
libgmsh.so.4.8:_ZN11MQuadrangle10getEdgeRepEbiPdS0_S0_P8SVector3
libgmsh.so.4.8:_ZN11MQuadrangle10getFaceRepEbiPdS0_S0_P8SVector3
libgmsh.so.4.8:_ZN11MQuadrangle14getInnerRadiusEv
libgmsh.so.4.8:_ZN11MQuadrangle14getNumFacesRepEb
libgmsh.so.4.8:_ZN11MQuadrangle14getOuterRadiusEv
libgmsh.so.4.8:_ZN11MQuadrangle15etaShapeMeasureEv
libgmsh.so.4.8:_ZN11MQuadrangle16getHighOrderFaceEiii
libgmsh.so.4.8:_ZN11MQuadrangle17angleShapeMeasureEv
libgmsh.so.4.8:_ZN11MQuadrangle17gammaShapeMeasureEv
libgmsh.so.4.8:_ZN11MQuadrangle20getIntegrationPointsEiPiPP5IntPt
libgmsh.so.4.8:_ZN11MQuadrangle8reorientEib
libgmsh.so.4.8:_ZN11MQuadrangle9getVolumeEv
libgmsh.so.4.8:_ZN11MakeSimplex12numSimplicesEv
libgmsh.so.4.8:_ZN11MakeSimplex15numSimplexNodesEv
libgmsh.so.4.8:_ZN11MakeSimplex7reorderEPiiPdS1_S1_S1_S1_S1_S1_S1_
libgmsh.so.4.8:_ZN11MakeSimplex9decomposeEiPdS0_S0_S0_S0_S0_S0_S0_
libgmsh.so.4.8:_ZN11MakeSimplexC1Eiii
libgmsh.so.4.8:_ZN11MakeSimplexC2Eiii
libgmsh.so.4.8:_ZN11VertexArray10_addNormalEfff
libgmsh.so.4.8:_ZN11VertexArray10_addVertexEfff
libgmsh.so.4.8:_ZN11VertexArray11_addElementEP8MElement
libgmsh.so.4.8:_ZN11VertexArray12decodeHeaderEiPKciRNSt7__cxx1112basic_stringIcSt11char_traitsIcESaIcEEERiS9_RdSA_S9_SA_SA_SA_SA_SA_SA_SA_
libgmsh.so.4.8:_ZN11VertexArray13getMemoryInMbEv
libgmsh.so.4.8:_ZN11VertexArray3addEPdS0_S0_P8SVector3PhS3_S3_S3_P8MElementbb
libgmsh.so.4.8:_ZN11VertexArray3addEPdS0_S0_P8SVector3PjP8MElementbb
libgmsh.so.4.8:_ZN11VertexArray4sortEddd
libgmsh.so.4.8:_ZN11VertexArray5mergeEPS_
libgmsh.so.4.8:_ZN11VertexArray6toCharEiRKNSt7__cxx1112basic_stringIcSt11char_traitsIcESaIcEEEiddidRK14SBoundingBox3dRi
libgmsh.so.4.8:_ZN11VertexArray8finalizeEv
libgmsh.so.4.8:_ZN11VertexArray8fromCharEiPKci
libgmsh.so.4.8:_ZN11VertexArray9_addColorEhhhh
libgmsh.so.4.8:_ZN11VertexArrayC1Eii
libgmsh.so.4.8:_ZN11VertexArrayC2Eii
libgmsh.so.4.8:_ZN11alglib_impl10ae_c_add_dENS_10ae_complexEd
libgmsh.so.4.8:_ZN11alglib_impl10ae_c_d_divEdNS_10ae_complexE
libgmsh.so.4.8:_ZN11alglib_impl10ae_c_d_subEdNS_10ae_complexE
libgmsh.so.4.8:_ZN11alglib_impl10ae_c_div_dENS_10ae_complexEd
libgmsh.so.4.8:_ZN11alglib_impl10ae_c_mul_dENS_10ae_complexEd
libgmsh.so.4.8:_ZN11alglib_impl10ae_c_neq_dENS_10ae_complexEd
libgmsh.so.4.8:_ZN11alglib_impl10ae_c_sub_dENS_10ae_complexEd
libgmsh.so.4.8:_ZN11alglib_impl10ae_db_freeEPNS_12ae_dyn_blockE
libgmsh.so.4.8:_ZN11alglib_impl10ae_db_swapEPNS_12ae_dyn_blockES1_
libgmsh.so.4.8:_ZN11alglib_impl10ae_fp_lessEdd
libgmsh.so.4.8:_ZN11alglib_impl10ae_int2strElPcPNS_8ae_stateE
libgmsh.so.4.8:_ZN11alglib_impl10ae_maxrealEddPNS_8ae_stateE
libgmsh.so.4.8:_ZN11alglib_impl10ae_minrealEddPNS_8ae_stateE
libgmsh.so.4.8:_ZN11alglib_impl10ae_str2intEPKcPNS_8ae_stateEPS1_
libgmsh.so.4.8:_ZN11alglib_impl10ae_v_caddcEPNS_10ae_complexElPKS0_lPKclS0_
libgmsh.so.4.8:_ZN11alglib_impl10ae_v_cadddEPNS_10ae_complexElPKS0_lPKcld
libgmsh.so.4.8:_ZN11alglib_impl10ae_v_cmoveEPNS_10ae_complexElPKS0_lPKcl
libgmsh.so.4.8:_ZN11alglib_impl10ae_v_cmulcEPNS_10ae_complexEllS0_
libgmsh.so.4.8:_ZN11alglib_impl10ae_v_cmuldEPNS_10ae_complexElld
libgmsh.so.4.8:_ZN11alglib_impl10ae_v_csubcEPNS_10ae_complexElPKS0_lPKclS0_
libgmsh.so.4.8:_ZN11alglib_impl10ae_v_csubdEPNS_10ae_complexElPKS0_lPKcld
libgmsh.so.4.8:_ZN11alglib_impl10ae_v_movedEPdlPKdlld
libgmsh.so.4.8:_ZN11alglib_impl10cmatrixdetEPNS_9ae_matrixElPNS_8ae_stateE
libgmsh.so.4.8:_ZN11alglib_impl10cmatrixlupEPNS_9ae_matrixEllPNS_9ae_vectorEPNS_8ae_stateE
libgmsh.so.4.8:_ZN11alglib_impl10cmatrixmvfEllPNS_9ae_matrixElllPNS_9ae_vectorElS3_lPNS_8ae_stateE
libgmsh.so.4.8:_ZN11alglib_impl10cmatrixpluEPNS_9ae_matrixEllPNS_9ae_vectorEPNS_8ae_stateE
libgmsh.so.4.8:_ZN11alglib_impl10copymatrixEPNS_9ae_matrixEllllS1_llllPNS_8ae_stateE
libgmsh.so.4.8:_ZN11alglib_impl10hmatrixevdEPNS_9ae_matrixEllbPNS_9ae_vectorES1_PNS_8ae_stateE
libgmsh.so.4.8:_ZN11alglib_impl10hqrndunit2EPNS_10hqrndstateEPdS2_PNS_8ae_stateE
libgmsh.so.4.8:_ZN11alglib_impl10minlmsetbcEPNS_10minlmstateEPNS_9ae_vectorES3_PNS_8ae_stateE
libgmsh.so.4.8:_ZN11alglib_impl10minqpsetbcEPNS_10minqpstateEPNS_9ae_vectorES3_PNS_8ae_stateE
libgmsh.so.4.8:_ZN11alglib_impl10rmatrixdetEPNS_9ae_matrixElPNS_8ae_stateE
libgmsh.so.4.8:_ZN11alglib_impl10rmatrixevdEPNS_9ae_matrixEllPNS_9ae_vectorES3_S1_S1_PNS_8ae_stateE
libgmsh.so.4.8:_ZN11alglib_impl10rmatrixlupEPNS_9ae_matrixEllPNS_9ae_vectorEPNS_8ae_stateE
libgmsh.so.4.8:_ZN11alglib_impl10rmatrixmvfEllPNS_9ae_matrixElllPNS_9ae_vectorElS3_lPNS_8ae_stateE
libgmsh.so.4.8:_ZN11alglib_impl10rmatrixpluEPNS_9ae_matrixEllPNS_9ae_vectorEPNS_8ae_stateE
libgmsh.so.4.8:_ZN11alglib_impl10rmatrixsvdEPNS_9ae_matrixElllllPNS_9ae_vectorES1_S1_PNS_8ae_stateE
libgmsh.so.4.8:_ZN11alglib_impl10smatrixevdEPNS_9ae_matrixEllbPNS_9ae_vectorES1_PNS_8ae_stateE
libgmsh.so.4.8:_ZN11alglib_impl10tagsortbufEPNS_9ae_vectorElS1_S1_PNS_9apbuffersEPNS_8ae_stateE
libgmsh.so.4.8:_ZN11alglib_impl11ae_bool2strEbPcPNS_8ae_stateE
libgmsh.so.4.8:_ZN11alglib_impl11ae_isfiniteEdPNS_8ae_stateE
libgmsh.so.4.8:_ZN11alglib_impl11ae_isneginfEdPNS_8ae_stateE
libgmsh.so.4.8:_ZN11alglib_impl11ae_isposinfEdPNS_8ae_stateE
libgmsh.so.4.8:_ZN11alglib_impl11ae_str2boolEPKcPNS_8ae_stateEPS1_
libgmsh.so.4.8:_ZN11alglib_impl11ae_v_cmovecEPNS_10ae_complexElPKS0_lPKclS0_
libgmsh.so.4.8:_ZN11alglib_impl11ae_v_cmovedEPNS_10ae_complexElPKS0_lPKcld
libgmsh.so.4.8:_ZN11alglib_impl11aredistinctEPNS_9ae_vectorElPNS_8ae_stateE
libgmsh.so.4.8:_ZN11alglib_impl11cmatrixcopyEllPNS_9ae_matrixEllS1_llPNS_8ae_stateE
libgmsh.so.4.8:_ZN11alglib_impl11cmatrixgemmElllNS_10ae_complexEPNS_9ae_matrixElllS2_lllS0_S2_llPNS_8ae_stateE
libgmsh.so.4.8:_ZN11alglib_impl11cmatrixsyrkElldPNS_9ae_matrixEllldS1_llbPNS_8ae_stateE
libgmsh.so.4.8:_ZN11alglib_impl11hmatrixevdiEPNS_9ae_matrixEllbllPNS_9ae_vectorES1_PNS_8ae_stateE
libgmsh.so.4.8:_ZN11alglib_impl11hmatrixevdrEPNS_9ae_matrixEllbddPlPNS_9ae_vectorES1_PNS_8ae_stateE
libgmsh.so.4.8:_ZN11alglib_impl11hqrndnormalEPNS_10hqrndstateEPNS_8ae_stateE
libgmsh.so.4.8:_ZN11alglib_impl11kdtreeallocEPNS_13ae_serializerEPNS_6kdtreeEPNS_8ae_stateE
libgmsh.so.4.8:_ZN11alglib_impl11kdtreebuildEPNS_9ae_matrixEllllPNS_6kdtreeEPNS_8ae_stateE
libgmsh.so.4.8:_ZN11alglib_impl11mincgcreateElPNS_9ae_vectorEPNS_10mincgstateEPNS_8ae_stateE
libgmsh.so.4.8:_ZN11alglib_impl11minqpcreateElPNS_10minqpstateEPNS_8ae_stateE
libgmsh.so.4.8:_ZN11alglib_impl11nleqresultsEPNS_9nleqstateEPNS_9ae_vectorEPNS_10nleqreportEPNS_8ae_stateE
libgmsh.so.4.8:_ZN11alglib_impl11nleqsetcondEPNS_9nleqstateEdlPNS_8ae_stateE
libgmsh.so.4.8:_ZN11alglib_impl11nleqsetxrepEPNS_9nleqstateEbPNS_8ae_stateE
libgmsh.so.4.8:_ZN11alglib_impl11rmatrixcopyEllPNS_9ae_matrixEllS1_llPNS_8ae_stateE
libgmsh.so.4.8:_ZN11alglib_impl11rmatrixgemmEllldPNS_9ae_matrixElllS1_llldS1_llPNS_8ae_stateE
libgmsh.so.4.8:_ZN11alglib_impl11rmatrixsyrkElldPNS_9ae_matrixEllldS1_llbPNS_8ae_stateE
libgmsh.so.4.8:_ZN11alglib_impl11safepythag2EddPNS_8ae_stateE
libgmsh.so.4.8:_ZN11alglib_impl11safepythag3EdddPNS_8ae_stateE
libgmsh.so.4.8:_ZN11alglib_impl11smatrixevdiEPNS_9ae_matrixEllbllPNS_9ae_vectorES1_PNS_8ae_stateE
libgmsh.so.4.8:_ZN11alglib_impl11smatrixevdrEPNS_9ae_matrixEllbddPlPNS_9ae_vectorES1_PNS_8ae_stateE
libgmsh.so.4.8:_ZN11alglib_impl11smatrixgevdEPNS_9ae_matrixElbS1_bllPNS_9ae_vectorES1_PNS_8ae_stateE
libgmsh.so.4.8:_ZN11alglib_impl11tagheappopiEPNS_9ae_vectorES1_PlPNS_8ae_stateE
libgmsh.so.4.8:_ZN11alglib_impl11tagsortfastEPNS_9ae_vectorES1_lPNS_8ae_stateE
libgmsh.so.4.8:_ZN11alglib_impl11trimprepareEdPdPNS_8ae_stateE
libgmsh.so.4.8:_ZN11alglib_impl11vectornorm2EPNS_9ae_vectorEllPNS_8ae_stateE
libgmsh.so.4.8:_ZN11alglib_impl12_ftplan_initEPNS_6ftplanEPNS_8ae_stateEb
libgmsh.so.4.8:_ZN11alglib_impl12_ialglib_cmvEllPKdS1_PNS_10ae_complexEPdlS2_S2_
libgmsh.so.4.8:_ZN11alglib_impl12_ialglib_rmvEllPKdS1_Pdldd
libgmsh.so.4.8:_ZN11alglib_impl12_kdtree_initEPNS_6kdtreeEPNS_8ae_stateEb
libgmsh.so.4.8:_ZN11alglib_impl12ae_db_attachEPNS_12ae_dyn_blockEPNS_8ae_stateE
libgmsh.so.4.8:_ZN11alglib_impl12ae_db_mallocEPNS_12ae_dyn_blockElPNS_8ae_stateEb
libgmsh.so.4.8:_ZN11alglib_impl12ae_v_movenegEPdlPKdll
libgmsh.so.4.8:_ZN11alglib_impl12aligned_freeEPv
libgmsh.so.4.8:_ZN11alglib_impl12alloccomplexEPNS_13ae_serializerENS_10ae_complexEPNS_8ae_stateE
libgmsh.so.4.8:_ZN11alglib_impl12armijocreateElPNS_9ae_vectorEdS1_ddlPNS_11armijostateEPNS_8ae_stateE
libgmsh.so.4.8:_ZN11alglib_impl12cmatrixgemmfElllNS_10ae_complexEPNS_9ae_matrixElllS2_lllS0_S2_llPNS_8ae_stateE
libgmsh.so.4.8:_ZN11alglib_impl12cmatrixludetEPNS_9ae_matrixEPNS_9ae_vectorElPNS_8ae_stateE
libgmsh.so.4.8:_ZN11alglib_impl12cmatrixrank1EllPNS_9ae_matrixEllPNS_9ae_vectorElS3_lPNS_8ae_stateE
libgmsh.so.4.8:_ZN11alglib_impl12cmatrixsolveEPNS_9ae_matrixElPNS_9ae_vectorEPlPNS_17densesolverreportES3_PNS_8ae_stateE
libgmsh.so.4.8:_ZN11alglib_impl12cmatrixsyrkfElldPNS_9ae_matrixEllldS1_llbPNS_8ae_stateE
libgmsh.so.4.8:_ZN11alglib_impl12fblscgcreateEPNS_9ae_vectorES1_lPNS_14fblslincgstateEPNS_8ae_stateE
libgmsh.so.4.8:_ZN11alglib_impl12fblssolvecgxEPNS_9ae_matrixElldPNS_9ae_vectorES3_S3_PNS_8ae_stateE
libgmsh.so.4.8:_ZN11alglib_impl12hqrndnormal2EPNS_10hqrndstateEPdS2_PNS_8ae_stateE
libgmsh.so.4.8:_ZN11alglib_impl12minasacreateElPNS_9ae_vectorES1_S1_PNS_11minasastateEPNS_8ae_stateE
libgmsh.so.4.8:_ZN11alglib_impl12mincgcreatefElPNS_9ae_vectorEdPNS_10mincgstateEPNS_8ae_stateE
libgmsh.so.4.8:_ZN11alglib_impl12mincgresultsEPNS_10mincgstateEPNS_9ae_vectorEPNS_11mincgreportEPNS_8ae_stateE
libgmsh.so.4.8:_ZN11alglib_impl12mincgsetcondEPNS_10mincgstateEdddlPNS_8ae_stateE
libgmsh.so.4.8:_ZN11alglib_impl12mincgsetdrepEPNS_10mincgstateEbPNS_8ae_stateE
libgmsh.so.4.8:_ZN11alglib_impl12mincgsetxrepEPNS_10mincgstateEbPNS_8ae_stateE
libgmsh.so.4.8:_ZN11alglib_impl12minlmcreatevEllPNS_9ae_vectorEdPNS_10minlmstateEPNS_8ae_stateE
libgmsh.so.4.8:_ZN11alglib_impl12minlmresultsEPNS_10minlmstateEPNS_9ae_vectorEPNS_11minlmreportEPNS_8ae_stateE
libgmsh.so.4.8:_ZN11alglib_impl12minlmsetcondEPNS_10minlmstateEdddlPNS_8ae_stateE
libgmsh.so.4.8:_ZN11alglib_impl12minlmsetxrepEPNS_10minlmstateEbPNS_8ae_stateE
libgmsh.so.4.8:_ZN11alglib_impl12minqpresultsEPNS_10minqpstateEPNS_9ae_vectorEPNS_11minqpreportEPNS_8ae_stateE
libgmsh.so.4.8:_ZN11alglib_impl12nleqcreatelmEllPNS_9ae_vectorEPNS_9nleqstateEPNS_8ae_stateE
libgmsh.so.4.8:_ZN11alglib_impl12rmatrixbdsvdEPNS_9ae_vectorES1_lbbPNS_9ae_matrixElS3_lS3_lPNS_8ae_stateE
libgmsh.so.4.8:_ZN11alglib_impl12rmatrixgemmfEllldPNS_9ae_matrixElllS1_llldS1_llPNS_8ae_stateE
libgmsh.so.4.8:_ZN11alglib_impl12rmatrixludetEPNS_9ae_matrixEPNS_9ae_vectorElPNS_8ae_stateE
libgmsh.so.4.8:_ZN11alglib_impl12rmatrixrank1EllPNS_9ae_matrixEllPNS_9ae_vectorElS3_lPNS_8ae_stateE
libgmsh.so.4.8:_ZN11alglib_impl12rmatrixschurEPNS_9ae_matrixElS1_PNS_8ae_stateE
libgmsh.so.4.8:_ZN11alglib_impl12rmatrixsolveEPNS_9ae_matrixElPNS_9ae_vectorEPlPNS_17densesolverreportES3_PNS_8ae_stateE
libgmsh.so.4.8:_ZN11alglib_impl12rmatrixsyrkfElldPNS_9ae_matrixEllldS1_llbPNS_8ae_stateE
libgmsh.so.4.8:_ZN11alglib_impl12rowidxabsmaxEPNS_9ae_matrixElllPNS_8ae_stateE
libgmsh.so.4.8:_ZN11alglib_impl12safeminposrvEdddPNS_8ae_stateE
libgmsh.so.4.8:_ZN11alglib_impl12smatrixtdevdEPNS_9ae_vectorES1_llPNS_9ae_matrixEPNS_8ae_stateE
libgmsh.so.4.8:_ZN11alglib_impl12spdmatrixdetEPNS_9ae_matrixElbPNS_8ae_stateE
libgmsh.so.4.8:_ZN11alglib_impl12tagheappushiEPNS_9ae_vectorES1_PldlPNS_8ae_stateE
libgmsh.so.4.8:_ZN11alglib_impl12tagsortfastiEPNS_9ae_vectorES1_S1_S1_lPNS_8ae_stateE
libgmsh.so.4.8:_ZN11alglib_impl12tagsortfastrEPNS_9ae_vectorES1_S1_S1_lPNS_8ae_stateE
libgmsh.so.4.8:_ZN11alglib_impl12taskgenint1dEddlPNS_9ae_vectorES1_PNS_8ae_stateE
libgmsh.so.4.8:_ZN11alglib_impl12trimfunctionEPdPNS_9ae_vectorEldPNS_8ae_stateE
libgmsh.so.4.8:_ZN11alglib_impl13_ftplan_clearEPNS_6ftplanE
libgmsh.so.4.8:_ZN11alglib_impl13_ialglib_mm22EdPKdS1_ldPdll
libgmsh.so.4.8:_ZN11alglib_impl13_kdtree_clearEPNS_6kdtreeE
libgmsh.so.4.8:_ZN11alglib_impl13ae_db_reallocEPNS_12ae_dyn_blockElPNS_8ae_stateE
libgmsh.so.4.8:_ZN11alglib_impl13ae_double2strEdPcPNS_8ae_stateE
libgmsh.so.4.8:_ZN11alglib_impl13ae_fp_greaterEdd
libgmsh.so.4.8:_ZN11alglib_impl13ae_fp_less_eqEdd
libgmsh.so.4.8:_ZN11alglib_impl13ae_frame_makeEPNS_8ae_stateEPNS_8ae_frameE
libgmsh.so.4.8:_ZN11alglib_impl13ae_randomrealEPNS_8ae_stateE
libgmsh.so.4.8:_ZN11alglib_impl13ae_state_initEPNS_8ae_stateE
libgmsh.so.4.8:_ZN11alglib_impl13ae_str2doubleEPKcPNS_8ae_stateEPS1_
libgmsh.so.4.8:_ZN11alglib_impl13ae_v_cmovenegEPNS_10ae_complexElPKS0_lPKcl
libgmsh.so.4.8:_ZN11alglib_impl13apperiodicmapEPdddS0_PNS_8ae_stateE
libgmsh.so.4.8:_ZN11alglib_impl13armijoresultsEPNS_11armijostateEPlPdS3_PNS_8ae_stateE
libgmsh.so.4.8:_ZN11alglib_impl13cmatrixrank1fEllPNS_9ae_matrixEllPNS_9ae_vectorElS3_lPNS_8ae_stateE
libgmsh.so.4.8:_ZN11alglib_impl13cmatrixrcond1EPNS_9ae_matrixElPNS_8ae_stateE
libgmsh.so.4.8:_ZN11alglib_impl13cmatrixsolvemEPNS_9ae_matrixElS1_lbPlPNS_17densesolverreportES1_PNS_8ae_stateE
libgmsh.so.4.8:_ZN11alglib_impl13copyrealarrayEPNS_9ae_vectorES1_PNS_8ae_stateE
libgmsh.so.4.8:_ZN11alglib_impl13hqrnduniformiEPNS_10hqrndstateElPNS_8ae_stateE
libgmsh.so.4.8:_ZN11alglib_impl13hqrnduniformrEPNS_10hqrndstateEPNS_8ae_stateE
libgmsh.so.4.8:_ZN11alglib_impl13minasaresultsEPNS_11minasastateEPNS_9ae_vectorEPNS_12minasareportEPNS_8ae_stateE
libgmsh.so.4.8:_ZN11alglib_impl13minasasetcondEPNS_11minasastateEdddlPNS_8ae_stateE
libgmsh.so.4.8:_ZN11alglib_impl13minasasetxrepEPNS_11minasastateEbPNS_8ae_stateE
libgmsh.so.4.8:_ZN11alglib_impl13minbleicsetbcEPNS_13minbleicstateEPNS_9ae_vectorES3_PNS_8ae_stateE
libgmsh.so.4.8:_ZN11alglib_impl13minbleicsetlcEPNS_13minbleicstateEPNS_9ae_matrixEPNS_9ae_vectorElPNS_8ae_stateE
libgmsh.so.4.8:_ZN11alglib_impl13mincgsetscaleEPNS_10mincgstateEPNS_9ae_vectorEPNS_8ae_stateE
libgmsh.so.4.8:_ZN11alglib_impl13minlmcreatefjEllPNS_9ae_vectorEPNS_10minlmstateEPNS_8ae_stateE
libgmsh.so.4.8:_ZN11alglib_impl13minlmcreatevjEllPNS_9ae_vectorEPNS_10minlmstateEPNS_8ae_stateE
libgmsh.so.4.8:_ZN11alglib_impl13minlmsetscaleEPNS_10minlmstateEPNS_9ae_vectorEPNS_8ae_stateE
libgmsh.so.4.8:_ZN11alglib_impl13minqpoptimizeEPNS_10minqpstateEPNS_8ae_stateE
libgmsh.so.4.8:_ZN11alglib_impl13nleqiterationEPNS_9nleqstateEPNS_8ae_stateE
libgmsh.so.4.8:_ZN11alglib_impl13nleqsetstpmaxEPNS_9nleqstateEdPNS_8ae_stateE
libgmsh.so.4.8:_ZN11alglib_impl13rmatrixrank1fEllPNS_9ae_matrixEllPNS_9ae_vectorElS3_lPNS_8ae_stateE
libgmsh.so.4.8:_ZN11alglib_impl13rmatrixrcond1EPNS_9ae_matrixElPNS_8ae_stateE
libgmsh.so.4.8:_ZN11alglib_impl13rmatrixresizeEPNS_9ae_matrixEllPNS_8ae_stateE
libgmsh.so.4.8:_ZN11alglib_impl13rmatrixsolvemEPNS_9ae_matrixElS1_lbPlPNS_17densesolverreportES1_PNS_8ae_stateE
libgmsh.so.4.8:_ZN11alglib_impl13smatrixtdevdiEPNS_9ae_vectorES1_llllPNS_9ae_matrixEPNS_8ae_stateE
libgmsh.so.4.8:_ZN11alglib_impl13smatrixtdevdrEPNS_9ae_vectorES1_llddPlPNS_9ae_matrixEPNS_8ae_stateE
libgmsh.so.4.8:_ZN11alglib_impl14_ialglib_mv_32EPKdS1_Pdldd
libgmsh.so.4.8:_ZN11alglib_impl14_ialglib_vcopyElPKdlPdl
libgmsh.so.4.8:_ZN11alglib_impl14_ialglib_vzeroElPdl
libgmsh.so.4.8:_ZN11alglib_impl14ablasblocksizeEPNS_9ae_matrixEPNS_8ae_stateE
libgmsh.so.4.8:_ZN11alglib_impl14ae_frame_leaveEPNS_8ae_stateE
libgmsh.so.4.8:_ZN11alglib_impl14ae_matrix_initEPNS_9ae_matrixElllPNS_8ae_stateEb
libgmsh.so.4.8:_ZN11alglib_impl14ae_state_clearEPNS_8ae_stateE
libgmsh.so.4.8:_ZN11alglib_impl14ae_vector_initEPNS_9ae_vectorEllPNS_8ae_stateEb
libgmsh.so.4.8:_ZN11alglib_impl14aligned_mallocEmm
libgmsh.so.4.8:_ZN11alglib_impl14allocrealarrayEPNS_13ae_serializerEPNS_9ae_vectorElPNS_8ae_stateE
libgmsh.so.4.8:_ZN11alglib_impl14cmatrixinverseEPNS_9ae_matrixElPlPNS_12matinvreportEPNS_8ae_stateE
libgmsh.so.4.8:_ZN11alglib_impl14cmatrixlusolveEPNS_9ae_matrixEPNS_9ae_vectorElS3_PlPNS_17densesolverreportES3_PNS_8ae_stateE
libgmsh.so.4.8:_ZN11alglib_impl14cmatrixrndcondEldPNS_9ae_matrixEPNS_8ae_stateE
libgmsh.so.4.8:_ZN11alglib_impl14copyrealmatrixEPNS_9ae_matrixES1_PNS_8ae_stateE
libgmsh.so.4.8:_ZN11alglib_impl14ftbaseissmoothElPNS_8ae_stateE
libgmsh.so.4.8:_ZN11alglib_impl14hmatrixrndcondEldPNS_9ae_matrixEPNS_8ae_stateE
libgmsh.so.4.8:_ZN11alglib_impl14hpdmatrixrcondEPNS_9ae_matrixElbPNS_8ae_stateE
libgmsh.so.4.8:_ZN11alglib_impl14hpdmatrixsolveEPNS_9ae_matrixElbPNS_9ae_vectorEPlPNS_17densesolverreportES3_PNS_8ae_stateE
libgmsh.so.4.8:_ZN11alglib_impl14hqrndrandomizeEPNS_10hqrndstateEPNS_8ae_stateE
libgmsh.so.4.8:_ZN11alglib_impl14isfinitevectorEPNS_9ae_vectorElPNS_8ae_stateE
libgmsh.so.4.8:_ZN11alglib_impl14kdtreequeryknnEPNS_6kdtreeEPNS_9ae_vectorElbPNS_8ae_stateE
libgmsh.so.4.8:_ZN11alglib_impl14kdtreequeryrnnEPNS_6kdtreeEPNS_9ae_vectorEdbPNS_8ae_stateE
libgmsh.so.4.8:_ZN11alglib_impl14minbleiccreateElPNS_9ae_vectorEPNS_13minbleicstateEPNS_8ae_stateE
libgmsh.so.4.8:_ZN11alglib_impl14mincgiterationEPNS_10mincgstateEPNS_8ae_stateE
libgmsh.so.4.8:_ZN11alglib_impl14mincgsetcgtypeEPNS_10mincgstateElPNS_8ae_stateE
libgmsh.so.4.8:_ZN11alglib_impl14mincgsetstpmaxEPNS_10mincgstateEdPNS_8ae_stateE
libgmsh.so.4.8:_ZN11alglib_impl14minlbfgscreateEllPNS_9ae_vectorEPNS_13minlbfgsstateEPNS_8ae_stateE
libgmsh.so.4.8:_ZN11alglib_impl14minlmcreatefghElPNS_9ae_vectorEPNS_10minlmstateEPNS_8ae_stateE
libgmsh.so.4.8:_ZN11alglib_impl14minlmcreatefgjEllPNS_9ae_vectorEPNS_10minlmstateEPNS_8ae_stateE
libgmsh.so.4.8:_ZN11alglib_impl14minlmcreatevgjEllPNS_9ae_vectorEPNS_10minlmstateEPNS_8ae_stateE
libgmsh.so.4.8:_ZN11alglib_impl14minlmiterationEPNS_10minlmstateEPNS_8ae_stateE
libgmsh.so.4.8:_ZN11alglib_impl14minlmsetstpmaxEPNS_10minlmstateEdPNS_8ae_stateE
libgmsh.so.4.8:_ZN11alglib_impl14minqpsetoriginEPNS_10minqpstateEPNS_9ae_vectorEPNS_8ae_stateE
libgmsh.so.4.8:_ZN11alglib_impl14nleqresultsbufEPNS_9nleqstateEPNS_9ae_vectorEPNS_10nleqreportEPNS_8ae_stateE
libgmsh.so.4.8:_ZN11alglib_impl14rcondthresholdEPNS_8ae_stateE
libgmsh.so.4.8:_ZN11alglib_impl14rmatrixinverseEPNS_9ae_matrixElPlPNS_12matinvreportEPNS_8ae_stateE
libgmsh.so.4.8:_ZN11alglib_impl14rmatrixlusolveEPNS_9ae_matrixEPNS_9ae_vectorElS3_PlPNS_17densesolverreportES3_PNS_8ae_stateE
libgmsh.so.4.8:_ZN11alglib_impl14rmatrixrndcondEldPNS_9ae_matrixEPNS_8ae_stateE
libgmsh.so.4.8:_ZN11alglib_impl14rmatrixsolvelsEPNS_9ae_matrixEllPNS_9ae_vectorEdPlPNS_19densesolverlsreportES3_PNS_8ae_stateE
libgmsh.so.4.8:_ZN11alglib_impl14smatrixrndcondEldPNS_9ae_matrixEPNS_8ae_stateE
libgmsh.so.4.8:_ZN11alglib_impl14spdmatrixrcondEPNS_9ae_matrixElbPNS_8ae_stateE
libgmsh.so.4.8:_ZN11alglib_impl14spdmatrixsolveEPNS_9ae_matrixElbPNS_9ae_vectorEPlPNS_17densesolverreportES3_PNS_8ae_stateE
libgmsh.so.4.8:_ZN11alglib_impl14x_is_hermitianEPNS_8x_matrixE
libgmsh.so.4.8:_ZN11alglib_impl14x_is_symmetricEPNS_8x_matrixE
libgmsh.so.4.8:_ZN11alglib_impl14x_vector_clearEPNS_8x_vectorE
libgmsh.so.4.8:_ZN11alglib_impl15_apbuffers_initEPNS_9apbuffersEPNS_8ae_stateEb
libgmsh.so.4.8:_ZN11alglib_impl15_ialglib_mm22x2EdPKdS1_S1_ldPdl
libgmsh.so.4.8:_ZN11alglib_impl15_nleqstate_initEPNS_9nleqstateEPNS_8ae_stateEb
libgmsh.so.4.8:_ZN11alglib_impl15ae_char2sixbitsEc
libgmsh.so.4.8:_ZN11alglib_impl15ae_is_hermitianEPNS_9ae_matrixE
libgmsh.so.4.8:_ZN11alglib_impl15ae_is_symmetricEPNS_9ae_matrixE
libgmsh.so.4.8:_ZN11alglib_impl15ae_matrix_clearEPNS_9ae_matrixE
libgmsh.so.4.8:_ZN11alglib_impl15ae_misalignmentEPKvm
libgmsh.so.4.8:_ZN11alglib_impl15ae_sixbits2charEl
libgmsh.so.4.8:_ZN11alglib_impl15ae_swap_vectorsEPNS_9ae_vectorES1_
libgmsh.so.4.8:_ZN11alglib_impl15ae_v_dotproductEPKdlS1_ll
libgmsh.so.4.8:_ZN11alglib_impl15ae_vector_clearEPNS_9ae_vectorE
libgmsh.so.4.8:_ZN11alglib_impl15ae_x_set_matrixEPNS_8x_matrixEPNS_9ae_matrixEPNS_8ae_stateE
libgmsh.so.4.8:_ZN11alglib_impl15ae_x_set_vectorEPNS_8x_vectorEPNS_9ae_vectorEPNS_8ae_stateE
libgmsh.so.4.8:_ZN11alglib_impl15allocrealmatrixEPNS_13ae_serializerEPNS_9ae_matrixEllPNS_8ae_stateE
libgmsh.so.4.8:_ZN11alglib_impl15armijoiterationEPNS_11armijostateEPNS_8ae_stateE
libgmsh.so.4.8:_ZN11alglib_impl15cmatrixlefttrsmEllPNS_9ae_matrixEllbblS1_llPNS_8ae_stateE
libgmsh.so.4.8:_ZN11alglib_impl15cmatrixlurcond1EPNS_9ae_matrixElPNS_8ae_stateE
libgmsh.so.4.8:_ZN11alglib_impl15cmatrixlusolvemEPNS_9ae_matrixEPNS_9ae_vectorElS1_lPlPNS_17densesolverreportES1_PNS_8ae_stateE
libgmsh.so.4.8:_ZN11alglib_impl15cmatrixrcondinfEPNS_9ae_matrixElPNS_8ae_stateE
libgmsh.so.4.8:_ZN11alglib_impl15cmatrixtrrcond1EPNS_9ae_matrixElbbPNS_8ae_stateE
libgmsh.so.4.8:_ZN11alglib_impl15columnidxabsmaxEPNS_9ae_matrixElllPNS_8ae_stateE
libgmsh.so.4.8:_ZN11alglib_impl15fblscgiterationEPNS_14fblslincgstateEPNS_8ae_stateE
libgmsh.so.4.8:_ZN11alglib_impl15ftbasefactorizeEllPlS0_PNS_8ae_stateE
libgmsh.so.4.8:_ZN11alglib_impl15hpdmatrixsolvemEPNS_9ae_matrixElbS1_lPlPNS_17densesolverreportES1_PNS_8ae_stateE
libgmsh.so.4.8:_ZN11alglib_impl15isfinitecvectorEPNS_9ae_vectorElPNS_8ae_stateE
libgmsh.so.4.8:_ZN11alglib_impl15kdtreequeryaknnEPNS_6kdtreeEPNS_9ae_vectorElbdPNS_8ae_stateE
libgmsh.so.4.8:_ZN11alglib_impl15kdtreeserializeEPNS_13ae_serializerEPNS_6kdtreeEPNS_8ae_stateE
libgmsh.so.4.8:_ZN11alglib_impl15minasaiterationEPNS_11minasastateEPNS_8ae_stateE
libgmsh.so.4.8:_ZN11alglib_impl15minasasetstpmaxEPNS_11minasastateEdPNS_8ae_stateE
libgmsh.so.4.8:_ZN11alglib_impl15minbleiccreatefElPNS_9ae_vectorEdPNS_13minbleicstateEPNS_8ae_stateE
libgmsh.so.4.8:_ZN11alglib_impl15minbleicresultsEPNS_13minbleicstateEPNS_9ae_vectorEPNS_14minbleicreportEPNS_8ae_stateE
libgmsh.so.4.8:_ZN11alglib_impl15minbleicsetxrepEPNS_13minbleicstateEbPNS_8ae_stateE
libgmsh.so.4.8:_ZN11alglib_impl15mincgresultsbufEPNS_10mincgstateEPNS_9ae_vectorEPNS_11mincgreportEPNS_8ae_stateE
libgmsh.so.4.8:_ZN11alglib_impl15minlbfgscreatefEllPNS_9ae_vectorEdPNS_13minlbfgsstateEPNS_8ae_stateE
libgmsh.so.4.8:_ZN11alglib_impl15minlbfgscreatexEllPNS_9ae_vectorEldPNS_13minlbfgsstateEPNS_8ae_stateE
libgmsh.so.4.8:_ZN11alglib_impl15minlbfgsresultsEPNS_13minlbfgsstateEPNS_9ae_vectorEPNS_14minlbfgsreportEPNS_8ae_stateE
libgmsh.so.4.8:_ZN11alglib_impl15minlbfgssetcondEPNS_13minlbfgsstateEdddlPNS_8ae_stateE
libgmsh.so.4.8:_ZN11alglib_impl15minlbfgssetxrepEPNS_13minlbfgsstateEbPNS_8ae_stateE
libgmsh.so.4.8:_ZN11alglib_impl15minlmresultsbufEPNS_10minlmstateEPNS_9ae_vectorEPNS_11minlmreportEPNS_8ae_stateE
libgmsh.so.4.8:_ZN11alglib_impl15minlmsetacctypeEPNS_10minlmstateElPNS_8ae_stateE
libgmsh.so.4.8:_ZN11alglib_impl15minqpresultsbufEPNS_10minqpstateEPNS_9ae_vectorEPNS_11minqpreportEPNS_8ae_stateE
libgmsh.so.4.8:_ZN11alglib_impl15nleqrestartfromEPNS_9nleqstateEPNS_9ae_vectorEPNS_8ae_stateE
libgmsh.so.4.8:_ZN11alglib_impl15rmatrixlefttrsmEllPNS_9ae_matrixEllbblS1_llPNS_8ae_stateE
libgmsh.so.4.8:_ZN11alglib_impl15rmatrixlurcond1EPNS_9ae_matrixElPNS_8ae_stateE
libgmsh.so.4.8:_ZN11alglib_impl15rmatrixlusolvemEPNS_9ae_matrixEPNS_9ae_vectorElS1_lPlPNS_17densesolverreportES1_PNS_8ae_stateE
libgmsh.so.4.8:_ZN11alglib_impl15rmatrixrcondinfEPNS_9ae_matrixElPNS_8ae_stateE
libgmsh.so.4.8:_ZN11alglib_impl15rmatrixtrrcond1EPNS_9ae_matrixElbbPNS_8ae_stateE
libgmsh.so.4.8:_ZN11alglib_impl15spdmatrixsolvemEPNS_9ae_matrixElbS1_lPlPNS_17densesolverreportES1_PNS_8ae_stateE
libgmsh.so.4.8:_ZN11alglib_impl15vectoridxabsmaxEPNS_9ae_vectorEllPNS_8ae_stateE
libgmsh.so.4.8:_ZN11alglib_impl16_apbuffers_clearEPNS_9apbuffersE
libgmsh.so.4.8:_ZN11alglib_impl16_hqrndstate_initEPNS_10hqrndstateEPNS_8ae_stateEb
libgmsh.so.4.8:_ZN11alglib_impl16_ialglib_pack_n2EPdS0_llS0_
libgmsh.so.4.8:_ZN11alglib_impl16_mincgstate_initEPNS_10mincgstateEPNS_8ae_stateEb
libgmsh.so.4.8:_ZN11alglib_impl16_minlmstate_initEPNS_10minlmstateEPNS_8ae_stateEb
libgmsh.so.4.8:_ZN11alglib_impl16_minqpstate_initEPNS_10minqpstateEPNS_8ae_stateEb
libgmsh.so.4.8:_ZN11alglib_impl16_nleqreport_initEPNS_10nleqreportEPNS_8ae_stateEb
libgmsh.so.4.8:_ZN11alglib_impl16_nleqstate_clearEPNS_9nleqstateE
libgmsh.so.4.8:_ZN11alglib_impl16_rcommstate_initEPNS_10rcommstateEPNS_8ae_stateEb
libgmsh.so.4.8:_ZN11alglib_impl16ablassplitlengthEPNS_9ae_matrixElPlS2_PNS_8ae_stateE
libgmsh.so.4.8:_ZN11alglib_impl16ae_fp_greater_eqEdd
libgmsh.so.4.8:_ZN11alglib_impl16ae_randomintegerElPNS_8ae_stateE
libgmsh.so.4.8:_ZN11alglib_impl16ae_swap_matricesEPNS_9ae_matrixES1_
libgmsh.so.4.8:_ZN11alglib_impl16ae_v_cdotproductEPKNS_10ae_complexElPKcS2_lS4_l
libgmsh.so.4.8:_ZN11alglib_impl16cmatrixlefttrsmfEllPNS_9ae_matrixEllbblS1_llPNS_8ae_stateE
libgmsh.so.4.8:_ZN11alglib_impl16cmatrixlqunpacklEPNS_9ae_matrixEllS1_PNS_8ae_stateE
libgmsh.so.4.8:_ZN11alglib_impl16cmatrixlqunpackqEPNS_9ae_matrixEllPNS_9ae_vectorElS1_PNS_8ae_stateE
libgmsh.so.4.8:_ZN11alglib_impl16cmatrixluinverseEPNS_9ae_matrixEPNS_9ae_vectorElPlPNS_12matinvreportEPNS_8ae_stateE
libgmsh.so.4.8:_ZN11alglib_impl16cmatrixqrunpackqEPNS_9ae_matrixEllPNS_9ae_vectorElS1_PNS_8ae_stateE
libgmsh.so.4.8:_ZN11alglib_impl16cmatrixqrunpackrEPNS_9ae_matrixEllS1_PNS_8ae_stateE
libgmsh.so.4.8:_ZN11alglib_impl16cmatrixrighttrsmEllPNS_9ae_matrixEllbblS1_llPNS_8ae_stateE
libgmsh.so.4.8:_ZN11alglib_impl16cmatrixtransposeEllPNS_9ae_matrixEllS1_llPNS_8ae_stateE
libgmsh.so.4.8:_ZN11alglib_impl16cmatrixtrinverseEPNS_9ae_matrixElbbPlPNS_12matinvreportEPNS_8ae_stateE
libgmsh.so.4.8:_ZN11alglib_impl16copyandtransposeEPNS_9ae_matrixEllllS1_llllPNS_8ae_stateE
libgmsh.so.4.8:_ZN11alglib_impl16copyintegerarrayEPNS_9ae_vectorES1_PNS_8ae_stateE
libgmsh.so.4.8:_ZN11alglib_impl16ftbasefindsmoothElPNS_8ae_stateE
libgmsh.so.4.8:_ZN11alglib_impl16generaterotationEddPdS0_S0_PNS_8ae_stateE
libgmsh.so.4.8:_ZN11alglib_impl16hmatrixtdunpackqEPNS_9ae_matrixElbPNS_9ae_vectorES1_PNS_8ae_stateE
libgmsh.so.4.8:_ZN11alglib_impl16hpdmatrixinverseEPNS_9ae_matrixElbPlPNS_12matinvreportEPNS_8ae_stateE
libgmsh.so.4.8:_ZN11alglib_impl16hpdmatrixrndcondEldPNS_9ae_matrixEPNS_8ae_stateE
libgmsh.so.4.8:_ZN11alglib_impl16hqrndexponentialEPNS_10hqrndstateEdPNS_8ae_stateE
libgmsh.so.4.8:_ZN11alglib_impl16inplacetransposeEPNS_9ae_matrixEllllPNS_9ae_vectorEPNS_8ae_stateE
libgmsh.so.4.8:_ZN11alglib_impl16linminnormalizedEPNS_9ae_vectorEPdlPNS_8ae_stateE
libgmsh.so.4.8:_ZN11alglib_impl16minasaresultsbufEPNS_11minasastateEPNS_9ae_vectorEPNS_12minasareportEPNS_8ae_stateE
libgmsh.so.4.8:_ZN11alglib_impl16minbleicsetscaleEPNS_13minbleicstateEPNS_9ae_vectorEPNS_8ae_stateE
libgmsh.so.4.8:_ZN11alglib_impl16mincgrestartfromEPNS_10mincgstateEPNS_9ae_vectorEPNS_8ae_stateE
libgmsh.so.4.8:_ZN11alglib_impl16mincgsetprecdiagEPNS_10mincgstateEPNS_9ae_vectorEPNS_8ae_stateE
libgmsh.so.4.8:_ZN11alglib_impl16mincgsuggeststepEPNS_10mincgstateEdPNS_8ae_stateE
libgmsh.so.4.8:_ZN11alglib_impl16minlbfgssetscaleEPNS_13minlbfgsstateEPNS_9ae_vectorEPNS_8ae_stateE
libgmsh.so.4.8:_ZN11alglib_impl16minlmrestartfromEPNS_10minlmstateEPNS_9ae_vectorEPNS_8ae_stateE
libgmsh.so.4.8:_ZN11alglib_impl16rmatrixbdunpackqEPNS_9ae_matrixEllPNS_9ae_vectorElS1_PNS_8ae_stateE
libgmsh.so.4.8:_ZN11alglib_impl16rmatrixlefttrsmfEllPNS_9ae_matrixEllbblS1_llPNS_8ae_stateE
libgmsh.so.4.8:_ZN11alglib_impl16rmatrixlqunpacklEPNS_9ae_matrixEllS1_PNS_8ae_stateE
libgmsh.so.4.8:_ZN11alglib_impl16rmatrixlqunpackqEPNS_9ae_matrixEllPNS_9ae_vectorElS1_PNS_8ae_stateE
libgmsh.so.4.8:_ZN11alglib_impl16rmatrixluinverseEPNS_9ae_matrixEPNS_9ae_vectorElPlPNS_12matinvreportEPNS_8ae_stateE
libgmsh.so.4.8:_ZN11alglib_impl16rmatrixqrunpackqEPNS_9ae_matrixEllPNS_9ae_vectorElS1_PNS_8ae_stateE
libgmsh.so.4.8:_ZN11alglib_impl16rmatrixqrunpackrEPNS_9ae_matrixEllS1_PNS_8ae_stateE
libgmsh.so.4.8:_ZN11alglib_impl16rmatrixrighttrsmEllPNS_9ae_matrixEllbblS1_llPNS_8ae_stateE
libgmsh.so.4.8:_ZN11alglib_impl16rmatrixtransposeEllPNS_9ae_matrixEllS1_llPNS_8ae_stateE
libgmsh.so.4.8:_ZN11alglib_impl16rmatrixtrinverseEPNS_9ae_matrixElbbPlPNS_12matinvreportEPNS_8ae_stateE
libgmsh.so.4.8:_ZN11alglib_impl16serializecomplexEPNS_13ae_serializerENS_10ae_complexEPNS_8ae_stateE
libgmsh.so.4.8:_ZN11alglib_impl16smatrixtdunpackqEPNS_9ae_matrixElbPNS_9ae_vectorES1_PNS_8ae_stateE
libgmsh.so.4.8:_ZN11alglib_impl16spdmatrixinverseEPNS_9ae_matrixElbPlPNS_12matinvreportEPNS_8ae_stateE
libgmsh.so.4.8:_ZN11alglib_impl16spdmatrixrndcondEldPNS_9ae_matrixEPNS_8ae_stateE
libgmsh.so.4.8:_ZN11alglib_impl17_armijostate_initEPNS_11armijostateEPNS_8ae_stateEb
libgmsh.so.4.8:_ZN11alglib_impl17_ftplan_init_copyEPNS_6ftplanES1_PNS_8ae_stateEb
libgmsh.so.4.8:_ZN11alglib_impl17_hqrndstate_clearEPNS_10hqrndstateE
libgmsh.so.4.8:_ZN11alglib_impl17_kdtree_init_copyEPNS_6kdtreeES1_PNS_8ae_stateEb
libgmsh.so.4.8:_ZN11alglib_impl17_linminstate_initEPNS_11linminstateEPNS_8ae_stateEb
libgmsh.so.4.8:_ZN11alglib_impl17_minasastate_initEPNS_11minasastateEPNS_8ae_stateEb
libgmsh.so.4.8:_ZN11alglib_impl17_mincgreport_initEPNS_11mincgreportEPNS_8ae_stateEb
libgmsh.so.4.8:_ZN11alglib_impl17_mincgstate_clearEPNS_10mincgstateE
libgmsh.so.4.8:_ZN11alglib_impl17_minlmreport_initEPNS_11minlmreportEPNS_8ae_stateEb
libgmsh.so.4.8:_ZN11alglib_impl17_minlmstate_clearEPNS_10minlmstateE
libgmsh.so.4.8:_ZN11alglib_impl17_minqpreport_initEPNS_11minqpreportEPNS_8ae_stateEb
libgmsh.so.4.8:_ZN11alglib_impl17_minqpstate_clearEPNS_10minqpstateE
libgmsh.so.4.8:_ZN11alglib_impl17_nleqreport_clearEPNS_10nleqreportE
libgmsh.so.4.8:_ZN11alglib_impl17_rcommstate_clearEPNS_10rcommstateE
libgmsh.so.4.8:_ZN11alglib_impl17ae_complex_from_dEd
libgmsh.so.4.8:_ZN11alglib_impl17ae_get_endiannessEv
libgmsh.so.4.8:_ZN11alglib_impl17allocintegerarrayEPNS_13ae_serializerEPNS_9ae_vectorElPNS_8ae_stateE
libgmsh.so.4.8:_ZN11alglib_impl17cmatrixlurcondinfEPNS_9ae_matrixElPNS_8ae_stateE
libgmsh.so.4.8:_ZN11alglib_impl17cmatrixmixedsolveEPNS_9ae_matrixES1_PNS_9ae_vectorElS3_PlPNS_17densesolverreportES3_PNS_8ae_stateE
libgmsh.so.4.8:_ZN11alglib_impl17cmatrixrighttrsmfEllPNS_9ae_matrixEllbblS1_llPNS_8ae_stateE
libgmsh.so.4.8:_ZN11alglib_impl17cmatrixtrrcondinfEPNS_9ae_matrixElbbPNS_8ae_stateE
libgmsh.so.4.8:_ZN11alglib_impl17fblscholeskysolveEPNS_9ae_matrixEdlbPNS_9ae_vectorES3_PNS_8ae_stateE
libgmsh.so.4.8:_ZN11alglib_impl17ftbaseexecuteplanEPNS_9ae_vectorEllPNS_6ftplanEPNS_8ae_stateE
libgmsh.so.4.8:_ZN11alglib_impl17hpdmatrixcholeskyEPNS_9ae_matrixElbPNS_8ae_stateE
libgmsh.so.4.8:_ZN11alglib_impl17isfinitertrmatrixEPNS_9ae_matrixElbPNS_8ae_stateE
libgmsh.so.4.8:_ZN11alglib_impl17kdtreebuildtaggedEPNS_9ae_matrixEPNS_9ae_vectorEllllPNS_6kdtreeEPNS_8ae_stateE
libgmsh.so.4.8:_ZN11alglib_impl17kdtreeunserializeEPNS_13ae_serializerEPNS_6kdtreeEPNS_8ae_stateE
libgmsh.so.4.8:_ZN11alglib_impl17minasarestartfromEPNS_11minasastateEPNS_9ae_vectorES3_S3_PNS_8ae_stateE
libgmsh.so.4.8:_ZN11alglib_impl17minbleiciterationEPNS_13minbleicstateEPNS_8ae_stateE
libgmsh.so.4.8:_ZN11alglib_impl17minbleicsetmaxitsEPNS_13minbleicstateElPNS_8ae_stateE
libgmsh.so.4.8:_ZN11alglib_impl17minbleicsetstpmaxEPNS_13minbleicstateEdPNS_8ae_stateE
libgmsh.so.4.8:_ZN11alglib_impl17mincgsetprecscaleEPNS_10mincgstateEPNS_8ae_stateE
libgmsh.so.4.8:_ZN11alglib_impl17minlbfgsiterationEPNS_13minlbfgsstateEPNS_8ae_stateE
libgmsh.so.4.8:_ZN11alglib_impl17minlbfgssetstpmaxEPNS_13minlbfgsstateEdPNS_8ae_stateE
libgmsh.so.4.8:_ZN11alglib_impl17rmatrixbdunpackptEPNS_9ae_matrixEllPNS_9ae_vectorElS1_PNS_8ae_stateE
libgmsh.so.4.8:_ZN11alglib_impl17rmatrixhessenbergEPNS_9ae_matrixElPNS_9ae_vectorEPNS_8ae_stateE
libgmsh.so.4.8:_ZN11alglib_impl17rmatrixlurcondinfEPNS_9ae_matrixElPNS_8ae_stateE
libgmsh.so.4.8:_ZN11alglib_impl17rmatrixmixedsolveEPNS_9ae_matrixES1_PNS_9ae_vectorElS3_PlPNS_17densesolverreportES3_PNS_8ae_stateE
libgmsh.so.4.8:_ZN11alglib_impl17rmatrixrighttrsmfEllPNS_9ae_matrixEllbblS1_llPNS_8ae_stateE
libgmsh.so.4.8:_ZN11alglib_impl17rmatrixtrrcondinfEPNS_9ae_matrixElbbPNS_8ae_stateE
libgmsh.so.4.8:_ZN11alglib_impl17smatrixgevdreduceEPNS_9ae_matrixElbS1_blS1_PbPNS_8ae_stateE
libgmsh.so.4.8:_ZN11alglib_impl17spdmatrixcholeskyEPNS_9ae_matrixElbPNS_8ae_stateE
libgmsh.so.4.8:_ZN11alglib_impl17taskgenint1dcheb1EddlPNS_9ae_vectorES1_PNS_8ae_stateE
libgmsh.so.4.8:_ZN11alglib_impl17taskgenint1dcheb2EddlPNS_9ae_vectorES1_PNS_8ae_stateE
libgmsh.so.4.8:_ZN11alglib_impl17x_force_hermitianEPNS_8x_matrixE
libgmsh.so.4.8:_ZN11alglib_impl17x_force_symmetricEPNS_8x_matrixE
libgmsh.so.4.8:_ZN11alglib_impl18_armijostate_clearEPNS_11armijostateE
libgmsh.so.4.8:_ZN11alglib_impl18_linminstate_clearEPNS_11linminstateE
libgmsh.so.4.8:_ZN11alglib_impl18_matinvreport_initEPNS_12matinvreportEPNS_8ae_stateEb
libgmsh.so.4.8:_ZN11alglib_impl18_minasareport_initEPNS_12minasareportEPNS_8ae_stateEb
libgmsh.so.4.8:_ZN11alglib_impl18_minasastate_clearEPNS_11minasastateE
libgmsh.so.4.8:_ZN11alglib_impl18_mincgreport_clearEPNS_11mincgreportE
libgmsh.so.4.8:_ZN11alglib_impl18_minlmreport_clearEPNS_11minlmreportE
libgmsh.so.4.8:_ZN11alglib_impl18_minqpreport_clearEPNS_11minqpreportE
libgmsh.so.4.8:_ZN11alglib_impl18ae_force_hermitianEPNS_9ae_matrixE
libgmsh.so.4.8:_ZN11alglib_impl18ae_force_symmetricEPNS_9ae_matrixE
libgmsh.so.4.8:_ZN11alglib_impl18ae_isinf_statelessEdl
libgmsh.so.4.8:_ZN11alglib_impl18ae_isnan_statelessEdl
libgmsh.so.4.8:_ZN11alglib_impl18ae_serializer_initEPNS_13ae_serializerE
libgmsh.so.4.8:_ZN11alglib_impl18ae_serializer_stopEPNS_13ae_serializerE
libgmsh.so.4.8:_ZN11alglib_impl18cmatrixmixedsolvemEPNS_9ae_matrixES1_PNS_9ae_vectorElS1_lPlPNS_17densesolverreportES1_PNS_8ae_stateE
libgmsh.so.4.8:_ZN11alglib_impl18generatereflectionEPNS_9ae_vectorElPdPNS_8ae_stateE
libgmsh.so.4.8:_ZN11alglib_impl18hmatrixrndmultiplyEPNS_9ae_matrixElPNS_8ae_stateE
libgmsh.so.4.8:_ZN11alglib_impl18minasasetalgorithmEPNS_11minasastateElPNS_8ae_stateE
libgmsh.so.4.8:_ZN11alglib_impl18minbleicresultsbufEPNS_13minbleicstateEPNS_9ae_vectorEPNS_14minbleicreportEPNS_8ae_stateE
libgmsh.so.4.8:_ZN11alglib_impl18minlbfgsresultsbufEPNS_13minlbfgsstateEPNS_9ae_vectorEPNS_14minlbfgsreportEPNS_8ae_stateE
libgmsh.so.4.8:_ZN11alglib_impl18minqpsetlineartermEPNS_10minqpstateEPNS_9ae_vectorEPNS_8ae_stateE
libgmsh.so.4.8:_ZN11alglib_impl18minqpsetoriginfastEPNS_10minqpstateEPNS_9ae_vectorEPNS_8ae_stateE
libgmsh.so.4.8:_ZN11alglib_impl18rmatrixinvupdateuvEPNS_9ae_matrixElPNS_9ae_vectorES3_PNS_8ae_stateE
libgmsh.so.4.8:_ZN11alglib_impl18rmatrixmixedsolvemEPNS_9ae_matrixES1_PNS_9ae_vectorElS1_lPlPNS_17densesolverreportES1_PNS_8ae_stateE
libgmsh.so.4.8:_ZN11alglib_impl18rmatrixtrsafesolveEPNS_9ae_matrixElPNS_9ae_vectorEPdbbbPNS_8ae_stateE
libgmsh.so.4.8:_ZN11alglib_impl18serializerealarrayEPNS_13ae_serializerEPNS_9ae_vectorElPNS_8ae_stateE
libgmsh.so.4.8:_ZN11alglib_impl18smatrixrndmultiplyEPNS_9ae_matrixElPNS_8ae_stateE
libgmsh.so.4.8:_ZN11alglib_impl18tagheapreplacetopiEPNS_9ae_vectorES1_ldlPNS_8ae_stateE
libgmsh.so.4.8:_ZN11alglib_impl18unserializecomplexEPNS_13ae_serializerEPNS_8ae_stateE
libgmsh.so.4.8:_ZN11alglib_impl19_ialglib_mcopyblockEllPKdllPd
libgmsh.so.4.8:_ZN11alglib_impl19_matinvreport_clearEPNS_12matinvreportE
libgmsh.so.4.8:_ZN11alglib_impl19_minasareport_clearEPNS_12minasareportE
libgmsh.so.4.8:_ZN11alglib_impl19_minbleicstate_initEPNS_13minbleicstateEPNS_8ae_stateEb
libgmsh.so.4.8:_ZN11alglib_impl19_minlbfgsstate_initEPNS_13minlbfgsstateEPNS_8ae_stateEb
libgmsh.so.4.8:_ZN11alglib_impl19ablasmicroblocksizeEPNS_8ae_stateE
libgmsh.so.4.8:_ZN11alglib_impl19ae_matrix_init_copyEPNS_9ae_matrixES1_PNS_8ae_stateEb
libgmsh.so.4.8:_ZN11alglib_impl19ae_serializer_clearEPNS_13ae_serializerE
libgmsh.so.4.8:_ZN11alglib_impl19ae_vector_init_copyEPNS_9ae_vectorES1_PNS_8ae_stateEb
libgmsh.so.4.8:_ZN11alglib_impl19kdtreequeryresultsxEPNS_6kdtreeEPNS_9ae_matrixEPNS_8ae_stateE
libgmsh.so.4.8:_ZN11alglib_impl19minbleicrestartfromEPNS_13minbleicstateEPNS_9ae_vectorEPNS_8ae_stateE
libgmsh.so.4.8:_ZN11alglib_impl19minbleicsetprecdiagEPNS_13minbleicstateEPNS_9ae_vectorEPNS_8ae_stateE
libgmsh.so.4.8:_ZN11alglib_impl19mincgsetprecdefaultEPNS_10mincgstateEPNS_8ae_stateE
libgmsh.so.4.8:_ZN11alglib_impl19mincgsetprecvarpartEPNS_10mincgstateEPNS_9ae_vectorEPNS_8ae_stateE
libgmsh.so.4.8:_ZN11alglib_impl19minlbfgsrestartfromEPNS_13minlbfgsstateEPNS_9ae_vectorEPNS_8ae_stateE
libgmsh.so.4.8:_ZN11alglib_impl19minlbfgssetprecdiagEPNS_13minlbfgsstateEPNS_9ae_vectorEPNS_8ae_stateE
libgmsh.so.4.8:_ZN11alglib_impl19rmatrixinvupdaterowEPNS_9ae_matrixEllPNS_9ae_vectorEPNS_8ae_stateE
libgmsh.so.4.8:_ZN11alglib_impl19safesolvetriangularEPNS_9ae_matrixElPNS_9ae_vectorEPdbbbbS3_PNS_8ae_stateE
libgmsh.so.4.8:_ZN11alglib_impl19serializerealmatrixEPNS_13ae_serializerEPNS_9ae_matrixEllPNS_8ae_stateE
libgmsh.so.4.8:_ZN11alglib_impl20_apbuffers_init_copyEPNS_9apbuffersES1_PNS_8ae_stateEb
libgmsh.so.4.8:_ZN11alglib_impl20_fblslincgstate_initEPNS_14fblslincgstateEPNS_8ae_stateEb
libgmsh.so.4.8:_ZN11alglib_impl20_ialglib_cmatrixgemmElllNS_10ae_complexEPS0_llS1_llS0_S1_l
libgmsh.so.4.8:_ZN11alglib_impl20_ialglib_cmatrixsyrkElldPNS_10ae_complexElldS1_lb
libgmsh.so.4.8:_ZN11alglib_impl20_ialglib_rmatrixgemmEllldPdllS0_lldS0_l
libgmsh.so.4.8:_ZN11alglib_impl20_ialglib_rmatrixsyrkElldPdlldS0_lb
libgmsh.so.4.8:_ZN11alglib_impl20_minbleicreport_initEPNS_14minbleicreportEPNS_8ae_stateEb
libgmsh.so.4.8:_ZN11alglib_impl20_minbleicstate_clearEPNS_13minbleicstateE
libgmsh.so.4.8:_ZN11alglib_impl20_minlbfgsreport_initEPNS_14minlbfgsreportEPNS_8ae_stateEb
libgmsh.so.4.8:_ZN11alglib_impl20_minlbfgsstate_clearEPNS_13minlbfgsstateE
libgmsh.so.4.8:_ZN11alglib_impl20_nleqstate_init_copyEPNS_9nleqstateES1_PNS_8ae_stateEb
libgmsh.so.4.8:_ZN11alglib_impl20ae_matrix_set_lengthEPNS_9ae_matrixEllPNS_8ae_stateE
libgmsh.so.4.8:_ZN11alglib_impl20ae_vector_set_lengthEPNS_9ae_vectorElPNS_8ae_stateE
libgmsh.so.4.8:_ZN11alglib_impl20apservisfinitematrixEPNS_9ae_matrixEllPNS_8ae_stateE
libgmsh.so.4.8:_ZN11alglib_impl20cmatrixrndorthogonalElPNS_9ae_matrixEPNS_8ae_stateE
libgmsh.so.4.8:_ZN11alglib_impl20ftbaseexecuteplanrecEPNS_9ae_vectorElPNS_6ftplanEllPNS_8ae_stateE
libgmsh.so.4.8:_ZN11alglib_impl20ftbasefindsmoothevenElPNS_8ae_stateE
libgmsh.so.4.8:_ZN11alglib_impl20hermitianrank2updateEPNS_9ae_matrixEbllPNS_9ae_vectorES3_S3_NS_10ae_complexEPNS_8ae_stateE
libgmsh.so.4.8:_ZN11alglib_impl20kdtreequeryresultsxiEPNS_6kdtreeEPNS_9ae_matrixEPNS_8ae_stateE
libgmsh.so.4.8:_ZN11alglib_impl20kdtreequeryresultsxyEPNS_6kdtreeEPNS_9ae_matrixEPNS_8ae_stateE
libgmsh.so.4.8:_ZN11alglib_impl20matrixmatrixmultiplyEPNS_9ae_matrixEllllbS1_llllbdS1_lllldPNS_9ae_vectorEPNS_8ae_stateE
libgmsh.so.4.8:_ZN11alglib_impl20matrixvectormultiplyEPNS_9ae_matrixEllllbPNS_9ae_vectorElldS3_lldPNS_8ae_stateE
libgmsh.so.4.8:_ZN11alglib_impl20minbleicsetinnercondEPNS_13minbleicstateEdddPNS_8ae_stateE
libgmsh.so.4.8:_ZN11alglib_impl20minbleicsetoutercondEPNS_13minbleicstateEddPNS_8ae_stateE
libgmsh.so.4.8:_ZN11alglib_impl20minbleicsetprecscaleEPNS_13minbleicstateEPNS_8ae_stateE
libgmsh.so.4.8:_ZN11alglib_impl20mincgsetprecdiagfastEPNS_10mincgstateEPNS_9ae_vectorEPNS_8ae_stateE
libgmsh.so.4.8:_ZN11alglib_impl20minlbfgssetprecscaleEPNS_13minlbfgsstateEPNS_8ae_stateE
libgmsh.so.4.8:_ZN11alglib_impl20minqprewritediagonalEPNS_10minqpstateEPNS_9ae_vectorEPNS_8ae_stateE
libgmsh.so.4.8:_ZN11alglib_impl20minqpsetalgocholeskyEPNS_10minqpstateEPNS_8ae_stateE
libgmsh.so.4.8:_ZN11alglib_impl20rmatrixbdmultiplybypEPNS_9ae_matrixEllPNS_9ae_vectorES1_llbbPNS_8ae_stateE
libgmsh.so.4.8:_ZN11alglib_impl20rmatrixbdmultiplybyqEPNS_9ae_matrixEllPNS_9ae_vectorES1_llbbPNS_8ae_stateE
libgmsh.so.4.8:_ZN11alglib_impl20rmatrixrndorthogonalElPNS_9ae_matrixEPNS_8ae_stateE
libgmsh.so.4.8:_ZN11alglib_impl20spdmatrixcholeskydetEPNS_9ae_matrixElPNS_8ae_stateE
libgmsh.so.4.8:_ZN11alglib_impl20spdmatrixcholeskyrecEPNS_9ae_matrixEllbPNS_9ae_vectorEPNS_8ae_stateE
libgmsh.so.4.8:_ZN11alglib_impl20symmetricrank2updateEPNS_9ae_matrixEbllPNS_9ae_vectorES3_S3_dPNS_8ae_stateE
libgmsh.so.4.8:_ZN11alglib_impl20taskgenint1dequidistEddlPNS_9ae_vectorES1_PNS_8ae_stateE
libgmsh.so.4.8:_ZN11alglib_impl20unserializerealarrayEPNS_13ae_serializerEPNS_9ae_vectorEPNS_8ae_stateE
libgmsh.so.4.8:_ZN11alglib_impl20upperhessenberg1normEPNS_9ae_matrixEllllPNS_9ae_vectorEPNS_8ae_stateE
libgmsh.so.4.8:_ZN11alglib_impl21_fblslincgstate_clearEPNS_14fblslincgstateE
libgmsh.so.4.8:_ZN11alglib_impl21_hqrndstate_init_copyEPNS_10hqrndstateES1_PNS_8ae_stateEb
libgmsh.so.4.8:_ZN11alglib_impl21_ialglib_cmatrixrank1EllPNS_10ae_complexElS1_S1_
libgmsh.so.4.8:_ZN11alglib_impl21_ialglib_mcopyunblockEllPKdlPdl
libgmsh.so.4.8:_ZN11alglib_impl21_ialglib_rmatrixrank1EllPdlS0_S0_
libgmsh.so.4.8:_ZN11alglib_impl21_minbleicreport_clearEPNS_14minbleicreportE
libgmsh.so.4.8:_ZN11alglib_impl21_mincgstate_init_copyEPNS_10mincgstateES1_PNS_8ae_stateEb
libgmsh.so.4.8:_ZN11alglib_impl21_minlbfgsreport_clearEPNS_14minlbfgsreportE
libgmsh.so.4.8:_ZN11alglib_impl21_minlmstate_init_copyEPNS_10minlmstateES1_PNS_8ae_stateEb
libgmsh.so.4.8:_ZN11alglib_impl21_minqpstate_init_copyEPNS_10minqpstateES1_PNS_8ae_stateEb
libgmsh.so.4.8:_ZN11alglib_impl21_nleqreport_init_copyEPNS_10nleqreportES1_PNS_8ae_stateEb
libgmsh.so.4.8:_ZN11alglib_impl21_rcommstate_init_copyEPNS_10rcommstateES1_PNS_8ae_stateEb
libgmsh.so.4.8:_ZN11alglib_impl21ablascomplexblocksizeEPNS_9ae_matrixEPNS_8ae_stateE
libgmsh.so.4.8:_ZN11alglib_impl21ae_isfinite_statelessEdl
libgmsh.so.4.8:_ZN11alglib_impl21ae_isneginf_statelessEdl
libgmsh.so.4.8:_ZN11alglib_impl21ae_isposinf_statelessEdl
libgmsh.so.4.8:_ZN11alglib_impl21ae_matrix_init_from_xEPNS_9ae_matrixEPNS_8x_matrixEPNS_8ae_stateEb
libgmsh.so.4.8:_ZN11alglib_impl21ae_vector_init_from_xEPNS_9ae_vectorEPNS_8x_vectorEPNS_8ae_stateEb
libgmsh.so.4.8:_ZN11alglib_impl21ae_x_attach_to_matrixEPNS_8x_matrixEPNS_9ae_matrixE
libgmsh.so.4.8:_ZN11alglib_impl21ae_x_attach_to_vectorEPNS_8x_vectorEPNS_9ae_vectorE
libgmsh.so.4.8:_ZN11alglib_impl21apservisfinitecmatrixEPNS_9ae_matrixEllPNS_8ae_stateE
libgmsh.so.4.8:_ZN11alglib_impl21ftbasegetflopestimateElPNS_8ae_stateE
libgmsh.so.4.8:_ZN11alglib_impl21kdtreequeryresultsxyiEPNS_6kdtreeEPNS_9ae_matrixEPNS_8ae_stateE
libgmsh.so.4.8:_ZN11alglib_impl21minqpsetquadratictermEPNS_10minqpstateEPNS_9ae_matrixEbPNS_8ae_stateE
libgmsh.so.4.8:_ZN11alglib_impl21minqpsetstartingpointEPNS_10minqpstateEPNS_9ae_vectorEPNS_8ae_stateE
libgmsh.so.4.8:_ZN11alglib_impl21serializeintegerarrayEPNS_13ae_serializerEPNS_9ae_vectorElPNS_8ae_stateE
libgmsh.so.4.8:_ZN11alglib_impl21unserializerealmatrixEPNS_13ae_serializerEPNS_9ae_matrixEPNS_8ae_stateE
libgmsh.so.4.8:_ZN11alglib_impl22_armijostate_init_copyEPNS_11armijostateES1_PNS_8ae_stateEb
libgmsh.so.4.8:_ZN11alglib_impl22_ialglib_vcopy_complexElPKNS_10ae_complexElPdlPKc
libgmsh.so.4.8:_ZN11alglib_impl22_ialglib_vzero_complexElPNS_10ae_complexEl
libgmsh.so.4.8:_ZN11alglib_impl22_linminstate_init_copyEPNS_11linminstateES1_PNS_8ae_stateEb
libgmsh.so.4.8:_ZN11alglib_impl22_minasastate_init_copyEPNS_11minasastateES1_PNS_8ae_stateEb
libgmsh.so.4.8:_ZN11alglib_impl22_mincgreport_init_copyEPNS_11mincgreportES1_PNS_8ae_stateEb
libgmsh.so.4.8:_ZN11alglib_impl22_minlmreport_init_copyEPNS_11minlmreportES1_PNS_8ae_stateEb
libgmsh.so.4.8:_ZN11alglib_impl22_minqpreport_init_copyEPNS_11minqpreportES1_PNS_8ae_stateEb
libgmsh.so.4.8:_ZN11alglib_impl22hpdmatrixcholeskyrcondEPNS_9ae_matrixElbPNS_8ae_stateE
libgmsh.so.4.8:_ZN11alglib_impl22hpdmatrixcholeskysolveEPNS_9ae_matrixElbPNS_9ae_vectorEPlPNS_17densesolverreportES3_PNS_8ae_stateE
libgmsh.so.4.8:_ZN11alglib_impl22kdtreequeryresultstagsEPNS_6kdtreeEPNS_9ae_vectorEPNS_8ae_stateE
libgmsh.so.4.8:_ZN11alglib_impl22minbleicsetprecdefaultEPNS_13minbleicstateEPNS_8ae_stateE
libgmsh.so.4.8:_ZN11alglib_impl22minlbfgssetprecdefaultEPNS_13minlbfgsstateEPNS_8ae_stateE
libgmsh.so.4.8:_ZN11alglib_impl22minqpsetlineartermfastEPNS_10minqpstateEPNS_9ae_vectorEPNS_8ae_stateE
libgmsh.so.4.8:_ZN11alglib_impl22rmatrixinvupdatecolumnEPNS_9ae_matrixEllPNS_9ae_vectorEPNS_8ae_stateE
libgmsh.so.4.8:_ZN11alglib_impl22rmatrixinvupdatesimpleEPNS_9ae_matrixEllldPNS_8ae_stateE
libgmsh.so.4.8:_ZN11alglib_impl22spdmatrixcholeskyrcondEPNS_9ae_matrixElbPNS_8ae_stateE
libgmsh.so.4.8:_ZN11alglib_impl22spdmatrixcholeskysolveEPNS_9ae_matrixElbPNS_9ae_vectorEPlPNS_17densesolverreportES3_PNS_8ae_stateE
libgmsh.so.4.8:_ZN11alglib_impl23_densesolverreport_initEPNS_17densesolverreportEPNS_8ae_stateEb
libgmsh.so.4.8:_ZN11alglib_impl23_ialglib_i_cmatrixgemmfElllNS_10ae_complexEPNS_9ae_matrixElllS2_lllS0_S2_ll
libgmsh.so.4.8:_ZN11alglib_impl23_ialglib_i_cmatrixsyrkfElldPNS_9ae_matrixEllldS1_llb
libgmsh.so.4.8:_ZN11alglib_impl23_ialglib_i_rmatrixgemmfEllldPNS_9ae_matrixElllS1_llldS1_ll
libgmsh.so.4.8:_ZN11alglib_impl23_ialglib_i_rmatrixsyrkfElldPNS_9ae_matrixEllldS1_llb
libgmsh.so.4.8:_ZN11alglib_impl23_ialglib_vcopy_dcomplexElPKdlPdlPKc
libgmsh.so.4.8:_ZN11alglib_impl23_matinvreport_init_copyEPNS_12matinvreportES1_PNS_8ae_stateEb
libgmsh.so.4.8:_ZN11alglib_impl23_minasareport_init_copyEPNS_12minasareportES1_PNS_8ae_stateEb
libgmsh.so.4.8:_ZN11alglib_impl23ablascomplexsplitlengthEPNS_9ae_matrixElPlS2_PNS_8ae_stateE
libgmsh.so.4.8:_ZN11alglib_impl23apservisfinitectrmatrixEPNS_9ae_matrixElbPNS_8ae_stateE
libgmsh.so.4.8:_ZN11alglib_impl23bvectorsetlengthatleastEPNS_9ae_vectorElPNS_8ae_stateE
libgmsh.so.4.8:_ZN11alglib_impl23getmlpserializationcodeEPNS_8ae_stateE
libgmsh.so.4.8:_ZN11alglib_impl23getrdfserializationcodeEPNS_8ae_stateE
libgmsh.so.4.8:_ZN11alglib_impl23hpdmatrixcholeskysolvemEPNS_9ae_matrixElbS1_lPlPNS_17densesolverreportES1_PNS_8ae_stateE
libgmsh.so.4.8:_ZN11alglib_impl23ivectorsetlengthatleastEPNS_9ae_vectorElPNS_8ae_stateE
libgmsh.so.4.8:_ZN11alglib_impl23kdtreequeryresultstagsiEPNS_6kdtreeEPNS_9ae_vectorEPNS_8ae_stateE
libgmsh.so.4.8:_ZN11alglib_impl23minbleicsetbarrierdecayEPNS_13minbleicstateEdPNS_8ae_stateE
libgmsh.so.4.8:_ZN11alglib_impl23minbleicsetbarrierwidthEPNS_13minbleicstateEdPNS_8ae_stateE
libgmsh.so.4.8:_ZN11alglib_impl23mincgsetpreclowrankfastEPNS_10mincgstateEPNS_9ae_vectorES3_PNS_9ae_matrixElPNS_8ae_stateE
libgmsh.so.4.8:_ZN11alglib_impl23minlbfgssetpreccholeskyEPNS_13minlbfgsstateEPNS_9ae_matrixEbPNS_8ae_stateE
libgmsh.so.4.8:_ZN11alglib_impl23rmatrixsetlengthatleastEPNS_9ae_matrixEllPNS_8ae_stateE
libgmsh.so.4.8:_ZN11alglib_impl23rvectorsetlengthatleastEPNS_9ae_vectorElPNS_8ae_stateE
libgmsh.so.4.8:_ZN11alglib_impl23spdmatrixcholeskysolvemEPNS_9ae_matrixElbS1_lPlPNS_17densesolverreportES1_PNS_8ae_stateE
libgmsh.so.4.8:_ZN11alglib_impl23unserializeintegerarrayEPNS_13ae_serializerEPNS_9ae_vectorEPNS_8ae_stateE
libgmsh.so.4.8:_ZN11alglib_impl24_densesolverreport_clearEPNS_17densesolverreportE
libgmsh.so.4.8:_ZN11alglib_impl24_ialglib_cmatrixlefttrsmEllPNS_10ae_complexElbblS1_l
libgmsh.so.4.8:_ZN11alglib_impl24_ialglib_i_cmatrixrank1fEllPNS_9ae_matrixEllPNS_9ae_vectorElS3_l
libgmsh.so.4.8:_ZN11alglib_impl24_ialglib_i_rmatrixrank1fEllPNS_9ae_matrixEllPNS_9ae_vectorElS3_l
libgmsh.so.4.8:_ZN11alglib_impl24_ialglib_rmatrixlefttrsmEllPdlbblS0_l
libgmsh.so.4.8:_ZN11alglib_impl24_minbleicstate_init_copyEPNS_13minbleicstateES1_PNS_8ae_stateEb
libgmsh.so.4.8:_ZN11alglib_impl24_minlbfgsstate_init_copyEPNS_13minlbfgsstateES1_PNS_8ae_stateEb
libgmsh.so.4.8:_ZN11alglib_impl24ae_serializer_sstart_strEPNS_13ae_serializerEPNSt7__cxx1112basic_stringIcSt11char_traitsIcESaIcEEE
libgmsh.so.4.8:_ZN11alglib_impl24ae_serializer_sstart_strEPNS_13ae_serializerEPc
libgmsh.so.4.8:_ZN11alglib_impl24ae_serializer_ustart_strEPNS_13ae_serializerEPKNSt7__cxx1112basic_stringIcSt11char_traitsIcESaIcEEE
libgmsh.so.4.8:_ZN11alglib_impl24ae_serializer_ustart_strEPNS_13ae_serializerEPKc
libgmsh.so.4.8:_ZN11alglib_impl24cmatrixscaledtrsafesolveEPNS_9ae_matrixEdlPNS_9ae_vectorEblbdPNS_8ae_stateE
libgmsh.so.4.8:_ZN11alglib_impl24hpdmatrixcholeskyinverseEPNS_9ae_matrixElbPlPNS_12matinvreportEPNS_8ae_stateE
libgmsh.so.4.8:_ZN11alglib_impl24rmatrixbdunpackdiagonalsEPNS_9ae_matrixEllPbPNS_9ae_vectorES4_PNS_8ae_stateE
libgmsh.so.4.8:_ZN11alglib_impl24rmatrixhessenbergunpackhEPNS_9ae_matrixElS1_PNS_8ae_stateE
libgmsh.so.4.8:_ZN11alglib_impl24rmatrixhessenbergunpackqEPNS_9ae_matrixElPNS_9ae_vectorES1_PNS_8ae_stateE
libgmsh.so.4.8:_ZN11alglib_impl24rmatrixscaledtrsafesolveEPNS_9ae_matrixEdlPNS_9ae_vectorEblbdPNS_8ae_stateE
libgmsh.so.4.8:_ZN11alglib_impl24spdmatrixcholeskyinverseEPNS_9ae_matrixElbPlPNS_12matinvreportEPNS_8ae_stateE
libgmsh.so.4.8:_ZN11alglib_impl25_densesolverlsreport_initEPNS_19densesolverlsreportEPNS_8ae_stateEb
libgmsh.so.4.8:_ZN11alglib_impl25_fblslincgstate_init_copyEPNS_14fblslincgstateES1_PNS_8ae_stateEb
libgmsh.so.4.8:_ZN11alglib_impl25_ialglib_cmatrixrighttrsmEllPNS_10ae_complexElbblS1_l
libgmsh.so.4.8:_ZN11alglib_impl25_ialglib_rmatrixrighttrsmEllPdlbblS0_l
libgmsh.so.4.8:_ZN11alglib_impl25_minbleicreport_init_copyEPNS_14minbleicreportES1_PNS_8ae_stateEb
libgmsh.so.4.8:_ZN11alglib_impl25_minlbfgsreport_init_copyEPNS_14minlbfgsreportES1_PNS_8ae_stateEb
libgmsh.so.4.8:_ZN11alglib_impl25ae_foursixbits2threebytesEPKlPh
libgmsh.so.4.8:_ZN11alglib_impl25ae_serializer_alloc_entryEPNS_13ae_serializerE
libgmsh.so.4.8:_ZN11alglib_impl25ae_serializer_alloc_startEPNS_13ae_serializerE
libgmsh.so.4.8:_ZN11alglib_impl25ae_threebytes2foursixbitsEPKhPl
libgmsh.so.4.8:_ZN11alglib_impl25applyrotationsfromtheleftEbllllPNS_9ae_vectorES1_PNS_9ae_matrixES1_PNS_8ae_stateE
libgmsh.so.4.8:_ZN11alglib_impl25apservisfiniteornanmatrixEPNS_9ae_matrixEllPNS_8ae_stateE
libgmsh.so.4.8:_ZN11alglib_impl25complexgeneratereflectionEPNS_9ae_vectorElPNS_10ae_complexEPNS_8ae_stateE
libgmsh.so.4.8:_ZN11alglib_impl25ftbasegeneraterealfftplanElPNS_6ftplanEPNS_8ae_stateE
libgmsh.so.4.8:_ZN11alglib_impl25ftbasegeneraterealfhtplanElPNS_6ftplanEPNS_8ae_stateE
libgmsh.so.4.8:_ZN11alglib_impl25minqpsetquadratictermfastEPNS_10minqpstateEPNS_9ae_matrixEbdPNS_8ae_stateE
libgmsh.so.4.8:_ZN11alglib_impl25minqpsetstartingpointfastEPNS_10minqpstateEPNS_9ae_vectorEPNS_8ae_stateE
libgmsh.so.4.8:_ZN11alglib_impl26_densesolverlsreport_clearEPNS_19densesolverlsreportE
libgmsh.so.4.8:_ZN11alglib_impl26applyreflectionfromtheleftEPNS_9ae_matrixEdPNS_9ae_vectorEllllS3_PNS_8ae_stateE
libgmsh.so.4.8:_ZN11alglib_impl26applyrotationsfromtherightEbllllPNS_9ae_vectorES1_PNS_9ae_matrixES1_PNS_8ae_stateE
libgmsh.so.4.8:_ZN11alglib_impl26bidiagonalsvddecompositionEPNS_9ae_vectorES1_lbbPNS_9ae_matrixElS3_lS3_lPNS_8ae_stateE
libgmsh.so.4.8:_ZN11alglib_impl26getkdtreeserializationcodeEPNS_8ae_stateE
libgmsh.so.4.8:_ZN11alglib_impl26internalschurdecompositionEPNS_9ae_matrixElllPNS_9ae_vectorES3_S1_PlPNS_8ae_stateE
libgmsh.so.4.8:_ZN11alglib_impl27_ialglib_i_cmatrixlefttrsmfEllPNS_9ae_matrixEllbblS1_ll
libgmsh.so.4.8:_ZN11alglib_impl27_ialglib_i_rmatrixlefttrsmfEllPNS_9ae_matrixEllbblS1_ll
libgmsh.so.4.8:_ZN11alglib_impl27_ialglib_mcopyblock_complexEllPKNS_10ae_complexEllPd
libgmsh.so.4.8:_ZN11alglib_impl27ae_serializer_serialize_intEPNS_13ae_serializerElPNS_8ae_stateE
libgmsh.so.4.8:_ZN11alglib_impl27applyreflectionfromtherightEPNS_9ae_matrixEdPNS_9ae_vectorEllllS3_PNS_8ae_stateE
libgmsh.so.4.8:_ZN11alglib_impl27kdtreequeryresultsdistancesEPNS_6kdtreeEPNS_9ae_vectorEPNS_8ae_stateE
libgmsh.so.4.8:_ZN11alglib_impl28_densesolverreport_init_copyEPNS_17densesolverreportES1_PNS_8ae_stateEb
libgmsh.so.4.8:_ZN11alglib_impl28_ialglib_i_cmatrixrighttrsmfEllPNS_9ae_matrixEllbblS1_ll
libgmsh.so.4.8:_ZN11alglib_impl28_ialglib_i_rmatrixrighttrsmfEllPNS_9ae_matrixEllbblS1_ll
libgmsh.so.4.8:_ZN11alglib_impl28ae_serializer_get_alloc_sizeEPNS_13ae_serializerE
libgmsh.so.4.8:_ZN11alglib_impl28ae_serializer_serialize_boolEPNS_13ae_serializerEbPNS_8ae_stateE
libgmsh.so.4.8:_ZN11alglib_impl28ftbasegeneratecomplexfftplanElPNS_6ftplanEPNS_8ae_stateE
libgmsh.so.4.8:_ZN11alglib_impl28kdtreequeryresultsdistancesiEPNS_6kdtreeEPNS_9ae_vectorEPNS_8ae_stateE
libgmsh.so.4.8:_ZN11alglib_impl29_ialglib_mcopyunblock_complexEllPKdlPNS_10ae_complexEl
libgmsh.so.4.8:_ZN11alglib_impl29ae_matrix_update_row_pointersEPNS_9ae_matrixEPv
libgmsh.so.4.8:_ZN11alglib_impl29ae_serializer_unserialize_intEPNS_13ae_serializerEPlPNS_8ae_stateE
libgmsh.so.4.8:_ZN11alglib_impl29hermitianmatrixvectormultiplyEPNS_9ae_matrixEbllPNS_9ae_vectorENS_10ae_complexES3_PNS_8ae_stateE
libgmsh.so.4.8:_ZN11alglib_impl29symmetricmatrixvectormultiplyEPNS_9ae_matrixEbllPNS_9ae_vectorEdS3_PNS_8ae_stateE
libgmsh.so.4.8:_ZN11alglib_impl30_densesolverlsreport_init_copyEPNS_19densesolverlsreportES1_PNS_8ae_stateEb
libgmsh.so.4.8:_ZN11alglib_impl30ae_serializer_serialize_doubleEPNS_13ae_serializerEdPNS_8ae_stateE
libgmsh.so.4.8:_ZN11alglib_impl30ae_serializer_unserialize_boolEPNS_13ae_serializerEPbPNS_8ae_stateE
libgmsh.so.4.8:_ZN11alglib_impl31cmatrixrndorthogonalfromtheleftEPNS_9ae_matrixEllPNS_8ae_stateE
libgmsh.so.4.8:_ZN11alglib_impl31rmatrixrndorthogonalfromtheleftEPNS_9ae_matrixEllPNS_8ae_stateE
libgmsh.so.4.8:_ZN11alglib_impl32ae_serializer_unserialize_doubleEPNS_13ae_serializerEPdPNS_8ae_stateE
libgmsh.so.4.8:_ZN11alglib_impl32cmatrixrndorthogonalfromtherightEPNS_9ae_matrixEllPNS_8ae_stateE
libgmsh.so.4.8:_ZN11alglib_impl32minlbfgssetdefaultpreconditionerEPNS_13minlbfgsstateEPNS_8ae_stateE
libgmsh.so.4.8:_ZN11alglib_impl32rmatrixrndorthogonalfromtherightEPNS_9ae_matrixEllPNS_8ae_stateE
libgmsh.so.4.8:_ZN11alglib_impl33complexapplyreflectionfromtheleftEPNS_9ae_matrixENS_10ae_complexEPNS_9ae_vectorEllllS4_PNS_8ae_stateE
libgmsh.so.4.8:_ZN11alglib_impl33minlbfgssetcholeskypreconditionerEPNS_13minlbfgsstateEPNS_9ae_matrixEbPNS_8ae_stateE
libgmsh.so.4.8:_ZN11alglib_impl33upperhessenbergschurdecompositionEPNS_9ae_matrixElS1_PNS_8ae_stateE
libgmsh.so.4.8:_ZN11alglib_impl34complexapplyreflectionfromtherightEPNS_9ae_matrixENS_10ae_complexEPNS_9ae_vectorEllllS4_PNS_8ae_stateE
libgmsh.so.4.8:_ZN11alglib_impl4xdotEPNS_9ae_vectorES1_lS1_PdS2_PNS_8ae_stateE
libgmsh.so.4.8:_ZN11alglib_impl5rankxEPNS_9ae_vectorElPNS_9apbuffersEPNS_8ae_stateE
libgmsh.so.4.8:_ZN11alglib_impl5xcdotEPNS_9ae_vectorES1_lS1_PNS_10ae_complexEPdPNS_8ae_stateE
libgmsh.so.4.8:_ZN11alglib_impl6ae_cosEdPNS_8ae_stateE
libgmsh.so.4.8:_ZN11alglib_impl6ae_expEdPNS_8ae_stateE
libgmsh.so.4.8:_ZN11alglib_impl6ae_logEdPNS_8ae_stateE
libgmsh.so.4.8:_ZN11alglib_impl6ae_powEddPNS_8ae_stateE
libgmsh.so.4.8:_ZN11alglib_impl6ae_sinEdPNS_8ae_stateE
libgmsh.so.4.8:_ZN11alglib_impl6ae_sqrEdPNS_8ae_stateE
libgmsh.so.4.8:_ZN11alglib_impl6ae_tanEdPNS_8ae_stateE
libgmsh.so.4.8:_ZN11alglib_impl6mcsrchElPNS_9ae_vectorEPdS1_S1_S2_ddPlS3_S1_PNS_11linminstateES3_PNS_8ae_stateE
libgmsh.so.4.8:_ZN11alglib_impl7ae_acosEdPNS_8ae_stateE
libgmsh.so.4.8:_ZN11alglib_impl7ae_asinEdPNS_8ae_stateE
libgmsh.so.4.8:_ZN11alglib_impl7ae_atanEdPNS_8ae_stateE
libgmsh.so.4.8:_ZN11alglib_impl7ae_c_eqENS_10ae_complexES0_
libgmsh.so.4.8:_ZN11alglib_impl7ae_coshEdPNS_8ae_stateE
libgmsh.so.4.8:_ZN11alglib_impl7ae_fabsEdPNS_8ae_stateE
libgmsh.so.4.8:_ZN11alglib_impl7ae_freeEPv
libgmsh.so.4.8:_ZN11alglib_impl7ae_iabsElPNS_8ae_stateE
libgmsh.so.4.8:_ZN11alglib_impl7ae_signEdPNS_8ae_stateE
libgmsh.so.4.8:_ZN11alglib_impl7ae_sinhEdPNS_8ae_stateE
libgmsh.so.4.8:_ZN11alglib_impl7ae_sqrtEdPNS_8ae_stateE
libgmsh.so.4.8:_ZN11alglib_impl7ae_tanhEdPNS_8ae_stateE
libgmsh.so.4.8:_ZN11alglib_impl7nucosm1EdPNS_8ae_stateE
libgmsh.so.4.8:_ZN11alglib_impl7nuexpm1EdPNS_8ae_stateE
libgmsh.so.4.8:_ZN11alglib_impl7nulog1pEdPNS_8ae_stateE
libgmsh.so.4.8:_ZN11alglib_impl7pythag2EddPNS_8ae_stateE
libgmsh.so.4.8:_ZN11alglib_impl7tagsortEPNS_9ae_vectorElS1_S1_PNS_8ae_stateE
libgmsh.so.4.8:_ZN11alglib_impl8ae_alignEPvm
libgmsh.so.4.8:_ZN11alglib_impl8ae_atan2EddPNS_8ae_stateE
libgmsh.so.4.8:_ZN11alglib_impl8ae_breakEPNS_8ae_stateENS_13ae_error_typeEPKc
libgmsh.so.4.8:_ZN11alglib_impl8ae_c_absENS_10ae_complexEPNS_8ae_stateE
libgmsh.so.4.8:_ZN11alglib_impl8ae_c_addENS_10ae_complexES0_
libgmsh.so.4.8:_ZN11alglib_impl8ae_c_divENS_10ae_complexES0_
libgmsh.so.4.8:_ZN11alglib_impl8ae_c_mulENS_10ae_complexES0_
libgmsh.so.4.8:_ZN11alglib_impl8ae_c_negENS_10ae_complexE
libgmsh.so.4.8:_ZN11alglib_impl8ae_c_neqENS_10ae_complexES0_
libgmsh.so.4.8:_ZN11alglib_impl8ae_c_sqrENS_10ae_complexEPNS_8ae_stateE
libgmsh.so.4.8:_ZN11alglib_impl8ae_c_subENS_10ae_complexES0_
libgmsh.so.4.8:_ZN11alglib_impl8ae_cpuidEv
libgmsh.so.4.8:_ZN11alglib_impl8ae_fp_eqEdd
libgmsh.so.4.8:_ZN11alglib_impl8ae_iceilEdPNS_8ae_stateE
libgmsh.so.4.8:_ZN11alglib_impl8ae_isinfEdPNS_8ae_stateE
libgmsh.so.4.8:_ZN11alglib_impl8ae_isnanEdPNS_8ae_stateE
libgmsh.so.4.8:_ZN11alglib_impl8ae_roundEdPNS_8ae_stateE
libgmsh.so.4.8:_ZN11alglib_impl8ae_truncEdPNS_8ae_stateE
libgmsh.so.4.8:_ZN11alglib_impl8ae_v_addEPdlPKdll
libgmsh.so.4.8:_ZN11alglib_impl8ae_v_lenEll
libgmsh.so.4.8:_ZN11alglib_impl8ae_v_subEPdlPKdll
libgmsh.so.4.8:_ZN11alglib_impl8boundvalEdddPNS_8ae_stateE
libgmsh.so.4.8:_ZN11alglib_impl8saferdivEddPdPNS_8ae_stateE
libgmsh.so.4.8:_ZN11alglib_impl9ae_assertEbPKcPNS_8ae_stateE
libgmsh.so.4.8:_ZN11alglib_impl9ae_c_conjENS_10ae_complexEPNS_8ae_stateE
libgmsh.so.4.8:_ZN11alglib_impl9ae_c_eq_dENS_10ae_complexEd
libgmsh.so.4.8:_ZN11alglib_impl9ae_fp_neqEdd
libgmsh.so.4.8:_ZN11alglib_impl9ae_ifloorEdPNS_8ae_stateE
libgmsh.so.4.8:_ZN11alglib_impl9ae_mallocEmPNS_8ae_stateE
libgmsh.so.4.8:_ZN11alglib_impl9ae_maxintEllPNS_8ae_stateE
libgmsh.so.4.8:_ZN11alglib_impl9ae_minintEllPNS_8ae_stateE
libgmsh.so.4.8:_ZN11alglib_impl9ae_sizeofEl
libgmsh.so.4.8:_ZN11alglib_impl9ae_v_adddEPdlPKdlld
libgmsh.so.4.8:_ZN11alglib_impl9ae_v_caddEPNS_10ae_complexElPKS0_lPKcl
libgmsh.so.4.8:_ZN11alglib_impl9ae_v_csubEPNS_10ae_complexElPKS0_lPKcl
libgmsh.so.4.8:_ZN11alglib_impl9ae_v_moveEPdlPKdll
libgmsh.so.4.8:_ZN11alglib_impl9ae_v_muldEPdlld
libgmsh.so.4.8:_ZN11alglib_impl9ae_v_subdEPdlPKdlld
libgmsh.so.4.8:_ZN11alglib_impl9cmatrixlqEPNS_9ae_matrixEllPNS_9ae_vectorEPNS_8ae_stateE
libgmsh.so.4.8:_ZN11alglib_impl9cmatrixluEPNS_9ae_matrixEllPNS_9ae_vectorEPNS_8ae_stateE
libgmsh.so.4.8:_ZN11alglib_impl9cmatrixmvEllPNS_9ae_matrixElllPNS_9ae_vectorElS3_lPNS_8ae_stateE
libgmsh.so.4.8:_ZN11alglib_impl9cmatrixqrEPNS_9ae_matrixEllPNS_9ae_vectorEPNS_8ae_stateE
libgmsh.so.4.8:_ZN11alglib_impl9hmatrixtdEPNS_9ae_matrixElbPNS_9ae_vectorES3_S3_PNS_8ae_stateE
libgmsh.so.4.8:_ZN11alglib_impl9hqrndseedEllPNS_10hqrndstateEPNS_8ae_stateE
libgmsh.so.4.8:_ZN11alglib_impl9recsearchEPNS_9ae_vectorEllllS1_PNS_8ae_stateE
libgmsh.so.4.8:_ZN11alglib_impl9rmatrixbdEPNS_9ae_matrixEllPNS_9ae_vectorES3_PNS_8ae_stateE
libgmsh.so.4.8:_ZN11alglib_impl9rmatrixlqEPNS_9ae_matrixEllPNS_9ae_vectorEPNS_8ae_stateE
libgmsh.so.4.8:_ZN11alglib_impl9rmatrixluEPNS_9ae_matrixEllPNS_9ae_vectorEPNS_8ae_stateE
libgmsh.so.4.8:_ZN11alglib_impl9rmatrixmvEllPNS_9ae_matrixElllPNS_9ae_vectorElS3_lPNS_8ae_stateE
libgmsh.so.4.8:_ZN11alglib_impl9rmatrixqrEPNS_9ae_matrixEllPNS_9ae_vectorEPNS_8ae_stateE
libgmsh.so.4.8:_ZN11alglib_impl9smatrixtdEPNS_9ae_matrixElbPNS_9ae_vectorES3_S3_PNS_8ae_stateE
libgmsh.so.4.8:_ZN11bezierBasis10_constructEv
libgmsh.so.4.8:_ZN11bezierBasis13_constructPyrEv
libgmsh.so.4.8:_ZN11bezierBasisC1E13FuncSpaceData
libgmsh.so.4.8:_ZN11bezierBasisC2E13FuncSpaceData
libgmsh.so.4.8:_ZN11bezierBasisD1Ev
libgmsh.so.4.8:_ZN11bezierBasisD2Ev
libgmsh.so.4.8:_ZN11bezierCoeff10_subdivideER10fullMatrixIdEii
libgmsh.so.4.8:_ZN11bezierCoeff10_subdivideER10fullMatrixIdEiii
libgmsh.so.4.8:_ZN11bezierCoeff12releasePoolsEv
libgmsh.so.4.8:_ZN11bezierCoeff13_subdivideTetENS_15_SubdivisionTetEiRS_
libgmsh.so.4.8:_ZN11bezierCoeff13updateDataPtrEl
libgmsh.so.4.8:_ZN11bezierCoeff15_subdividePrismERKS_RSt6vectorIPS_SaIS3_EE
libgmsh.so.4.8:_ZN11bezierCoeff17_subdividePyramidERKS_RSt6vectorIPS_SaIS3_EE
libgmsh.so.4.8:_ZN11bezierCoeff18_subdivideTriangleERKS_iRSt6vectorIPS_SaIS3_EE
libgmsh.so.4.8:_ZN11bezierCoeff20_computeCoefficientsEPKd
libgmsh.so.4.8:_ZN11bezierCoeff20_subdivideHexahedronERKS_RSt6vectorIPS_SaIS3_EE
libgmsh.so.4.8:_ZN11bezierCoeff20_subdivideQuadrangleERKS_RSt6vectorIPS_SaIS3_EE
libgmsh.so.4.8:_ZN11bezierCoeff21_subdivideTetrahedronERKS_RSt6vectorIPS_SaIS3_EE
libgmsh.so.4.8:_ZN11bezierCoeff5_copyERKS_iiRS_
libgmsh.so.4.8:_ZN11bezierCoeff8_copyHexERK10fullMatrixIdEiiiiRS_
libgmsh.so.4.8:_ZN11bezierCoeff8_copyPyrERK10fullMatrixIdEiiiiiRS_
libgmsh.so.4.8:_ZN11bezierCoeff8usePoolsEmm
libgmsh.so.4.8:_ZN11bezierCoeff9_copyLineERK10fullMatrixIdEiiRS_
libgmsh.so.4.8:_ZN11bezierCoeff9_copyQuadERK10fullMatrixIdEiiiRS_
libgmsh.so.4.8:_ZN11bezierCoeffC1E13FuncSpaceDataRK10fullMatrixIdEi
libgmsh.so.4.8:_ZN11bezierCoeffC1E13FuncSpaceDataRK10fullVectorIdEi
libgmsh.so.4.8:_ZN11bezierCoeffC1ERKS_b
libgmsh.so.4.8:_ZN11bezierCoeffC2E13FuncSpaceDataRK10fullMatrixIdEi
libgmsh.so.4.8:_ZN11bezierCoeffC2E13FuncSpaceDataRK10fullVectorIdEi
libgmsh.so.4.8:_ZN11bezierCoeffC2ERKS_b
libgmsh.so.4.8:_ZN11bezierCoeffD1Ev
libgmsh.so.4.8:_ZN11bezierCoeffD2Ev
libgmsh.so.4.8:_ZN11deMeshGEdgeclEP5GEdge
libgmsh.so.4.8:_ZN11deMeshGFaceclEP5GFace
libgmsh.so.4.8:_ZN11drawContext10drawScalesEv
libgmsh.so.4.8:_ZN11drawContext10drawSphereEddddi
libgmsh.so.4.8:_ZN11drawContext10drawSphereEddddiii
libgmsh.so.4.8:_ZN11drawContext10drawStringERKNSt7__cxx1112basic_stringIcSt11char_traitsIcESaIcEEEdddS7_iiii
libgmsh.so.4.8:_ZN11drawContext10drawStringERKNSt7__cxx1112basic_stringIcSt11char_traitsIcESaIcEEEddddi
libgmsh.so.4.8:_ZN11drawContext10drawStringERKNSt7__cxx1112basic_stringIcSt11char_traitsIcESaIcEEEdddi
libgmsh.so.4.8:_ZN11drawContext10drawText2dEv
libgmsh.so.4.8:_ZN11drawContext10drawVectorEiiddddddi
libgmsh.so.4.8:_ZN11drawContext11drawArrow3dEdddddddi
libgmsh.so.4.8:_ZN11drawContext11drawEllipseEdddPfS0_i
libgmsh.so.4.8:_ZN11drawContext11drawGraph2dEb
libgmsh.so.4.8:_ZN11drawContext12drawCylinderEdPdS0_S0_i
libgmsh.so.4.8:_ZN11drawContext12initPositionEb
libgmsh.so.4.8:_ZN11drawContext13addQuaternionEdddd
libgmsh.so.4.8:_ZN11drawContext13drawEllipsoidEdddPfS0_S0_i
libgmsh.so.4.8:_ZN11drawContext13drawSmallAxesEv
libgmsh.so.4.8:_ZN11drawContext13setQuaternionEdddd
libgmsh.so.4.8:_ZN11drawContext14initProjectionEiiii
libgmsh.so.4.8:_ZN11drawContext14viewport2WorldEPdS0_
libgmsh.so.4.8:_ZN11drawContext14world2ViewportEPdS0_
libgmsh.so.4.8:_ZN11drawContext15drawStringRightERKNSt7__cxx1112basic_stringIcSt11char_traitsIcESaIcEEEdddi
libgmsh.so.4.8:_ZN11drawContext15initRenderModelEv
libgmsh.so.4.8:_ZN11drawContext16drawStringCenterERKNSt7__cxx1112basic_stringIcSt11char_traitsIcESaIcEEEdddi
libgmsh.so.4.8:_ZN11drawContext16fix2dCoordinatesEPdS0_
libgmsh.so.4.8:_ZN11drawContext19buildRotationMatrixEv
libgmsh.so.4.8:_ZN11drawContext19drawBackgroundImageEb
libgmsh.so.4.8:_ZN11drawContext19drawTaperedCylinderEdddddPdS0_S0_i
libgmsh.so.4.8:_ZN11drawContext22drawBackgroundGradientEv
libgmsh.so.4.8:_ZN11drawContext22drawPlaneInBoundingBoxEddddddddddi
libgmsh.so.4.8:_ZN11drawContext23generateTextureForImageERKNSt7__cxx1112basic_stringIcSt11char_traitsIcESaIcEEEiRjS8_S8_
libgmsh.so.4.8:_ZN11drawContext24invalidateBgImageTextureEv
libgmsh.so.4.8:_ZN11drawContext25highResolutionPixelFactorEv
libgmsh.so.4.8:_ZN11drawContext28setDrawGeomTransientFunctionEPFvPvE
libgmsh.so.4.8:_ZN11drawContext28setQuaternionFromEulerAnglesEv
libgmsh.so.4.8:_ZN11drawContext29addQuaternionFromAxisAndAngleEPdd
libgmsh.so.4.8:_ZN11drawContext29createQuadricsAndDisplayListsEv
libgmsh.so.4.8:_ZN11drawContext31recenterForRotationCenterChangeE7SPoint3
libgmsh.so.4.8:_ZN11drawContext32setEulerAnglesFromRotationMatrixEv
libgmsh.so.4.8:_ZN11drawContext33invalidateQuadricsAndDisplayListsEv
libgmsh.so.4.8:_ZN11drawContext6draw2dEv
libgmsh.so.4.8:_ZN11drawContext6draw3dEv
libgmsh.so.4.8:_ZN11drawContext6globalEv
libgmsh.so.4.8:_ZN11drawContext6selectEibbbiiiiRSt6vectorIP7GVertexSaIS2_EERS0_IP5GEdgeSaIS7_EERS0_IP5GFaceSaISC_EERS0_IP7GRegionSaISH_EERS0_IP8MElementSaISM_EERS0_I7SPoint2SaISQ_EERS0_IP5PViewSaISV_EE
libgmsh.so.4.8:_ZN11drawContext7drawBoxEddddddb
libgmsh.so.4.8:_ZN11drawContext8drawAxesEiPdPNSt7__cxx1112basic_stringIcSt11char_traitsIcESaIcEEES7_R14SBoundingBox3diS9_
libgmsh.so.4.8:_ZN11drawContext8drawAxesEiPdPNSt7__cxx1112basic_stringIcSt11char_traitsIcESaIcEEES7_S0_iS0_
libgmsh.so.4.8:_ZN11drawContext8drawAxesEv
libgmsh.so.4.8:_ZN11drawContext8drawAxisEddddddii
libgmsh.so.4.8:_ZN11drawContext8drawCubeEdddPdi
libgmsh.so.4.8:_ZN11drawContext8drawGeomEv
libgmsh.so.4.8:_ZN11drawContext8drawMeshEv
libgmsh.so.4.8:_ZN11drawContext8drawPostEv
libgmsh.so.4.8:_ZN11drawContext9drawImageERKNSt7__cxx1112basic_stringIcSt11char_traitsIcESaIcEEEdddi
libgmsh.so.4.8:_ZN11drawContext9unprojectEddPdS0_
libgmsh.so.4.8:_ZN11drawContextC1EP12openglWindowP13drawTransform
libgmsh.so.4.8:_ZN11drawContextC2EP12openglWindowP13drawTransform
libgmsh.so.4.8:_ZN11drawContextD1Ev
libgmsh.so.4.8:_ZN11drawContextD2Ev
libgmsh.so.4.8:_ZN11fieldWindow13loadFieldListEv
libgmsh.so.4.8:_ZN11fieldWindow16loadFieldOptionsEv
libgmsh.so.4.8:_ZN11fieldWindow16saveFieldOptionsEv
libgmsh.so.4.8:_ZN11fieldWindow17loadFieldViewListEv
libgmsh.so.4.8:_ZN11fieldWindow9editFieldEP5Field
libgmsh.so.4.8:_ZN11fieldWindowC1Ei
libgmsh.so.4.8:_ZN11fieldWindowC2Ei
libgmsh.so.4.8:_ZN11gmshSurface10getSurfaceEi
libgmsh.so.4.8:_ZN11gmshSurface12parFromPointEddd
libgmsh.so.4.8:_ZN11gmshSurface19getMetricEigenvalueERK7SPoint2
libgmsh.so.4.8:_ZN11gmshSurface8firstDerERK7SPoint2
libgmsh.so.4.8:_ZN11manipWindow4showEv
libgmsh.so.4.8:_ZN11manipWindow6updateEb
libgmsh.so.4.8:_ZN11manipWindowC1Ei
libgmsh.so.4.8:_ZN11manipWindowC2Ei
libgmsh.so.4.8:_ZN11meshGRegionclEP7GRegion
libgmsh.so.4.8:_ZN11onelabGroup11rebuildTreeEb
libgmsh.so.4.8:_ZN11onelabGroup12_addViewMenuEi
libgmsh.so.4.8:_ZN11onelabGroup12openTreeItemERKNSt7__cxx1112basic_stringIcSt11char_traitsIcESaIcEEE
libgmsh.so.4.8:_ZN11onelabGroup13_addGmshMenusEv
libgmsh.so.4.8:_ZN11onelabGroup13closeTreeItemERKNSt7__cxx1112basic_stringIcSt11char_traitsIcESaIcEEE
libgmsh.so.4.8:_ZN11onelabGroup13getViewButtonEi
libgmsh.so.4.8:_ZN11onelabGroup13setButtonModeERKNSt7__cxx1112basic_stringIcSt11char_traitsIcESaIcEEES7_
libgmsh.so.4.8:_ZN11onelabGroup14_addSolverMenuEi
libgmsh.so.4.8:_ZN11onelabGroup14_computeWidthsEv
libgmsh.so.4.8:_ZN11onelabGroup14checkForErrorsERKNSt7__cxx1112basic_stringIcSt11char_traitsIcESaIcEEE
libgmsh.so.4.8:_ZN11onelabGroup14updateGearMenuEv
libgmsh.so.4.8:_ZN11onelabGroup17rebuildSolverListEv
libgmsh.so.4.8:_ZN11onelabGroup19_getClosedGmshMenusB5cxx11Ev
libgmsh.so.4.8:_ZN11onelabGroup19openCloseViewButtonEi
libgmsh.so.4.8:_ZN11onelabGroup19setButtonVisibilityEv
libgmsh.so.4.8:_ZN11onelabGroup6isBusyEv
libgmsh.so.4.8:_ZN11onelabGroup7getPathB5cxx11EP12Fl_Tree_Item
libgmsh.so.4.8:_ZN11onelabGroup8_addMenuERKNSt7__cxx1112basic_stringIcSt11char_traitsIcESaIcEEEPFvP9Fl_WidgetPvESA_
libgmsh.so.4.8:_ZN11onelabGroup9addSolverERKNSt7__cxx1112basic_stringIcSt11char_traitsIcESaIcEEES7_S7_i
libgmsh.so.4.8:_ZN11onelabGroupC1EiiiiPKc
libgmsh.so.4.8:_ZN11onelabGroupC2EiiiiPKc
libgmsh.so.4.8:_ZN11onelabUtils11updateGraphERKNSt7__cxx1112basic_stringIcSt11char_traitsIcESaIcEEE
libgmsh.so.4.8:_ZN11onelabUtils12updateGraphsEv
libgmsh.so.4.8:_ZN11onelabUtils12updateNumberERN6onelab6numberES2_b
libgmsh.so.4.8:_ZN11onelabUtils12updateStringB5cxx11ERN6onelab6stringES2_
libgmsh.so.4.8:_ZN11onelabUtils13incrementLoopERKNSt7__cxx1112basic_stringIcSt11char_traitsIcESaIcEEE
libgmsh.so.4.8:_ZN11onelabUtils13runGmshClientERKNSt7__cxx1112basic_stringIcSt11char_traitsIcESaIcEEEi
libgmsh.so.4.8:_ZN11onelabUtils14getCommandLineB5cxx11EPN6onelab6clientE
libgmsh.so.4.8:_ZN11onelabUtils14getMshFileNameB5cxx11EPN6onelab6clientE
libgmsh.so.4.8:_ZN11onelabUtils14guessModelNameEPN6onelab6clientE
libgmsh.so.4.8:_ZN11onelabUtils14incrementLoopsEv
libgmsh.so.4.8:_ZN11onelabUtils14initializeLoopERKNSt7__cxx1112basic_stringIcSt11char_traitsIcESaIcEEE
libgmsh.so.4.8:_ZN11onelabUtils15haveSolverToRunEv
libgmsh.so.4.8:_ZN11onelabUtils15initializeLoopsEv
libgmsh.so.4.8:_ZN11onelabUtils18archiveOutputFilesERKNSt7__cxx1112basic_stringIcSt11char_traitsIcESaIcEEE
libgmsh.so.4.8:_ZN11onelabUtils20archiveSolutionFilesERKNSt7__cxx1112basic_stringIcSt11char_traitsIcESaIcEEE
libgmsh.so.4.8:_ZN11onelabUtils23getFirstComputationFlagEv
libgmsh.so.4.8:_ZN11onelabUtils23setFirstComputationFlagEb
libgmsh.so.4.8:_ZN11onelabUtils6loadDbERKNSt7__cxx1112basic_stringIcSt11char_traitsIcESaIcEEE
libgmsh.so.4.8:_ZN11onelabUtils6saveDbERKNSt7__cxx1112basic_stringIcSt11char_traitsIcESaIcEEE
libgmsh.so.4.8:_ZN11onelabUtils7resetDbEb
libgmsh.so.4.8:_ZN11onelabUtils8getRangeERN6onelab6numberE
libgmsh.so.4.8:_ZN11onelabUtils9runClientERKNSt7__cxx1112basic_stringIcSt11char_traitsIcESaIcEEES7_
libgmsh.so.4.8:_ZN11onelabUtils9timeStampB5cxx11Ev
libgmsh.so.4.8:_ZN11outputRange14_graph_menu_cbEP9Fl_WidgetPv
libgmsh.so.4.8:_ZN11outputRange20_graph_menu_reset_cbEP9Fl_WidgetPv
libgmsh.so.4.8:_ZN11smooth_data3addEdddiPd
libgmsh.so.4.8:_ZN11smooth_data9add_scaleEdddd
libgmsh.so.4.8:_ZN11smooth_data9normalizeEv
libgmsh.so.4.8:_ZN11voroMetal3D11get_counterEv
libgmsh.so.4.8:_ZN11voroMetal3D13print_segmentE7SPoint3S0_RSt14basic_ofstreamIcSt11char_traitsIcEE
libgmsh.so.4.8:_ZN11voroMetal3D14correspondanceEdddd
libgmsh.so.4.8:_ZN11voroMetal3D14correspondanceEddddRiddd
libgmsh.so.4.8:_ZN11voroMetal3D14correspondanceEddddiRbddd
libgmsh.so.4.8:_ZN11voroMetal3D14print_geo_faceEiiRSt14basic_ofstreamIcSt11char_traitsIcEE
libgmsh.so.4.8:_ZN11voroMetal3D14print_geo_lineEiiiRSt14basic_ofstreamIcSt11char_traitsIcEE
libgmsh.so.4.8:_ZN11voroMetal3D15print_geo_pointEidddRSt14basic_ofstreamIcSt11char_traitsIcEE
libgmsh.so.4.8:_ZN11voroMetal3D16increase_counterEv
libgmsh.so.4.8:_ZN11voroMetal3D16print_geo_volumeEiiRSt14basic_ofstreamIcSt11char_traitsIcEE
libgmsh.so.4.8:_ZN11voroMetal3D18initialize_counterEv
libgmsh.so.4.8:_ZN11voroMetal3D19print_geo_face_loopEiRSt6vectorIiSaIiEERSt14basic_ofstreamIcSt11char_traitsIcEE
libgmsh.so.4.8:_ZN11voroMetal3D19print_geo_line_loopEiRSt6vectorIiSaIiEES3_RSt14basic_ofstreamIcSt11char_traitsIcEE
libgmsh.so.4.8:_ZN11voroMetal3D23print_geo_physical_faceEiiRSt14basic_ofstreamIcSt11char_traitsIcEE
libgmsh.so.4.8:_ZN11voroMetal3D25print_geo_physical_volumeEiiRSt14basic_ofstreamIcSt11char_traitsIcEE
libgmsh.so.4.8:_ZN11voroMetal3D5equalEddd
libgmsh.so.4.8:_ZN11voroMetal3D7executeEP7GRegiond
libgmsh.so.4.8:_ZN11voroMetal3D7executeERSt6vectorI7SPoint3SaIS1_EERS0_IdSaIdEEidddd
libgmsh.so.4.8:_ZN11voroMetal3D7executeERSt6vectorIdSaIdEEidddd
libgmsh.so.4.8:_ZN11voroMetal3D7executeEd
libgmsh.so.4.8:_ZN12ANNbd_shrink10ann_searchEd
libgmsh.so.4.8:_ZN12ANNbd_shrink13ann_FR_searchEd
libgmsh.so.4.8:_ZN12ANNbd_shrink14ann_pri_searchEd
libgmsh.so.4.8:_ZN12ANNbd_shrink4dumpERSo
libgmsh.so.4.8:_ZN12ANNbd_shrink5printEiRSo
libgmsh.so.4.8:_ZN12ANNbd_shrink8getStatsEiR10ANNkdStatsR11ANNorthRect
libgmsh.so.4.8:_ZN12BasisFactory13getNodalBasisEi
libgmsh.so.4.8:_ZN12BasisFactory14getBezierBasisE13FuncSpaceData
libgmsh.so.4.8:_ZN12BasisFactory14getBezierBasisEi
libgmsh.so.4.8:_ZN12BasisFactory14getBezierBasisEii
libgmsh.so.4.8:_ZN12BasisFactory15getCondNumBasisEii
libgmsh.so.4.8:_ZN12BasisFactory16getGradientBasisEi
libgmsh.so.4.8:_ZN12BasisFactory16getGradientBasisEi13FuncSpaceData
libgmsh.so.4.8:_ZN12BasisFactory16getGradientBasisEii
libgmsh.so.4.8:_ZN12BasisFactory16getJacobianBasisEi
libgmsh.so.4.8:_ZN12BasisFactory16getJacobianBasisEi13FuncSpaceData
libgmsh.so.4.8:_ZN12BasisFactory16getJacobianBasisEii
libgmsh.so.4.8:_ZN12BasisFactory8clearAllEv
libgmsh.so.4.8:_ZN12ChainComplex10getTorsionEii
libgmsh.so.4.8:_ZN12ChainComplex10matrixTestEv
libgmsh.so.4.8:_ZN12ChainComplex11deformChainERSt3mapIP4Celli15CellPtrLessThanSaISt4pairIKS2_iEEES4_IS2_iEb
libgmsh.so.4.8:_ZN12ChainComplex12getBasisSizeEii
libgmsh.so.4.8:_ZN12ChainComplex13deImmuneCellsERSt3mapIP4Celli15CellPtrLessThanSaISt4pairIKS2_iEEE
libgmsh.so.4.8:_ZN12ChainComplex13getBasisChainERSt3mapIP4Celli15CellPtrLessThanSaISt4pairIKS2_iEEEiiib
libgmsh.so.4.8:_ZN12ChainComplex13smoothenChainERSt3mapIP4Celli15CellPtrLessThanSaISt4pairIKS2_iEEE
libgmsh.so.4.8:_ZN12ChainComplex14eraseNullCellsERSt3mapIP4Celli15CellPtrLessThanSaISt4pairIKS2_iEEE
libgmsh.so.4.8:_ZN12ChainComplex14getCoeffVectorEii
libgmsh.so.4.8:_ZN12ChainComplex15computeHomologyEb
libgmsh.so.4.8:_ZN12ChainComplex16transposeHMatrixEi
libgmsh.so.4.8:_ZN12ChainComplex18transposeHMatricesEv
libgmsh.so.4.8:_ZN12ChainComplex6KerCodEi
libgmsh.so.4.8:_ZN12ChainComplex6deformERSt3mapIP4Celli15CellPtrLessThanSaISt4pairIKS2_iEEES9_S9_
libgmsh.so.4.8:_ZN12ChainComplex8QuotientEii
libgmsh.so.4.8:_ZN12ChainComplex8getBasisEii
libgmsh.so.4.8:_ZN12ChainComplex9InclusionEii
libgmsh.so.4.8:_ZN12ChainComplexC1EP11CellComplexi
libgmsh.so.4.8:_ZN12ChainComplexC2EP11CellComplexi
libgmsh.so.4.8:_ZN12ChainComplexD1Ev
libgmsh.so.4.8:_ZN12ChainComplexD2Ev
libgmsh.so.4.8:_ZN12CombinedCellC1EP4CellS1_bb
libgmsh.so.4.8:_ZN12CombinedCellC1ERSt6vectorIP4CellSaIS2_EE
libgmsh.so.4.8:_ZN12CombinedCellC2EP4CellS1_bb
libgmsh.so.4.8:_ZN12CombinedCellC2ERSt6vectorIP4CellSaIS2_EE
libgmsh.so.4.8:_ZN12CondNumBasis12condNumOrderEi
libgmsh.so.4.8:_ZN12CondNumBasis12condNumOrderEii
libgmsh.so.4.8:_ZN12CondNumBasisC1Eii
libgmsh.so.4.8:_ZN12CondNumBasisC2Eii
libgmsh.so.4.8:_ZN12FieldManager10initializeEv
libgmsh.so.4.8:_ZN12FieldManager11deleteFieldEi
libgmsh.so.4.8:_ZN12FieldManager17setBackgroundMeshEi
libgmsh.so.4.8:_ZN12FieldManager18setBackgroundFieldEP5Field
libgmsh.so.4.8:_ZN12FieldManager3getEi
libgmsh.so.4.8:_ZN12FieldManager5maxIdEv
libgmsh.so.4.8:_ZN12FieldManager5newIdEv
libgmsh.so.4.8:_ZN12FieldManager5resetEv
libgmsh.so.4.8:_ZN12FieldManager8newFieldEiRKNSt7__cxx1112basic_stringIcSt11char_traitsIcESaIcEEE
libgmsh.so.4.8:_ZN12FieldManagerC1Ev
libgmsh.so.4.8:_ZN12FieldManagerC2Ev
libgmsh.so.4.8:_ZN12FieldManagerD1Ev
libgmsh.so.4.8:_ZN12FieldManagerD2Ev
libgmsh.so.4.8:_ZN12GenericField19setCallbackWithDataEPFbdddPvRdES0_
libgmsh.so.4.8:_ZN12GenericField19setCallbackWithDataEPFbdddPvS0_RdES0_
libgmsh.so.4.8:_ZN12GenericFieldC1Ev
libgmsh.so.4.8:_ZN12GenericFieldC2Ev
libgmsh.so.4.8:_ZN12GenericFieldD0Ev
libgmsh.so.4.8:_ZN12GenericFieldD1Ev
libgmsh.so.4.8:_ZN12GenericFieldD2Ev
libgmsh.so.4.8:_ZN12GenericFieldclEdddP7GEntity
libgmsh.so.4.8:_ZN12HilbertSortB15ComputeGrayCodeEi
libgmsh.so.4.8:_ZN12HilbertSortB4SortEPP4Vertiiiddddddi
libgmsh.so.4.8:_ZN12HilbertSortB5SplitEPP4Vertiiidddddd
libgmsh.so.4.8:_ZN12MHexahedronN10getEdgeRepEbiPdS0_S0_P8SVector3
libgmsh.so.4.8:_ZN12MHexahedronN10getFaceRepEbiPdS0_S0_P8SVector3
libgmsh.so.4.8:_ZN12MHexahedronN14getNumEdgesRepEb
libgmsh.so.4.8:_ZN12MHexahedronN14getNumFacesRepEb
libgmsh.so.4.8:_ZN12MHexahedronN7reverseEv
libgmsh.so.4.8:_ZN12MQuadrangle810getEdgeRepEbiPdS0_S0_P8SVector3
libgmsh.so.4.8:_ZN12MQuadrangle810getFaceRepEbiPdS0_S0_P8SVector3
libgmsh.so.4.8:_ZN12MQuadrangle814getNumEdgesRepEb
libgmsh.so.4.8:_ZN12MQuadrangle814getNumFacesRepEb
libgmsh.so.4.8:_ZN12MQuadrangle816getHighOrderFaceEiii
libgmsh.so.4.8:_ZN12MQuadrangle88reorientEib
libgmsh.so.4.8:_ZN12MQuadrangle910getEdgeRepEbiPdS0_S0_P8SVector3
libgmsh.so.4.8:_ZN12MQuadrangle910getFaceRepEbiPdS0_S0_P8SVector3
libgmsh.so.4.8:_ZN12MQuadrangle914getNumEdgesRepEb
libgmsh.so.4.8:_ZN12MQuadrangle914getNumFacesRepEb
libgmsh.so.4.8:_ZN12MQuadrangle916getHighOrderFaceEiii
libgmsh.so.4.8:_ZN12MQuadrangle98reorientEib
libgmsh.so.4.8:_ZN12MQuadrangleN10getEdgeRepEbiPdS0_S0_P8SVector3
libgmsh.so.4.8:_ZN12MQuadrangleN10getFaceRepEbiPdS0_S0_P8SVector3
libgmsh.so.4.8:_ZN12MQuadrangleN14getNumEdgesRepEb
libgmsh.so.4.8:_ZN12MQuadrangleN14getNumFacesRepEb
libgmsh.so.4.8:_ZN12MQuadrangleN16getHighOrderFaceEiii
libgmsh.so.4.8:_ZN12MQuadrangleN7reverseEv
libgmsh.so.4.8:_ZN12MQuadrangleN8reorientEib
libgmsh.so.4.8:_ZN12MSubTriangle12updateParentEP6GModel
libgmsh.so.4.8:_ZN12MSubTriangle20getIntegrationPointsEiPiPP5IntPt
libgmsh.so.4.8:_ZN12MSubTriangle20getShapeFunctionNodeEi
libgmsh.so.4.8:_ZN12MSubTriangleD0Ev
libgmsh.so.4.8:_ZN12MSubTriangleD1Ev
libgmsh.so.4.8:_ZN12MSubTriangleD2Ev
libgmsh.so.4.8:_ZN12MTetrahedron10getEdgeRepEbiPdS0_S0_P8SVector3
libgmsh.so.4.8:_ZN12MTetrahedron12circumcenterEv
libgmsh.so.4.8:_ZN12MTetrahedron14getInnerRadiusEv
libgmsh.so.4.8:_ZN12MTetrahedron15etaShapeMeasureEv
libgmsh.so.4.8:_ZN12MTetrahedron15getCircumRadiusEv
libgmsh.so.4.8:_ZN12MTetrahedron17gammaShapeMeasureEv
libgmsh.so.4.8:_ZN12MTetrahedron20getIntegrationPointsEiPiPP5IntPt
libgmsh.so.4.8:_ZN12MTetrahedron9getVolumeEv
libgmsh.so.4.8:_ZN12MVertexRTree14rtree_callbackEP7MVertexPv
libgmsh.so.4.8:_ZN12NativeClient7analyzeEv
libgmsh.so.4.8:_ZN12NativeClient7computeEv
libgmsh.so.4.8:_ZN12PEQuadrangleC1ERKSt6vectorIP7MVertexSaIS2_EE
libgmsh.so.4.8:_ZN12PEQuadrangleC2ERKSt6vectorIP7MVertexSaIS2_EE
libgmsh.so.4.8:_ZN12PEQuadrangleD0Ev
libgmsh.so.4.8:_ZN12PEQuadrangleD1Ev
libgmsh.so.4.8:_ZN12PEQuadrangleD2Ev
libgmsh.so.4.8:_ZN12PViewFactory10createViewEv
libgmsh.so.4.8:_ZN12PViewFactory8setEntryEiRK10fullMatrixIdE
libgmsh.so.4.8:_ZN12PViewFactoryC1ENSt7__cxx1112basic_stringIcSt11char_traitsIcESaIcEEES5_P6GModelii
libgmsh.so.4.8:_ZN12PViewFactoryC2ENSt7__cxx1112basic_stringIcSt11char_traitsIcESaIcEEES5_P6GModelii
libgmsh.so.4.8:_ZN12PViewOptions11skipElementEi
libgmsh.so.4.8:_ZN12PViewOptions13getScaleIndexEdiddb
libgmsh.so.4.8:_ZN12PViewOptions13getScaleValueEiidd
libgmsh.so.4.8:_ZN12PViewOptions18createGeneralRaiseEv
libgmsh.so.4.8:_ZN12PViewOptions8getColorEdddbi
libgmsh.so.4.8:_ZN12PViewOptions8getColorEii
libgmsh.so.4.8:_ZN12PViewOptions9referenceEv
libgmsh.so.4.8:_ZN12PViewOptionsC1Ev
libgmsh.so.4.8:_ZN12PViewOptionsC2Ev
libgmsh.so.4.8:_ZN12PViewOptionsD1Ev
libgmsh.so.4.8:_ZN12PViewOptionsD2Ev
libgmsh.so.4.8:_ZN12Recombinator11conformityAERK3Hex
libgmsh.so.4.8:_ZN12Recombinator11conformityBERK3Hex
libgmsh.so.4.8:_ZN12Recombinator11conformityCERK3Hex
libgmsh.so.4.8:_ZN12Recombinator12build_tuplesEv
libgmsh.so.4.8:_ZN12Recombinator13init_markingsEv
libgmsh.so.4.8:_ZN12Recombinator13print_segmentERK7SPoint3S2_RSt14basic_ofstreamIcSt11char_traitsIcEE
libgmsh.so.4.8:_ZN12Recombinator14faces_statuquoEP7MVertexS1_S1_S1_
libgmsh.so.4.8:_ZN12Recombinator14faces_statuquoERK3Hex
libgmsh.so.4.8:_ZN12Recombinator15scaled_jacobianEP7MVertexS1_S1_S1_
libgmsh.so.4.8:_ZN12Recombinator16print_statisticsEv
libgmsh.so.4.8:_ZN12Recombinator17build_hash_tableAERK3Hex
libgmsh.so.4.8:_ZN12Recombinator17build_hash_tableBERK3Hex
libgmsh.so.4.8:_ZN12Recombinator17build_hash_tableCERK3Hex
libgmsh.so.4.8:_ZN12Recombinator17print_hash_tableAEv
libgmsh.so.4.8:_ZN12Recombinator19max_scaled_jacobianEP8MElementRi
libgmsh.so.4.8:_ZN12Recombinator19min_scaled_jacobianER3Hex
libgmsh.so.4.8:_ZN12Recombinator24create_quads_on_boundaryEP7MVertexS1_S1_S1_
libgmsh.so.4.8:_ZN12Recombinator24create_quads_on_boundaryEv
libgmsh.so.4.8:_ZN12Recombinator24is_potential_hex_conformERK3Hex
libgmsh.so.4.8:_ZN12Recombinator25add_or_free_potential_hexEP3Hex
libgmsh.so.4.8:_ZN12Recombinator26add_hex_to_region_if_validERK3Hex
libgmsh.so.4.8:_ZN12Recombinator28set_region_elements_positiveEv
libgmsh.so.4.8:_ZN12Recombinator5mergeEv
libgmsh.so.4.8:_ZN12Recombinator7executeEP7GRegion
libgmsh.so.4.8:_ZN12Recombinator7executeEv
libgmsh.so.4.8:_ZN12Recombinator8pattern1Ev
libgmsh.so.4.8:_ZN12Recombinator8pattern2Ev
libgmsh.so.4.8:_ZN12Recombinator8pattern3Ev
libgmsh.so.4.8:_ZN12Recombinator9mark_tetsERKSt3setIP8MElementSt4lessIS2_ESaIS2_EE
libgmsh.so.4.8:_ZN12RecombinatorD0Ev
libgmsh.so.4.8:_ZN12RecombinatorD1Ev
libgmsh.so.4.8:_ZN12RecombinatorD2Ev
libgmsh.so.4.8:_ZN12RecurElement3cutEiPK10DI_ElementRSt6vectorIP9gLevelsetSaIS5_EEdPPd
libgmsh.so.4.8:_ZN12RecurElement4rootEv
libgmsh.so.4.8:_ZN12RecurElementC1EPK10DI_Element
libgmsh.so.4.8:_ZN12RecurElementC2EPK10DI_Element
libgmsh.so.4.8:_ZN12RecurElementD1Ev
libgmsh.so.4.8:_ZN12RecurElementD2Ev
libgmsh.so.4.8:_ZN12adaptiveData15countTotElmLev0EiP9PViewData
libgmsh.so.4.8:_ZN12adaptiveData16changeResolutionEiidP15GMSH_PostPlugin
libgmsh.so.4.8:_ZN12adaptiveData22changeResolutionForVTKEiidibRKNSt7__cxx1112basic_stringIcSt11char_traitsIcESaIcEEEi
libgmsh.so.4.8:_ZN12adaptiveDataC1EP9PViewDatab
libgmsh.so.4.8:_ZN12adaptiveDataC2EP9PViewDatab
libgmsh.so.4.8:_ZN12adaptiveDataD1Ev
libgmsh.so.4.8:_ZN12adaptiveDataD2Ev
libgmsh.so.4.8:_ZN12adaptiveLine10recurErrorEPS_dd
libgmsh.so.4.8:_ZN12adaptiveLine11recurCreateEPS_ii
libgmsh.so.4.8:_ZN12adaptiveLine5errorEdd
libgmsh.so.4.8:_ZN12adaptiveLine6createEi
libgmsh.so.4.8:_ZN12crossField2dC1EP7MVertexP5GEdge
libgmsh.so.4.8:_ZN12crossField2dC2EP7MVertexP5GEdge
libgmsh.so.4.8:_ZN12discreteEdge14createGeometryEv
libgmsh.so.4.8:_ZN12discreteEdge19readParametrizationEP8_IO_FILEb
libgmsh.so.4.8:_ZN12discreteEdge20writeParametrizationEP8_IO_FILEb
libgmsh.so.4.8:_ZN12discreteEdge4meshEb
libgmsh.so.4.8:_ZN12discreteEdgeC1EP6GModel
libgmsh.so.4.8:_ZN12discreteEdgeC1EP6GModeli
libgmsh.so.4.8:_ZN12discreteEdgeC1EP6GModeliP7GVertexS3_
libgmsh.so.4.8:_ZN12discreteEdgeC2EP6GModel
libgmsh.so.4.8:_ZN12discreteEdgeC2EP6GModeli
libgmsh.so.4.8:_ZN12discreteEdgeC2EP6GModeliP7GVertexS3_
libgmsh.so.4.8:_ZN12discreteFace13containsParamERK7SPoint2
libgmsh.so.4.8:_ZN12discreteFace14createGeometryEv
libgmsh.so.4.8:_ZN12discreteFace18_computeSTLNormalsEv
libgmsh.so.4.8:_ZN12discreteFace19readParametrizationEP8_IO_FILEb
libgmsh.so.4.8:_ZN12discreteFace20writeParametrizationEP8_IO_FILEb
libgmsh.so.4.8:_ZN12discreteFace21_debugParametrizationEb
libgmsh.so.4.8:_ZN12discreteFace22_createGeometryFromSTLEv
libgmsh.so.4.8:_ZN12discreteFace22intersectionWithCircleERK8SVector3S2_S2_RKdPd
libgmsh.so.4.8:_ZN12discreteFace4meshEb
libgmsh.so.4.8:_ZN12discreteFace5param11checkPlanarEv
libgmsh.so.4.8:_ZN12discreteFace5param5clearEv
libgmsh.so.4.8:_ZN12discreteFace5paramD1Ev
libgmsh.so.4.8:_ZN12discreteFace5paramD2Ev
libgmsh.so.4.8:_ZN12discreteFaceC1EP6GModel
libgmsh.so.4.8:_ZN12discreteFaceC1EP6GModeli
libgmsh.so.4.8:_ZN12discreteFaceC2EP6GModel
libgmsh.so.4.8:_ZN12discreteFaceC2EP6GModeli
libgmsh.so.4.8:_ZN12gLevelsetBoxC1EPKdS1_S1_S1_RS0_S2_S2_i
libgmsh.so.4.8:_ZN12gLevelsetBoxC1EPKdS1_S1_S1_S1_S1_S1_S1_i
libgmsh.so.4.8:_ZN12gLevelsetBoxC1ERKS_
libgmsh.so.4.8:_ZN12gLevelsetBoxC2EPKdS1_S1_S1_RS0_S2_S2_i
libgmsh.so.4.8:_ZN12gLevelsetBoxC2EPKdS1_S1_S1_S1_S1_S1_S1_i
libgmsh.so.4.8:_ZN12gLevelsetBoxC2ERKS_
libgmsh.so.4.8:_ZN12miniBasisTetC1Ev
libgmsh.so.4.8:_ZN12miniBasisTetC2Ev
libgmsh.so.4.8:_ZN12miniBasisTriC1Ev
libgmsh.so.4.8:_ZN12miniBasisTriC2Ev
libgmsh.so.4.8:_ZN12openglWindow11_drawBorderEv
libgmsh.so.4.8:_ZN12openglWindow11drawTooltipERKNSt7__cxx1112basic_stringIcSt11char_traitsIcESaIcEEE
libgmsh.so.4.8:_ZN12openglWindow12selectEntityEiRSt6vectorIP7GVertexSaIS2_EERS0_IP5GEdgeSaIS7_EERS0_IP5GFaceSaISC_EERS0_IP7GRegionSaISH_EERS0_IP8MElementSaISM_EERS0_I7SPoint2SaISQ_EERS0_IP5PViewSaISV_EE
libgmsh.so.4.8:_ZN12openglWindow15_setLastHandledEPS_
libgmsh.so.4.8:_ZN12openglWindow15moveWithGamepadEv
libgmsh.so.4.8:_ZN12openglWindow18_drawScreenMessageEv
libgmsh.so.4.8:_ZN12openglWindow4drawEv
libgmsh.so.4.8:_ZN12openglWindow4showEv
libgmsh.so.4.8:_ZN12openglWindow6handleEi
libgmsh.so.4.8:_ZN12openglWindow7_selectEibbbiiiiRSt6vectorIP7GVertexSaIS2_EERS0_IP5GEdgeSaIS7_EERS0_IP5GFaceSaISC_EERS0_IP7GRegionSaISH_EERS0_IP8MElementSaISM_EERS0_I7SPoint2SaISQ_EERS0_IP5PViewSaISV_EE
libgmsh.so.4.8:_ZN12openglWindow7pixel_hEv
libgmsh.so.4.8:_ZN12openglWindow7pixel_wEv
libgmsh.so.4.8:_ZN12openglWindowC1Eiiii
libgmsh.so.4.8:_ZN12openglWindowC2Eiiii
libgmsh.so.4.8:_ZN12openglWindowD0Ev
libgmsh.so.4.8:_ZN12openglWindowD1Ev
libgmsh.so.4.8:_ZN12openglWindowD2Ev
libgmsh.so.4.8:_ZN12optionWindow12resetBrowserEv
libgmsh.so.4.8:_ZN12optionWindow15updateViewGroupEi
libgmsh.so.4.8:_ZN12optionWindow21resetExternalViewListEv
libgmsh.so.4.8:_ZN12optionWindow8activateEPKc
libgmsh.so.4.8:_ZN12optionWindow9showGroupEibb
libgmsh.so.4.8:_ZN12optionWindowC1Ei
libgmsh.so.4.8:_ZN12optionWindowC2Ei
libgmsh.so.4.8:_ZN12pluginWindow16_createDialogBoxEP11GMSH_Pluginiiii
libgmsh.so.4.8:_ZN12pluginWindow16resetViewBrowserEv
libgmsh.so.4.8:_ZN12pluginWindow4showEi
libgmsh.so.4.8:_ZN12pluginWindowC1Ei
libgmsh.so.4.8:_ZN12pluginWindowC2Ei
libgmsh.so.4.8:_ZN12qmHexahedron6anglesEP11MHexahedron
libgmsh.so.4.8:_ZN12qmQuadrangle15NCJAndGradientsERK7SPoint3S2_S2_S2_RK8SVector3RSt6vectorIdSaIdEES9_
libgmsh.so.4.8:_ZN12qmQuadrangle3NCJERK7SPoint3S2_S2_S2_RK8SVector3RSt6vectorIdSaIdEE
libgmsh.so.4.8:_ZN12qmQuadrangle3etaEP11MQuadrangle
libgmsh.so.4.8:_ZN12qmQuadrangle6anglesEP11MQuadrangle
libgmsh.so.4.8:_ZN12qmQuadrangle8NCJRangeEPK11MQuadrangleRdS3_
libgmsh.so.4.8:_ZN12remoteClient13syncInputFileERKNSt7__cxx1112basic_stringIcSt11char_traitsIcESaIcEEES7_
libgmsh.so.4.8:_ZN12remoteClient14syncOutputFileERKNSt7__cxx1112basic_stringIcSt11char_traitsIcESaIcEEES7_
libgmsh.so.4.8:_ZN12remoteClient16checkCommandLineERKNSt7__cxx1112basic_stringIcSt11char_traitsIcESaIcEEE
libgmsh.so.4.8:_ZN12remoteClient20checkIfPresentRemoteERKNSt7__cxx1112basic_stringIcSt11char_traitsIcESaIcEEE
libgmsh.so.4.8:_ZN12solverButtonC1Eiiiiij
libgmsh.so.4.8:_ZN12solverButtonC2Eiiiiij
libgmsh.so.4.8:_ZN13ANNbruteForce10annkSearchEPdiPiS0_d
libgmsh.so.4.8:_ZN13ANNbruteForce12annkFRSearchEPddiPiS0_d
libgmsh.so.4.8:_ZN13ANNbruteForceC1EPPdii
libgmsh.so.4.8:_ZN13ANNbruteForceC2EPPdii
libgmsh.so.4.8:_ZN13ANNbruteForceD0Ev
libgmsh.so.4.8:_ZN13ANNbruteForceD1Ev
libgmsh.so.4.8:_ZN13ANNbruteForceD2Ev
libgmsh.so.4.8:_ZN13ExtrudeParams18GetAffineTransformERSt6vectorIdSaIdEE
libgmsh.so.4.8:_ZN13ExtrudeParams1uEii
libgmsh.so.4.8:_ZN13ExtrudeParams4fillEidddddddddd
libgmsh.so.4.8:_ZN13ExtrudeParams7ExtrudeEdRdS0_S0_
libgmsh.so.4.8:_ZN13ExtrudeParams7ExtrudeEiiRdS0_S0_
libgmsh.so.4.8:_ZN13ExtrudeParamsC1Ei
libgmsh.so.4.8:_ZN13ExtrudeParamsC2Ei
libgmsh.so.4.8:_ZN13FuncSpaceDataC1EPK8MElement
libgmsh.so.4.8:_ZN13FuncSpaceDataC1EPK8MElementbiib
libgmsh.so.4.8:_ZN13FuncSpaceDataC1EPK8MElementib
libgmsh.so.4.8:_ZN13FuncSpaceDataC1ERKS_i
libgmsh.so.4.8:_ZN13FuncSpaceDataC1ERKS_ii
libgmsh.so.4.8:_ZN13FuncSpaceDataC1Ei
libgmsh.so.4.8:_ZN13FuncSpaceDataC1Eibiib
libgmsh.so.4.8:_ZN13FuncSpaceDataC1Eiib
libgmsh.so.4.8:_ZN13FuncSpaceDataC2EPK8MElement
libgmsh.so.4.8:_ZN13FuncSpaceDataC2EPK8MElementbiib
libgmsh.so.4.8:_ZN13FuncSpaceDataC2EPK8MElementib
libgmsh.so.4.8:_ZN13FuncSpaceDataC2ERKS_i
libgmsh.so.4.8:_ZN13FuncSpaceDataC2ERKS_ii
libgmsh.so.4.8:_ZN13FuncSpaceDataC2Ei
libgmsh.so.4.8:_ZN13FuncSpaceDataC2Eibiib
libgmsh.so.4.8:_ZN13FuncSpaceDataC2Eiib
libgmsh.so.4.8:_ZN13GEO_Internals10_transformEiRKSt6vectorISt4pairIiiESaIS2_EEdddddddddd
libgmsh.so.4.8:_ZN13GEO_Internals10addBSplineERiRKSt6vectorIiSaIiEERKS1_IdSaIdEE
libgmsh.so.4.8:_ZN13GEO_Internals10splitCurveEiRKSt6vectorIiSaIiEERS2_
libgmsh.so.4.8:_ZN13GEO_Internals11setMeshSizeEiid
libgmsh.so.4.8:_ZN13GEO_Internals11synchronizeEP6GModelb
libgmsh.so.4.8:_ZN13GEO_Internals12_allocateAllEv
libgmsh.so.4.8:_ZN13GEO_Internals12addCircleArcERiiiiddd
libgmsh.so.4.8:_ZN13GEO_Internals12addCurveLoopERiRKSt6vectorIiSaIiEEb
libgmsh.so.4.8:_ZN13GEO_Internals12setRecombineEiid
libgmsh.so.4.8:_ZN13GEO_Internals12setSmoothingEii
libgmsh.so.4.8:_ZN13GEO_Internals13addCurveLoopsERKSt6vectorIiSaIiEERS2_
libgmsh.so.4.8:_ZN13GEO_Internals13addEllipseArcERiiiiiddd
libgmsh.so.4.8:_ZN13GEO_Internals13boundaryLayerERKSt6vectorISt4pairIiiESaIS2_EERS4_P13ExtrudeParams
libgmsh.so.4.8:_ZN13GEO_Internals13mergeVerticesERKSt6vectorIiSaIiEE
libgmsh.so.4.8:_ZN13GEO_Internals14addSurfaceLoopERiRKSt6vectorIiSaIiEE
libgmsh.so.4.8:_ZN13GEO_Internals14setDegeneratedEii
libgmsh.so.4.8:_ZN13GEO_Internals14setReverseMeshEiib
libgmsh.so.4.8:_ZN13GEO_Internals15addPlaneSurfaceERiRKSt6vectorIiSaIiEE
libgmsh.so.4.8:_ZN13GEO_Internals15setCompoundMeshEiRKSt6vectorIiSaIiEE
libgmsh.so.4.8:_ZN13GEO_Internals16setMeshAlgorithmEiii
libgmsh.so.4.8:_ZN13GEO_Internals17addCompoundSplineERiRKSt6vectorIiSaIiEEi
libgmsh.so.4.8:_ZN13GEO_Internals17addSurfaceFillingERiRKSt6vectorIiSaIiEEi
libgmsh.so.4.8:_ZN13GEO_Internals17newGeometrySphereEiii
libgmsh.so.4.8:_ZN13GEO_Internals18_addCompoundSplineERiRKSt6vectorIiSaIiEEib
libgmsh.so.4.8:_ZN13GEO_Internals18addCompoundBSplineERiRKSt6vectorIiSaIiEEi
libgmsh.so.4.8:_ZN13GEO_Internals18addDiscreteSurfaceERi
libgmsh.so.4.8:_ZN13GEO_Internals18setTransfiniteLineEiiid
libgmsh.so.4.8:_ZN13GEO_Internals19modifyPhysicalGroupEiiiRKSt6vectorIiSaIiEE
libgmsh.so.4.8:_ZN13GEO_Internals19removeAllDuplicatesEv
libgmsh.so.4.8:_ZN13GEO_Internals19resetPhysicalGroupsEv
libgmsh.so.4.8:_ZN13GEO_Internals20setTransfiniteVolumeEiRKSt6vectorIiSaIiEE
libgmsh.so.4.8:_ZN13GEO_Internals21setTransfiniteSurfaceEiiRKSt6vectorIiSaIiEE
libgmsh.so.4.8:_ZN13GEO_Internals22newGeometryPolarSphereEiii
libgmsh.so.4.8:_ZN13GEO_Internals23setMeshSizeFromBoundaryEiii
libgmsh.so.4.8:_ZN13GEO_Internals26intersectCurvesWithSurfaceERKSt6vectorIiSaIiEEiRS2_
libgmsh.so.4.8:_ZN13GEO_Internals27setTransfiniteVolumeQuadTriEi
libgmsh.so.4.8:_ZN13GEO_Internals4copyERKSt6vectorISt4pairIiiESaIS2_EERS4_
libgmsh.so.4.8:_ZN13GEO_Internals5twistERKSt6vectorISt4pairIiiESaIS2_EEddddddddddRS4_P13ExtrudeParams
libgmsh.so.4.8:_ZN13GEO_Internals6dilateERKSt6vectorISt4pairIiiESaIS2_EEdddddd
libgmsh.so.4.8:_ZN13GEO_Internals6removeERKSt6vectorISt4pairIiiESaIS2_EEb
libgmsh.so.4.8:_ZN13GEO_Internals6removeEiib
libgmsh.so.4.8:_ZN13GEO_Internals6rotateERKSt6vectorISt4pairIiiESaIS2_EEddddddd
libgmsh.so.4.8:_ZN13GEO_Internals7addLineERiRKSt6vectorIiSaIiEE
libgmsh.so.4.8:_ZN13GEO_Internals7addLineERiii
libgmsh.so.4.8:_ZN13GEO_Internals7extrudeERKSt6vectorISt4pairIiiESaIS2_EEdddRS4_P13ExtrudeParams
libgmsh.so.4.8:_ZN13GEO_Internals7revolveERKSt6vectorISt4pairIiiESaIS2_EEdddddddRS4_P13ExtrudeParams
libgmsh.so.4.8:_ZN13GEO_Internals8_extrudeEiRKSt6vectorISt4pairIiiESaIS2_EEddddddddddRS4_P13ExtrudeParams
libgmsh.so.4.8:_ZN13GEO_Internals8_freeAllEv
libgmsh.so.4.8:_ZN13GEO_Internals8symmetryERKSt6vectorISt4pairIiiESaIS2_EEdddd
libgmsh.so.4.8:_ZN13GEO_Internals9addBezierERiRKSt6vectorIiSaIiEE
libgmsh.so.4.8:_ZN13GEO_Internals9addSplineERiRKSt6vectorIiSaIiEE
libgmsh.so.4.8:_ZN13GEO_Internals9addVertexERiddP11gmshSurfaced
libgmsh.so.4.8:_ZN13GEO_Internals9addVertexERidddd
libgmsh.so.4.8:_ZN13GEO_Internals9addVolumeERiRKSt6vectorIiSaIiEE
libgmsh.so.4.8:_ZN13GEO_Internals9getVertexEiRdS0_S0_
libgmsh.so.4.8:_ZN13GEO_Internals9setMaxTagEii
libgmsh.so.4.8:_ZN13GEO_Internals9translateERKSt6vectorISt4pairIiiESaIS2_EEddd
libgmsh.so.4.8:_ZN13GradientBasis19mapFromIdealElementEiPA3_d
libgmsh.so.4.8:_ZN13GradientBasis19mapFromIdealElementEiR10fullMatrixIdES2_S2_
libgmsh.so.4.8:_ZN13GradientBasis19mapFromIdealElementEiR10fullVectorIdES2_S2_
libgmsh.so.4.8:_ZN13GradientBasisC1Ei13FuncSpaceData
libgmsh.so.4.8:_ZN13GradientBasisC2Ei13FuncSpaceData
libgmsh.so.4.8:_ZN13JacobianBasis13jacobianOrderEi
libgmsh.so.4.8:_ZN13JacobianBasis13jacobianOrderEii
libgmsh.so.4.8:_ZN13JacobianBasis19jacobianMatrixSpaceEii
libgmsh.so.4.8:_ZN13JacobianBasisC1Ei13FuncSpaceData
libgmsh.so.4.8:_ZN13JacobianBasisC2Ei13FuncSpaceData
libgmsh.so.4.8:_ZN13MHexahedron2010getEdgeRepEbiPdS0_S0_P8SVector3
libgmsh.so.4.8:_ZN13MHexahedron2010getFaceRepEbiPdS0_S0_P8SVector3
libgmsh.so.4.8:_ZN13MHexahedron2014getNumEdgesRepEb
libgmsh.so.4.8:_ZN13MHexahedron2014getNumFacesRepEb
libgmsh.so.4.8:_ZN13MHexahedron2710getEdgeRepEbiPdS0_S0_P8SVector3
libgmsh.so.4.8:_ZN13MHexahedron2710getFaceRepEbiPdS0_S0_P8SVector3
libgmsh.so.4.8:_ZN13MHexahedron2714getNumEdgesRepEb
libgmsh.so.4.8:_ZN13MHexahedron2714getNumFacesRepEb
libgmsh.so.4.8:_ZN13MTetrahedronN10getEdgeRepEbiPdS0_S0_P8SVector3
libgmsh.so.4.8:_ZN13MTetrahedronN10getFaceRepEbiPdS0_S0_P8SVector3
libgmsh.so.4.8:_ZN13MTetrahedronN14getNumEdgesRepEb
libgmsh.so.4.8:_ZN13MTetrahedronN14getNumFacesRepEb
libgmsh.so.4.8:_ZN13MTetrahedronN7reverseEv
libgmsh.so.4.8:_ZN13Nearest_point11init_regionEP7GRegion
libgmsh.so.4.8:_ZN13Nearest_point11print_fieldEP7GRegion
libgmsh.so.4.8:_ZN13Nearest_point13print_segmentERK7SPoint3S2_RSt14basic_ofstreamIcSt11char_traitsIcEE
libgmsh.so.4.8:_ZN13Nearest_point1TEddddd
libgmsh.so.4.8:_ZN13Nearest_point4testEv
libgmsh.so.4.8:_ZN13Nearest_point5clampEddd
libgmsh.so.4.8:_ZN13Nearest_point5clearEv
libgmsh.so.4.8:_ZN13Nearest_point6searchEdddR8SVector3
libgmsh.so.4.8:_ZN13Nearest_point7closestEP8MElementRK7SPoint3
libgmsh.so.4.8:_ZN13Nearest_pointC1Ev
libgmsh.so.4.8:_ZN13Nearest_pointC2Ev
libgmsh.so.4.8:_ZN13OCC_Internals10_getMaxDimEv
libgmsh.so.4.8:_ZN13OCC_Internals10_healShapeER12TopoDS_Shapedbbbbbd
libgmsh.so.4.8:_ZN13OCC_Internals10_multiBindERK12TopoDS_ShapeiRSt6vectorISt4pairIiiESaIS5_EEbbb
libgmsh.so.4.8:_ZN13OCC_Internals10_transformERKSt6vectorISt4pairIiiESaIS2_EEP24BRepBuilderAPI_TransformP25BRepBuilderAPI_GTransform
libgmsh.so.4.8:_ZN13OCC_Internals10addBSplineERiRKSt6vectorIiSaIiEEiRKS1_IdSaIdEES9_S5_
libgmsh.so.4.8:_ZN13OCC_Internals10addEllipseERiddddddd
libgmsh.so.4.8:_ZN13OCC_Internals10healShapesERKSt6vectorISt4pairIiiESaIS2_EERS4_dbbbbb
libgmsh.so.4.8:_ZN13OCC_Internals10makeBoxSTLEddddddRSt6vectorI7SPoint3SaIS1_EERS0_I8SVector3SaIS5_EERS0_IiSaIiEE
libgmsh.so.4.8:_ZN13OCC_Internals11_addBSplineERiRKSt6vectorIiSaIiEEiiRKS1_IdSaIdEES9_S5_
libgmsh.so.4.8:_ZN13OCC_Internals11addCylinderERidddddddd
libgmsh.so.4.8:_ZN13OCC_Internals11getEntitiesERSt6vectorISt4pairIiiESaIS2_EEi
libgmsh.so.4.8:_ZN13OCC_Internals11makeConeSTLEdddddddddRSt6vectorI7SPoint3SaIS1_EERS0_I8SVector3SaIS5_EERS0_IiSaIiEE
libgmsh.so.4.8:_ZN13OCC_Internals11makeDiskSTLEdddddRSt6vectorI7SPoint3SaIS1_EERS0_I8SVector3SaIS5_EERS0_IiSaIiEE
libgmsh.so.4.8:_ZN13OCC_Internals11makeFaceSTLERK11TopoDS_FaceRSt6vectorI7SPoint2SaIS4_EERS3_I7SPoint3SaIS8_EERS3_I8SVector3SaISC_EERS3_IiSaIiEE
libgmsh.so.4.8:_ZN13OCC_Internals11makeFaceSTLERK11TopoDS_FaceRSt6vectorI7SPoint2SaIS4_EERS3_IiSaIiEE
libgmsh.so.4.8:_ZN13OCC_Internals11makeFaceSTLERK11TopoDS_FaceRSt6vectorI7SPoint3SaIS4_EERS3_I8SVector3SaIS8_EERS3_IiSaIiEE
libgmsh.so.4.8:_ZN13OCC_Internals11setMeshSizeEiid
libgmsh.so.4.8:_ZN13OCC_Internals11synchronizeEP6GModel
libgmsh.so.4.8:_ZN13OCC_Internals12_getFuzzyTagEiRK12TopoDS_Shape
libgmsh.so.4.8:_ZN13OCC_Internals12addCircleArcERiiii
libgmsh.so.4.8:_ZN13OCC_Internals12addCurveLoopERiRKSt6vectorIiSaIiEE
libgmsh.so.4.8:_ZN13OCC_Internals12addRectangleERidddddd
libgmsh.so.4.8:_ZN13OCC_Internals12booleanUnionEiRKSt6vectorISt4pairIiiESaIS2_EES6_RS4_RS0_IS4_SaIS4_EEbb
libgmsh.so.4.8:_ZN13OCC_Internals12exportShapesEP6GModelRKNSt7__cxx1112basic_stringIcSt11char_traitsIcESaIcEEES9_
libgmsh.so.4.8:_ZN13OCC_Internals12fixSTLBoundsERdS0_S0_S0_S0_S0_
libgmsh.so.4.8:_ZN13OCC_Internals12importShapesEPK12TopoDS_ShapebRSt6vectorISt4pairIiiESaIS5_EE
libgmsh.so.4.8:_ZN13OCC_Internals12importShapesERKNSt7__cxx1112basic_stringIcSt11char_traitsIcESaIcEEEbRSt6vectorISt4pairIiiESaISA_EES7_
libgmsh.so.4.8:_ZN13OCC_Internals12makeTorusSTLEddddddRSt6vectorI7SPoint3SaIS1_EERS0_I8SVector3SaIS5_EERS0_IiSaIiEE
libgmsh.so.4.8:_ZN13OCC_Internals12makeWedgeSTLEdddddddRSt6vectorI7SPoint3SaIS1_EERS0_I8SVector3SaIS5_EERS0_IiSaIiEE
libgmsh.so.4.8:_ZN13OCC_Internals13addEllipseArcERiiiii
libgmsh.so.4.8:_ZN13OCC_Internals13addThickSolidEiiRKSt6vectorIiSaIiEEdRS0_ISt4pairIiiESaIS6_EE
libgmsh.so.4.8:_ZN13OCC_Internals13makeSphereSTLEdddddddRSt6vectorI7SPoint3SaIS1_EERS0_I8SVector3SaIS5_EERS0_IiSaIiEE
libgmsh.so.4.8:_ZN13OCC_Internals13mergeVerticesERKSt6vectorIiSaIiEE
libgmsh.so.4.8:_ZN13OCC_Internals14_extrudePerDimEiiRKSt6vectorIiSaIiEEddddddddddiRS0_ISt4pairIiiESaIS6_EEP13ExtrudeParamsRKNSt7__cxx1112basic_stringIcSt11char_traitsIcESaIcEEE
libgmsh.so.4.8:_ZN13OCC_Internals14_getAllDimTagsERSt6vectorISt4pairIiiESaIS2_EEi
libgmsh.so.4.8:_ZN13OCC_Internals14addSurfaceLoopERiRKSt6vectorIiSaIiEEb
libgmsh.so.4.8:_ZN13OCC_Internals14getBoundingBoxEiiRdS0_S0_S0_S0_S0_
libgmsh.so.4.8:_ZN13OCC_Internals15_addShapeToMapsERK12TopoDS_Shape
libgmsh.so.4.8:_ZN13OCC_Internals15_getBoundingBoxERK12TopoDS_ShapeRdS3_S3_S3_S3_S3_
libgmsh.so.4.8:_ZN13OCC_Internals15addPlaneSurfaceERiRKSt6vectorIiSaIiEE
libgmsh.so.4.8:_ZN13OCC_Internals15addThruSectionsEiRKSt6vectorIiSaIiEEbbRS0_ISt4pairIiiESaIS6_EEi
libgmsh.so.4.8:_ZN13OCC_Internals15booleanOperatorEiNS_15BooleanOperatorERKSt6vectorISt4pairIiiESaIS3_EES7_RS5_RS1_IS5_SaIS5_EEbb
libgmsh.so.4.8:_ZN13OCC_Internals15getCenterOfMassEiiRdS0_S0_
libgmsh.so.4.8:_ZN13OCC_Internals15makeCylinderSTLEddddddddRSt6vectorI7SPoint3SaIS1_EERS0_I8SVector3SaIS5_EERS0_IiSaIiEE
libgmsh.so.4.8:_ZN13OCC_Internals16_recomputeMaxTagEi
libgmsh.so.4.8:_ZN13OCC_Internals16addBezierFillingERiiRKNSt7__cxx1112basic_stringIcSt11char_traitsIcESaIcEEE
libgmsh.so.4.8:_ZN13OCC_Internals16addBezierSurfaceERiRKSt6vectorIiSaIiEEiS5_b
libgmsh.so.4.8:_ZN13OCC_Internals16booleanFragmentsEiRKSt6vectorISt4pairIiiESaIS2_EES6_RS4_RS0_IS4_SaIS4_EEbb
libgmsh.so.4.8:_ZN13OCC_Internals16makeRectangleSTLEddddddRSt6vectorI7SPoint3SaIS1_EERS0_I8SVector3SaIS5_EERS0_IiSaIiEE
libgmsh.so.4.8:_ZN13OCC_Internals17addBSplineFillingERiiRKNSt7__cxx1112basic_stringIcSt11char_traitsIcESaIcEEE
libgmsh.so.4.8:_ZN13OCC_Internals17addBSplineSurfaceERiRKSt6vectorIiSaIiEEiiiRKS1_IdSaIdEES9_S9_S5_S5_S5_b
libgmsh.so.4.8:_ZN13OCC_Internals17addSurfaceFillingERiiRKSt6vectorIiSaIiEES5_S5_
libgmsh.so.4.8:_ZN13OCC_Internals17addTrimmedSurfaceERiiRKSt6vectorIiSaIiEEb
libgmsh.so.4.8:_ZN13OCC_Internals17booleanDifferenceEiRKSt6vectorISt4pairIiiESaIS2_EES6_RS4_RS0_IS4_SaIS4_EEbb
libgmsh.so.4.8:_ZN13OCC_Internals18getEdgeForOCCShapeEP6GModelRK11TopoDS_Edge
libgmsh.so.4.8:_ZN13OCC_Internals18getFaceForOCCShapeEP6GModelRK11TopoDS_Face
libgmsh.so.4.8:_ZN13OCC_Internals18getMatrixOfInertiaEiiRSt6vectorIdSaIdEE
libgmsh.so.4.8:_ZN13OCC_Internals19booleanIntersectionEiRKSt6vectorISt4pairIiiESaIS2_EES6_RS4_RS0_IS4_SaIS4_EEbb
libgmsh.so.4.8:_ZN13OCC_Internals19makeEdgeSTLFromFaceERK11TopoDS_EdgeRK11TopoDS_FacePSt6vectorI7SPoint3SaIS7_EE
libgmsh.so.4.8:_ZN13OCC_Internals19removeAllDuplicatesEv
libgmsh.so.4.8:_ZN13OCC_Internals19unbindWithoutChecksE12TopoDS_Shape
libgmsh.so.4.8:_ZN13OCC_Internals20getRegionForOCCShapeEP6GModelRK12TopoDS_Solid
libgmsh.so.4.8:_ZN13OCC_Internals20getVertexForOCCShapeEP6GModelRK13TopoDS_Vertex
libgmsh.so.4.8:_ZN13OCC_Internals22_setExtrudedAttributesERK15TopoDS_CompoundP15BRepSweep_PrismP15BRepSweep_RevolP13ExtrudeParamsdddddddddd
libgmsh.so.4.8:_ZN13OCC_Internals23_copyExtrudedAttributesE11TopoDS_EdgeP5GEdge
libgmsh.so.4.8:_ZN13OCC_Internals23_copyExtrudedAttributesE11TopoDS_FaceP5GFace
libgmsh.so.4.8:_ZN13OCC_Internals23_copyExtrudedAttributesE12TopoDS_SolidP7GRegion
libgmsh.so.4.8:_ZN13OCC_Internals24getEntitiesInBoundingBoxEddddddRSt6vectorISt4pairIiiESaIS2_EEi
libgmsh.so.4.8:_ZN13OCC_Internals4bindE12TopoDS_Shapeiib
libgmsh.so.4.8:_ZN13OCC_Internals4bindERK11TopoDS_Edgeib
libgmsh.so.4.8:_ZN13OCC_Internals4bindERK11TopoDS_Faceib
libgmsh.so.4.8:_ZN13OCC_Internals4bindERK11TopoDS_Wireib
libgmsh.so.4.8:_ZN13OCC_Internals4bindERK12TopoDS_Shellib
libgmsh.so.4.8:_ZN13OCC_Internals4bindERK12TopoDS_Solidib
libgmsh.so.4.8:_ZN13OCC_Internals4bindERK13TopoDS_Vertexib
libgmsh.so.4.8:_ZN13OCC_Internals4copyERKSt6vectorISt4pairIiiESaIS2_EERS4_
libgmsh.so.4.8:_ZN13OCC_Internals5_findEiRK12TopoDS_Shape
libgmsh.so.4.8:_ZN13OCC_Internals5_findEii
libgmsh.so.4.8:_ZN13OCC_Internals5resetEv
libgmsh.so.4.8:_ZN13OCC_Internals6addBoxERidddddd
libgmsh.so.4.8:_ZN13OCC_Internals6affineERKSt6vectorISt4pairIiiESaIS2_EERKS0_IdSaIdEE
libgmsh.so.4.8:_ZN13OCC_Internals6dilateERKSt6vectorISt4pairIiiESaIS2_EEdddddd
libgmsh.so.4.8:_ZN13OCC_Internals6filletERKSt6vectorIiSaIiEES4_RKS0_IdSaIdEERS0_ISt4pairIiiESaISA_EEb
libgmsh.so.4.8:_ZN13OCC_Internals6removeERKSt6vectorISt4pairIiiESaIS2_EEb
libgmsh.so.4.8:_ZN13OCC_Internals6removeEiib
libgmsh.so.4.8:_ZN13OCC_Internals6rotateERKSt6vectorISt4pairIiiESaIS2_EEddddddd
libgmsh.so.4.8:_ZN13OCC_Internals6unbindE12TopoDS_Shapeiib
libgmsh.so.4.8:_ZN13OCC_Internals6unbindERK11TopoDS_Edgeib
libgmsh.so.4.8:_ZN13OCC_Internals6unbindERK11TopoDS_Faceib
libgmsh.so.4.8:_ZN13OCC_Internals6unbindERK11TopoDS_Wireib
libgmsh.so.4.8:_ZN13OCC_Internals6unbindERK12TopoDS_Shellib
libgmsh.so.4.8:_ZN13OCC_Internals6unbindERK12TopoDS_Solidib
libgmsh.so.4.8:_ZN13OCC_Internals6unbindERK13TopoDS_Vertexib
libgmsh.so.4.8:_ZN13OCC_Internals6unbindEv
libgmsh.so.4.8:_ZN13OCC_Internals7_filletEiRKSt6vectorIiSaIiEES4_S4_RKS0_IdSaIdEERS0_ISt4pairIiiESaISA_EEb
libgmsh.so.4.8:_ZN13OCC_Internals7addConeERiddddddddd
libgmsh.so.4.8:_ZN13OCC_Internals7addDiskERiddddd
libgmsh.so.4.8:_ZN13OCC_Internals7addLineERiRKSt6vectorIiSaIiEE
libgmsh.so.4.8:_ZN13OCC_Internals7addLineERiii
libgmsh.so.4.8:_ZN13OCC_Internals7addPipeERKSt6vectorISt4pairIiiESaIS2_EEiRS4_RKNSt7__cxx1112basic_stringIcSt11char_traitsIcESaIcEEE
libgmsh.so.4.8:_ZN13OCC_Internals7addWireERiRKSt6vectorIiSaIiEEb
libgmsh.so.4.8:_ZN13OCC_Internals7chamferERKSt6vectorIiSaIiEES4_S4_RKS0_IdSaIdEERS0_ISt4pairIiiESaISA_EEb
libgmsh.so.4.8:_ZN13OCC_Internals7extrudeERKSt6vectorISt4pairIiiESaIS2_EEdddRS4_P13ExtrudeParams
libgmsh.so.4.8:_ZN13OCC_Internals7getMassEiiRd
libgmsh.so.4.8:_ZN13OCC_Internals7revolveERKSt6vectorISt4pairIiiESaIS2_EEdddddddRS4_P13ExtrudeParams
libgmsh.so.4.8:_ZN13OCC_Internals8_extrudeEiRKSt6vectorISt4pairIiiESaIS2_EEddddddddddiRS4_P13ExtrudeParamsRKNSt7__cxx1112basic_stringIcSt11char_traitsIcESaIcEEE
libgmsh.so.4.8:_ZN13OCC_Internals8_isBoundEiRK12TopoDS_Shape
libgmsh.so.4.8:_ZN13OCC_Internals8_isBoundEii
libgmsh.so.4.8:_ZN13OCC_Internals8_makeSTLERK12TopoDS_ShapeRSt6vectorI7SPoint3SaIS4_EERS3_I8SVector3SaIS8_EERS3_IiSaIiEE
libgmsh.so.4.8:_ZN13OCC_Internals8addTorusERidddddd
libgmsh.so.4.8:_ZN13OCC_Internals8addWedgeERiddddddd
libgmsh.so.4.8:_ZN13OCC_Internals8symmetryERKSt6vectorISt4pairIiiESaIS2_EEdddd
libgmsh.so.4.8:_ZN13OCC_Internals9addBezierERiRKSt6vectorIiSaIiEE
libgmsh.so.4.8:_ZN13OCC_Internals9addCircleERidddddd
libgmsh.so.4.8:_ZN13OCC_Internals9addSphereERiddddddd
libgmsh.so.4.8:_ZN13OCC_Internals9addSplineERiRKSt6vectorIiSaIiEE
libgmsh.so.4.8:_ZN13OCC_Internals9addVertexERidddd
libgmsh.so.4.8:_ZN13OCC_Internals9addVolumeERiRKSt6vectorIiSaIiEE
libgmsh.so.4.8:_ZN13OCC_Internals9getVertexEiRdS0_S0_
libgmsh.so.4.8:_ZN13OCC_Internals9setMaxTagEii
libgmsh.so.4.8:_ZN13OCC_Internals9translateERKSt6vectorISt4pairIiiESaIS2_EEddd
libgmsh.so.4.8:_ZN13OCC_InternalsC1Ev
libgmsh.so.4.8:_ZN13OCC_InternalsC2Ev
libgmsh.so.4.8:_ZN13OCC_InternalsD1Ev
libgmsh.so.4.8:_ZN13OCC_InternalsD2Ev
libgmsh.so.4.8:_ZN13PViewDataList10_getStringEiiiRNSt7__cxx1112basic_stringIcSt11char_traitsIcESaIcEEERdS7_S7_S7_
libgmsh.so.4.8:_ZN13PViewDataList10importListEiiRKSt6vectorIdSaIdEEb
libgmsh.so.4.8:_ZN13PViewDataList11_getRawDataEiPPSt6vectorIdSaIdEEPPiS5_S5_
libgmsh.so.4.8:_ZN13PViewDataList11combineTimeER8nameData
libgmsh.so.4.8:_ZN13PViewDataList11getNumEdgesEiii
libgmsh.so.4.8:_ZN13PViewDataList11getNumNodesEiii
libgmsh.so.4.8:_ZN13PViewDataList11getString2DEiiRNSt7__cxx1112basic_stringIcSt11char_traitsIcESaIcEEERdS7_S7_
libgmsh.so.4.8:_ZN13PViewDataList11getString3DEiiRNSt7__cxx1112basic_stringIcSt11char_traitsIcESaIcEEERdS7_S7_S7_
libgmsh.so.4.8:_ZN13PViewDataList11importListsEPiPPSt6vectorIdSaIdEE
libgmsh.so.4.8:_ZN13PViewDataList12combineSpaceER8nameData
libgmsh.so.4.8:_ZN13PViewDataList12getDimensionEiii
libgmsh.so.4.8:_ZN13PViewDataList12getNumValuesEiii
libgmsh.so.4.8:_ZN13PViewDataList13getMemoryInMbEv
libgmsh.so.4.8:_ZN13PViewDataList13getNumScalarsEi
libgmsh.so.4.8:_ZN13PViewDataList13getNumTensorsEi
libgmsh.so.4.8:_ZN13PViewDataList13getNumVectorsEi
libgmsh.so.4.8:_ZN13PViewDataList13incrementListEiii
libgmsh.so.4.8:_ZN13PViewDataList14getNumElementsEii
libgmsh.so.4.8:_ZN13PViewDataList14reverseElementEiii
libgmsh.so.4.8:_ZN13PViewDataList15getListPointersEPiPPSt6vectorIdSaIdEE
libgmsh.so.4.8:_ZN13PViewDataList16getNumComponentsEiii
libgmsh.so.4.8:_ZN13PViewDataList5_statERSt6vectorIdSaIdEERS0_IcSaIcEEi
libgmsh.so.4.8:_ZN13PViewDataList5_statERSt6vectorIdSaIdEEiiii
libgmsh.so.4.8:_ZN13PViewDataList5setXYERSt6vectorIdSaIdEES3_
libgmsh.so.4.8:_ZN13PViewDataList6getMaxEibiiPi
libgmsh.so.4.8:_ZN13PViewDataList6getMinEibiiPi
libgmsh.so.4.8:_ZN13PViewDataList6smoothEv
libgmsh.so.4.8:_ZN13PViewDataList7addStepERSt6vectorIdSaIdEE
libgmsh.so.4.8:_ZN13PViewDataList7getNodeEiiiiRdS0_S0_
libgmsh.so.4.8:_ZN13PViewDataList7getTimeEi
libgmsh.so.4.8:_ZN13PViewDataList7getTypeEiii
libgmsh.so.4.8:_ZN13PViewDataList7readPOSEP8_IO_FILEdb
libgmsh.so.4.8:_ZN13PViewDataList7setNodeEiiiiddd
libgmsh.so.4.8:_ZN13PViewDataList7setXYZVERSt6vectorIdSaIdEES3_S3_S3_
libgmsh.so.4.8:_ZN13PViewDataList8_setLastEi
libgmsh.so.4.8:_ZN13PViewDataList8_setLastEiiiiiiRSt6vectorIdSaIdEEi
libgmsh.so.4.8:_ZN13PViewDataList8finalizeEbRKNSt7__cxx1112basic_stringIcSt11char_traitsIcESaIcEEE
libgmsh.so.4.8:_ZN13PViewDataList8getValueEiiiiRd
libgmsh.so.4.8:_ZN13PViewDataList8getValueEiiiiiRd
libgmsh.so.4.8:_ZN13PViewDataList8setValueEiiiiid
libgmsh.so.4.8:_ZN13PViewDataList8writeMSHERKNSt7__cxx1112basic_stringIcSt11char_traitsIcESaIcEEEdbbbibbb
libgmsh.so.4.8:_ZN13PViewDataList8writePOSERKNSt7__cxx1112basic_stringIcSt11char_traitsIcESaIcEEEbbb
libgmsh.so.4.8:_ZN13PViewDataList9setOrder2Ei
libgmsh.so.4.8:_ZN13PViewDataListC1Eb
libgmsh.so.4.8:_ZN13PViewDataListC2Eb
libgmsh.so.4.8:_ZN13PluginManager15setPluginOptionERKNSt7__cxx1112basic_stringIcSt11char_traitsIcESaIcEEES7_S7_
libgmsh.so.4.8:_ZN13PluginManager15setPluginOptionERKNSt7__cxx1112basic_stringIcSt11char_traitsIcESaIcEEES7_d
libgmsh.so.4.8:_ZN13PluginManager16findSolverPluginEv
libgmsh.so.4.8:_ZN13PluginManager22registerDefaultPluginsEv
libgmsh.so.4.8:_ZN13PluginManager4findERKNSt7__cxx1112basic_stringIcSt11char_traitsIcESaIcEEE
libgmsh.so.4.8:_ZN13PluginManager6actionERKNSt7__cxx1112basic_stringIcSt11char_traitsIcESaIcEEES7_Pv
libgmsh.so.4.8:_ZN13PluginManager8instanceEv
libgmsh.so.4.8:_ZN13PluginManager9addPluginERKNSt7__cxx1112basic_stringIcSt11char_traitsIcESaIcEEE
libgmsh.so.4.8:_ZN13PluginManagerD0Ev
libgmsh.so.4.8:_ZN13PluginManagerD1Ev
libgmsh.so.4.8:_ZN13PluginManagerD2Ev
libgmsh.so.4.8:_ZN13Supplementary10statisticsEP7GRegion
libgmsh.so.4.8:_ZN13Supplementary11conformityAE5Prism
libgmsh.so.4.8:_ZN13Supplementary11conformityAEP7MVertexS1_S1_S1_
libgmsh.so.4.8:_ZN13Supplementary11conformityBE5Prism
libgmsh.so.4.8:_ZN13Supplementary11conformityCE5Prism
libgmsh.so.4.8:_ZN13Supplementary12build_tuplesEP7GRegion
libgmsh.so.4.8:_ZN13Supplementary12intersectionERKSt3setIP7MVertexSt4lessIS2_ESaIS2_EES8_RKSt6vectorIS2_S5_ERS6_
libgmsh.so.4.8:_ZN13Supplementary13init_markingsEP7GRegion
libgmsh.so.4.8:_ZN13Supplementary14faces_statuquoE5Prism
libgmsh.so.4.8:_ZN13Supplementary14faces_statuquoEP7MVertexS1_S1_S1_
libgmsh.so.4.8:_ZN13Supplementary15scaled_jacobianEP7MVertexS1_S1_S1_
libgmsh.so.4.8:_ZN13Supplementary17build_hash_tableAE5Prism
libgmsh.so.4.8:_ZN13Supplementary17build_hash_tableAEP7MVertexS1_S1_S1_
libgmsh.so.4.8:_ZN13Supplementary17build_hash_tableAERK5Facet
libgmsh.so.4.8:_ZN13Supplementary17build_hash_tableBE5Prism
libgmsh.so.4.8:_ZN13Supplementary17build_hash_tableBEP7MVertexS1_S1_S1_
libgmsh.so.4.8:_ZN13Supplementary17build_hash_tableBERK8Diagonal
libgmsh.so.4.8:_ZN13Supplementary17build_hash_tableCE5Prism
libgmsh.so.4.8:_ZN13Supplementary17build_hash_tableCERK8Diagonal
libgmsh.so.4.8:_ZN13Supplementary19min_scaled_jacobianE5Prism
libgmsh.so.4.8:_ZN13Supplementary24build_vertex_to_verticesEP7GRegion
libgmsh.so.4.8:_ZN13Supplementary24create_quads_on_boundaryEP7GRegion
libgmsh.so.4.8:_ZN13Supplementary24create_quads_on_boundaryEP7MVertexS1_S1_S1_
libgmsh.so.4.8:_ZN13Supplementary26build_vertex_to_tetrahedraEP7GRegion
libgmsh.so.4.8:_ZN13Supplementary3etaEP7MVertexS1_S1_S1_
libgmsh.so.4.8:_ZN13Supplementary3sixEP8MElement
libgmsh.so.4.8:_ZN13Supplementary4findEP7MVertexRK5PrismRSt3setIP8MElementSt4lessIS7_ESaIS7_EE
libgmsh.so.4.8:_ZN13Supplementary4findEP7MVertexS1_RKSt6vectorIS1_SaIS1_EERSt3setIS1_St4lessIS1_ES3_E
libgmsh.so.4.8:_ZN13Supplementary4fiveEP8MElement
libgmsh.so.4.8:_ZN13Supplementary4fourEP8MElement
libgmsh.so.4.8:_ZN13Supplementary5eightEP8MElement
libgmsh.so.4.8:_ZN13Supplementary5mergeEP7GRegion
libgmsh.so.4.8:_ZN13Supplementary5validE5Prism
libgmsh.so.4.8:_ZN13Supplementary5validE5PrismRKSt3setIP8MElementSt4lessIS3_ESaIS3_EE
libgmsh.so.4.8:_ZN13Supplementary6linkedEP7MVertexS1_
libgmsh.so.4.8:_ZN13Supplementary6sliverEP8MElement5Prism
libgmsh.so.4.8:_ZN13Supplementary7executeEP7GRegion
libgmsh.so.4.8:_ZN13Supplementary7executeEv
libgmsh.so.4.8:_ZN13Supplementary7patternEP7GRegion
libgmsh.so.4.8:_ZN13Supplementary9duplicateERK8Diagonal
libgmsh.so.4.8:_ZN13Supplementary9inclusionEP7MVertex5Prism
libgmsh.so.4.8:_ZN13Supplementary9inclusionEP7MVertexS1_S1_RKSt3setIP8MElementSt4lessIS4_ESaIS4_EE
libgmsh.so.4.8:_ZN13Supplementary9inclusionEP7MVertexS1_S1_S1_S1_
libgmsh.so.4.8:_ZN13Supplementary9inclusionERK5Facet
libgmsh.so.4.8:_ZN13Supplementary9inclusionERK8Diagonal
libgmsh.so.4.8:_ZN13Supplementary9rearrangeEP7GRegion
libgmsh.so.4.8:_ZN13SupplementaryC1Ev
libgmsh.so.4.8:_ZN13SupplementaryC2Ev
libgmsh.so.4.8:_ZN13SupplementaryD1Ev
libgmsh.so.4.8:_ZN13SupplementaryD2Ev
libgmsh.so.4.8:_ZN13adaptivePoint10recurErrorEPS_dd
libgmsh.so.4.8:_ZN13adaptivePoint11recurCreateEPS_ii
libgmsh.so.4.8:_ZN13adaptivePoint5errorEdd
libgmsh.so.4.8:_ZN13adaptivePoint6createEi
libgmsh.so.4.8:_ZN13adaptivePrism10recurErrorEPS_dd
libgmsh.so.4.8:_ZN13adaptivePrism11recurCreateEPS_ii
libgmsh.so.4.8:_ZN13adaptivePrism5errorEdd
libgmsh.so.4.8:_ZN13adaptivePrism6createEi
libgmsh.so.4.8:_ZN13contextWindow6handleEi
libgmsh.so.4.8:_ZN13deMeshGRegionclEP7GRegion
libgmsh.so.4.8:_ZN13frameSolver2d10createDofsEv
libgmsh.so.4.8:_ZN13frameSolver2d12addFixationsERKSt6vectorIiSaIiEES4_d
libgmsh.so.4.8:_ZN13frameSolver2d14addBeamsOrBarsERKSt6vectorIiSaIiEEdddPi
libgmsh.so.4.8:_ZN13frameSolver2d14addNodalForcesERKSt6vectorIiSaIiEERKS0_IdSaIdEE
libgmsh.so.4.8:_ZN13frameSolver2d15exportFrameDataEPKcS1_
libgmsh.so.4.8:_ZN13frameSolver2d19computeRotationTagsEv
libgmsh.so.4.8:_ZN13frameSolver2d22computeStiffnessMatrixEiR10fullMatrixIdE
libgmsh.so.4.8:_ZN13frameSolver2d5solveEv
libgmsh.so.4.8:_ZN13frameSolver2d7addBarsERKSt6vectorIiSaIiEEddd
libgmsh.so.4.8:_ZN13frameSolver2d8addBeamsERKSt6vectorIiSaIiEEddd
libgmsh.so.4.8:_ZN13frameSolver2dC1EP6GModel
libgmsh.so.4.8:_ZN13frameSolver2dC2EP6GModel
libgmsh.so.4.8:_ZN13gLevelsetConeC1EPKdS1_RS0_i
libgmsh.so.4.8:_ZN13gLevelsetConeC1ERKS_
libgmsh.so.4.8:_ZN13gLevelsetConeC2EPKdS1_RS0_i
libgmsh.so.4.8:_ZN13gLevelsetConeC2ERKS_
libgmsh.so.4.8:_ZN13gLevelsetYarnC1Eiiddii
libgmsh.so.4.8:_ZN13gLevelsetYarnC2Eiiddii
libgmsh.so.4.8:_ZN13gamepadWindowC1Ev
libgmsh.so.4.8:_ZN13gamepadWindowC2Ev
libgmsh.so.4.8:_ZN13graphicWindow10addMessageEPKc
libgmsh.so.4.8:_ZN13graphicWindow10attachMenuEv
libgmsh.so.4.8:_ZN13graphicWindow10detachMenuEv
libgmsh.so.4.8:_ZN13graphicWindow10getGlWidthEv
libgmsh.so.4.8:_ZN13graphicWindow10setGlWidthEi
libgmsh.so.4.8:_ZN13graphicWindow11getGlHeightEv
libgmsh.so.4.8:_ZN13graphicWindow11setGlHeightEi
libgmsh.so.4.8:_ZN13graphicWindow12getMenuWidthEv
libgmsh.so.4.8:_ZN13graphicWindow12hideMessagesEv
libgmsh.so.4.8:_ZN13graphicWindow12saveMessagesEPKc
libgmsh.so.4.8:_ZN13graphicWindow12setMenuWidthEi
libgmsh.so.4.8:_ZN13graphicWindow12showHideMenuEv
libgmsh.so.4.8:_ZN13graphicWindow12showMessagesEv
libgmsh.so.4.8:_ZN13graphicWindow13clearMessagesEv
libgmsh.so.4.8:_ZN13graphicWindow13getMenuHeightEv
libgmsh.so.4.8:_ZN13graphicWindow14setAnimButtonsEi
libgmsh.so.4.8:_ZN13graphicWindow16attachDetachMenuEv
libgmsh.so.4.8:_ZN13graphicWindow16checkAnimButtonsEv
libgmsh.so.4.8:_ZN13graphicWindow16getMenuPositionXEv
libgmsh.so.4.8:_ZN13graphicWindow16getMenuPositionYEv
libgmsh.so.4.8:_ZN13graphicWindow16getMessageHeightEv
libgmsh.so.4.8:_ZN13graphicWindow16setMessageHeightEi
libgmsh.so.4.8:_ZN13graphicWindow16showHideMessagesEv
libgmsh.so.4.8:_ZN13graphicWindow18setMessageFontSizeEi
libgmsh.so.4.8:_ZN13graphicWindow21changeMessageFontSizeEi
libgmsh.so.4.8:_ZN13graphicWindow21fillRecentHistoryMenuEv
libgmsh.so.4.8:_ZN13graphicWindow31copySelectedMessagesToClipboardEv
libgmsh.so.4.8:_ZN13graphicWindow5splitEP12openglWindowcd
libgmsh.so.4.8:_ZN13graphicWindow8hideMenuEv
libgmsh.so.4.8:_ZN13graphicWindow8setTitleERKNSt7__cxx1112basic_stringIcSt11char_traitsIcESaIcEEE
libgmsh.so.4.8:_ZN13graphicWindow8showMenuEv
libgmsh.so.4.8:_ZN13graphicWindow9setStereoEb
libgmsh.so.4.8:_ZN13graphicWindowC1Ebib
libgmsh.so.4.8:_ZN13graphicWindowC2Ebib
libgmsh.so.4.8:_ZN13graphicWindowD1Ev
libgmsh.so.4.8:_ZN13graphicWindowD2Ev
libgmsh.so.4.8:_ZN13mathEvaluator4evalERKSt6vectorIdSaIdEERS2_
libgmsh.so.4.8:_ZN13mathEvaluatorC1ERSt6vectorINSt7__cxx1112basic_stringIcSt11char_traitsIcESaIcEEESaIS6_EERKS8_
libgmsh.so.4.8:_ZN13mathEvaluatorC2ERSt6vectorINSt7__cxx1112basic_stringIcSt11char_traitsIcESaIcEEESaIS6_EERKS8_
libgmsh.so.4.8:_ZN13mathEvaluatorD1Ev
libgmsh.so.4.8:_ZN13mathEvaluatorD2Ev
libgmsh.so.4.8:_ZN13qmTetrahedron2qmEP12MTetrahedronRKNS_8MeasuresEPd
libgmsh.so.4.8:_ZN13qmTetrahedron2qmEPK7MVertexS2_S2_S2_RKNS_8MeasuresEPd
libgmsh.so.4.8:_ZN13qmTetrahedron2qmERKdS1_S1_S1_S1_S1_S1_S1_S1_S1_S1_S1_RKNS_8MeasuresEPd
libgmsh.so.4.8:_ZN13qmTetrahedron3etaERKdS1_S1_S1_S1_S1_S1_S1_S1_S1_S1_S1_Pd
libgmsh.so.4.8:_ZN13qmTetrahedron4condERKdS1_S1_S1_S1_S1_S1_S1_S1_S1_S1_S1_Pd
libgmsh.so.4.8:_ZN13qmTetrahedron5gammaERKdS1_S1_S1_S1_S1_S1_S1_S1_S1_S1_S1_Pd
libgmsh.so.4.8:_ZN13thermicSolver11changeLMTauEid
libgmsh.so.4.8:_ZN13thermicSolver11setEdgeTempEiP14simpleFunctionIdE
libgmsh.so.4.8:_ZN13thermicSolver11setFaceTempEiP14simpleFunctionIdE
libgmsh.so.4.8:_ZN13thermicSolver13computeL2NormEP14simpleFunctionIdE
libgmsh.so.4.8:_ZN13thermicSolver14computeLagNormEiP14simpleFunctionIdE
libgmsh.so.4.8:_ZN13thermicSolver16setThermicDomainEid
libgmsh.so.4.8:_ZN13thermicSolver20buildTemperatureViewENSt7__cxx1112basic_stringIcSt11char_traitsIcESaIcEEE
libgmsh.so.4.8:_ZN13thermicSolver22buildErrorEstimateViewERKNSt7__cxx1112basic_stringIcSt11char_traitsIcESaIcEEEP14simpleFunctionIdE
libgmsh.so.4.8:_ZN13thermicSolver22setLagrangeMultipliersEidiP14simpleFunctionIdE
libgmsh.so.4.8:_ZN13thermicSolver27buildLagrangeMultiplierViewERKNSt7__cxx1112basic_stringIcSt11char_traitsIcESaIcEEE
libgmsh.so.4.8:_ZN13thermicSolver5solveEv
libgmsh.so.4.8:_ZN13thermicSolver7cutMeshEP9gLevelset
libgmsh.so.4.8:_ZN13thermicSolver7setMeshERKNSt7__cxx1112basic_stringIcSt11char_traitsIcESaIcEEE
libgmsh.so.4.8:_ZN13thermicSolver8assembleEP12linearSystemIdE
libgmsh.so.4.8:_ZN14CGNSZoneStructILi2EE12readElementsERSt6vectorIP7MVertexSaIS3_EEPSt3mapIiS1_IP8MElementSaIS9_EESt4lessIiESaISt4pairIKiSB_EEERSB_RS1_INSt7__cxx1112basic_stringIcSt11char_traitsIcESaIcEEESaISQ_EE
libgmsh.so.4.8:_ZN14CGNSZoneStructILi2EE13indexDataSizeEl
libgmsh.so.4.8:_ZN14CGNSZoneStructILi2EE14makeBndElementEPKlPKiiiRSt6vectorIP7MVertexSaIS7_EEPSt3mapIiS5_IP8MElementSaISD_EESt4lessIiESaISt4pairIS3_SF_EEE
libgmsh.so.4.8:_ZN14CGNSZoneStructILi2EE16readOneInterfaceEiRKSt3mapINSt7__cxx1112basic_stringIcSt11char_traitsIcESaIcEEEiSt4lessIS7_ESaISt4pairIKS7_iEEERSt6vectorIP8CGNSZoneSaISJ_EE
libgmsh.so.4.8:_ZN14CGNSZoneStructILi2EE18readConnectivitiesERKSt3mapINSt7__cxx1112basic_stringIcSt11char_traitsIcESaIcEEEiSt4lessIS7_ESaISt4pairIKS7_iEEERSt6vectorIP8CGNSZoneSaISJ_EE
libgmsh.so.4.8:_ZN14CGNSZoneStructILi2EEC1EiiiilRKSt3mapINSt7__cxx1112basic_stringIcSt11char_traitsIcESaIcEEESt6vectorIS8_IiSaIiEESaISA_EESt4lessIS7_ESaISt4pairIKS7_SC_EEERi
libgmsh.so.4.8:_ZN14CGNSZoneStructILi2EEC2EiiiilRKSt3mapINSt7__cxx1112basic_stringIcSt11char_traitsIcESaIcEEESt6vectorIS8_IiSaIiEESaISA_EESt4lessIS7_ESaISt4pairIKS7_SC_EEERi
libgmsh.so.4.8:_ZN14CGNSZoneStructILi3EE12readElementsERSt6vectorIP7MVertexSaIS3_EEPSt3mapIiS1_IP8MElementSaIS9_EESt4lessIiESaISt4pairIKiSB_EEERSB_RS1_INSt7__cxx1112basic_stringIcSt11char_traitsIcESaIcEEESaISQ_EE
libgmsh.so.4.8:_ZN14CGNSZoneStructILi3EE13indexDataSizeEl
libgmsh.so.4.8:_ZN14CGNSZoneStructILi3EE14makeBndElementEPKlPKiiiRSt6vectorIP7MVertexSaIS7_EEPSt3mapIiS5_IP8MElementSaISD_EESt4lessIiESaISt4pairIS3_SF_EEE
libgmsh.so.4.8:_ZN14CGNSZoneStructILi3EE16readOneInterfaceEiRKSt3mapINSt7__cxx1112basic_stringIcSt11char_traitsIcESaIcEEEiSt4lessIS7_ESaISt4pairIKS7_iEEERSt6vectorIP8CGNSZoneSaISJ_EE
libgmsh.so.4.8:_ZN14CGNSZoneStructILi3EE18readConnectivitiesERKSt3mapINSt7__cxx1112basic_stringIcSt11char_traitsIcESaIcEEEiSt4lessIS7_ESaISt4pairIKS7_iEEERSt6vectorIP8CGNSZoneSaISJ_EE
libgmsh.so.4.8:_ZN14CGNSZoneStructILi3EEC1EiiiilRKSt3mapINSt7__cxx1112basic_stringIcSt11char_traitsIcESaIcEEESt6vectorIS8_IiSaIiEESaISA_EESt4lessIS7_ESaISt4pairIKS7_SC_EEERi
libgmsh.so.4.8:_ZN14CGNSZoneStructILi3EEC2EiiiilRKSt3mapINSt7__cxx1112basic_stringIcSt11char_traitsIcESaIcEEESt6vectorIS8_IiSaIiEESaISA_EESt4lessIS7_ESaISt4pairIKS7_SC_EEERi
libgmsh.so.4.8:_ZN14MElementOctree7findAllEdddib
libgmsh.so.4.8:_ZN14MElementOctreeC1EP6GModel
libgmsh.so.4.8:_ZN14MElementOctreeC1ERKSt6vectorIP8MElementSaIS2_EE
libgmsh.so.4.8:_ZN14MElementOctreeC2EP6GModel
libgmsh.so.4.8:_ZN14MElementOctreeC2ERKSt6vectorIP8MElementSaIS2_EE
libgmsh.so.4.8:_ZN14MElementOctreeD1Ev
libgmsh.so.4.8:_ZN14MElementOctreeD2Ev
libgmsh.so.4.8:_ZN14MTetrahedron1010getEdgeRepEbiPdS0_S0_P8SVector3
libgmsh.so.4.8:_ZN14MTetrahedron1010getFaceRepEbiPdS0_S0_P8SVector3
libgmsh.so.4.8:_ZN14MTetrahedron1014getNumEdgesRepEb
libgmsh.so.4.8:_ZN14MTetrahedron1014getNumFacesRepEb
libgmsh.so.4.8:_ZN14OrthogonalPoly11EvalLobattoEid
libgmsh.so.4.8:_ZN14OrthogonalPoly12EvalDLobattoEid
libgmsh.so.4.8:_ZN14OrthogonalPoly12EvalLegendreEid
libgmsh.so.4.8:_ZN14OrthogonalPoly13EvalDLegendreEid
libgmsh.so.4.8:_ZN14OrthogonalPoly18EvalKernelFunctionEid
libgmsh.so.4.8:_ZN14OrthogonalPoly19EvalDKernelFunctionEid
libgmsh.so.4.8:_ZN14adaptiveVertex3addEdddRSt3setIS_St4lessIS_ESaIS_EE
libgmsh.so.4.8:_ZN14backgroundMesh11updateSizesEP5GFace
libgmsh.so.4.8:_ZN14backgroundMesh13getSmoothnessEP8MElement
libgmsh.so.4.8:_ZN14backgroundMesh13getSmoothnessEddd
libgmsh.so.4.8:_ZN14backgroundMesh15propagate1dMeshEP5GFace
libgmsh.so.4.8:_ZN14backgroundMesh19propagateCrossFieldEP5GFace
libgmsh.so.4.8:_ZN14backgroundMesh19propagateCrossFieldEP5GFaceP14simpleFunctionIdE
libgmsh.so.4.8:_ZN14backgroundMesh21getMeshElementByCoordEdddb
libgmsh.so.4.8:_ZN14backgroundMesh21propagateCrossFieldHJEP5GFace
libgmsh.so.4.8:_ZN14backgroundMesh24setCrossFieldsByDistanceEP5GFace
libgmsh.so.4.8:_ZN14backgroundMesh29propagateCrossFieldByDistanceEP5GFace
libgmsh.so.4.8:_ZN14backgroundMesh3setEP5GFace
libgmsh.so.4.8:_ZN14backgroundMesh5printERKNSt7__cxx1112basic_stringIcSt11char_traitsIcESaIcEEEP5GFaceRKSt3mapIP7MVertexdSt4lessISC_ESaISt4pairIKSC_dEEEi
libgmsh.so.4.8:_ZN14backgroundMesh5unsetEv
libgmsh.so.4.8:_ZN14backgroundMesh7currentEv
libgmsh.so.4.8:_ZN14backgroundMeshC1EP5GFaceb
libgmsh.so.4.8:_ZN14backgroundMeshC2EP5GFaceb
libgmsh.so.4.8:_ZN14backgroundMeshD0Ev
libgmsh.so.4.8:_ZN14backgroundMeshD1Ev
libgmsh.so.4.8:_ZN14backgroundMeshD2Ev
libgmsh.so.4.8:_ZN14clippingWindow12resetBrowserEv
libgmsh.so.4.8:_ZN14clippingWindow28fillBoxValuesFromPlaneValuesEv
libgmsh.so.4.8:_ZN14clippingWindow4showEv
libgmsh.so.4.8:_ZN14clippingWindowC1Ei
libgmsh.so.4.8:_ZN14clippingWindowC2Ei
libgmsh.so.4.8:_ZN14colorbarWindow10index_to_xEi
libgmsh.so.4.8:_ZN14colorbarWindow10x_to_indexEi
libgmsh.so.4.8:_ZN14colorbarWindow12redraw_rangeEii
libgmsh.so.4.8:_ZN14colorbarWindow13redraw_markerEv
libgmsh.so.4.8:_ZN14colorbarWindow14intensity_to_yEi
libgmsh.so.4.8:_ZN14colorbarWindow14y_to_intensityEi
libgmsh.so.4.8:_ZN14colorbarWindow4drawEv
libgmsh.so.4.8:_ZN14colorbarWindow6handleEi
libgmsh.so.4.8:_ZN14colorbarWindow6updateEPKcddP14GmshColorTablePb
libgmsh.so.4.8:_ZN14colorbarWindowC1EiiiiPKc
libgmsh.so.4.8:_ZN14colorbarWindowC2EiiiiPKc
libgmsh.so.4.8:_ZN14discreteRegion14createGeometryEv
libgmsh.so.4.8:_ZN14discreteRegionC1EP6GModel
libgmsh.so.4.8:_ZN14discreteRegionC1EP6GModeli
libgmsh.so.4.8:_ZN14discreteRegionC2EP6GModel
libgmsh.so.4.8:_ZN14discreteRegionC2EP6GModeli
libgmsh.so.4.8:_ZN14discreteVertex11setPositionER6GPoint
libgmsh.so.4.8:_ZN14discreteVertexC1EP6GModel
libgmsh.so.4.8:_ZN14discreteVertexC1EP6GModeliddd
libgmsh.so.4.8:_ZN14discreteVertexC2EP6GModel
libgmsh.so.4.8:_ZN14discreteVertexC2EP6GModeliddd
libgmsh.so.4.8:_ZN14discreteVertexD0Ev
libgmsh.so.4.8:_ZN14discreteVertexD1Ev
libgmsh.so.4.8:_ZN14discreteVertexD2Ev
libgmsh.so.4.8:_ZN14dofManagerBase17_parallelFinalizeEv
libgmsh.so.4.8:_ZN14gLevelsetPlaneC1EPKdS1_S1_i
libgmsh.so.4.8:_ZN14gLevelsetPlaneC1EPKdS1_i
libgmsh.so.4.8:_ZN14gLevelsetPlaneC1ERKS_
libgmsh.so.4.8:_ZN14gLevelsetPlaneC1ERKSt6vectorIdSaIdEES4_i
libgmsh.so.4.8:_ZN14gLevelsetPlaneC2EPKdS1_S1_i
libgmsh.so.4.8:_ZN14gLevelsetPlaneC2EPKdS1_i
libgmsh.so.4.8:_ZN14gLevelsetPlaneC2ERKS_
libgmsh.so.4.8:_ZN14gLevelsetPlaneC2ERKSt6vectorIdSaIdEES4_i
libgmsh.so.4.8:_ZN14gLevelsetToolsC1ERKS_
libgmsh.so.4.8:_ZN14gLevelsetToolsC2ERKS_
libgmsh.so.4.8:_ZN14highOrderTools13_smoothMetricERSt6vectorIP8MElementSaIS2_EEP5GFaceR10dofManagerIdERSt3setIP7MVertex18MVertexPtrLessThanSaISD_EER14elasticityTerm
libgmsh.so.4.8:_ZN14highOrderTools16applySmoothingToEP5GFacedb
libgmsh.so.4.8:_ZN14highOrderTools16applySmoothingToERSt6vectorIP8MElementSaIS2_EEP5GFace
libgmsh.so.4.8:_ZN14highOrderTools16applySmoothingToERSt6vectorIP8MElementSaIS2_EEdb
libgmsh.so.4.8:_ZN14highOrderTools18_computeMetricInfoEP5GFaceP8MElementR10fullMatrixIdES6_R10fullVectorIdE
libgmsh.so.4.8:_ZN14highOrderTools23ensureMinimumDistorsionEP8MElementd
libgmsh.so.4.8:_ZN14highOrderTools23ensureMinimumDistorsionERSt6vectorIP8MElementSaIS2_EEd
libgmsh.so.4.8:_ZN14highOrderTools23ensureMinimumDistorsionEd
libgmsh.so.4.8:_ZN14highOrderTools24makePosViewWithJacobiansEPKc
libgmsh.so.4.8:_ZN14highOrderTools29_applyIncrementalDisplacementEdRSt6vectorIP8MElementSaIS2_EEbdPcS5_
libgmsh.so.4.8:_ZN14highOrderTools30_computeStraightSidedPositionsEv
libgmsh.so.4.8:_ZN14highOrderToolsC1EP6GModel
libgmsh.so.4.8:_ZN14highOrderToolsC1EP6GModelS1_i
libgmsh.so.4.8:_ZN14highOrderToolsC2EP6GModel
libgmsh.so.4.8:_ZN14highOrderToolsC2EP6GModelS1_i
libgmsh.so.4.8:_ZN14pyramidalBasisC1Ei
libgmsh.so.4.8:_ZN14pyramidalBasisC2Ei
libgmsh.so.4.8:_ZN14pyramidalBasisD0Ev
libgmsh.so.4.8:_ZN14pyramidalBasisD1Ev
libgmsh.so.4.8:_ZN14pyramidalBasisD2Ev
libgmsh.so.4.8:_ZN14smooth_normals3addEdddddd
libgmsh.so.4.8:_ZN14tetgenbehavior17parse_commandlineEiPPc
libgmsh.so.4.8:_ZN15CorrespVertices10getdistP2PEv
libgmsh.so.4.8:_ZN15CorrespVertices10setdistP2PEd
libgmsh.so.4.8:_ZN15CorrespVertices11getEndPointEv
libgmsh.so.4.8:_ZN15CorrespVertices11getIsMasterEv
libgmsh.so.4.8:_ZN15CorrespVertices11setEndPointERK7SPoint3
libgmsh.so.4.8:_ZN15CorrespVertices11setIsMasterEb
libgmsh.so.4.8:_ZN15CorrespVertices12getEndNormalEv
libgmsh.so.4.8:_ZN15CorrespVertices12getTagMasterEv
libgmsh.so.4.8:_ZN15CorrespVertices12getangleProdEv
libgmsh.so.4.8:_ZN15CorrespVertices12setEndNormalERK8SVector3
libgmsh.so.4.8:_ZN15CorrespVertices12setTagMasterEi
libgmsh.so.4.8:_ZN15CorrespVertices12setangleProdEd
libgmsh.so.4.8:_ZN15CorrespVertices13getStartPointEv
libgmsh.so.4.8:_ZN15CorrespVertices13setStartPointEP7MVertex
libgmsh.so.4.8:_ZN15CorrespVertices14getEndTriangleEv
libgmsh.so.4.8:_ZN15CorrespVertices14getStartNormalEv
libgmsh.so.4.8:_ZN15CorrespVertices14setEndTriangleE8faceXtet
libgmsh.so.4.8:_ZN15CorrespVertices14setStartNormalERK8SVector3
libgmsh.so.4.8:_ZN15CorrespVertices20getEndTriangleActiveEv
libgmsh.so.4.8:_ZN15CorrespVertices20setEndTriangleActiveEb
libgmsh.so.4.8:_ZN15CorrespVertices9getActiveEv
libgmsh.so.4.8:_ZN15CorrespVertices9setActiveEb
libgmsh.so.4.8:_ZN15CorrespVerticesC1Ev
libgmsh.so.4.8:_ZN15CorrespVerticesC2Ev
libgmsh.so.4.8:_ZN15CorrespVerticesD1Ev
libgmsh.so.4.8:_ZN15CorrespVerticesD2Ev
libgmsh.so.4.8:_ZN15DI_CuttingPointC1EPK8DI_Point
libgmsh.so.4.8:_ZN15DI_CuttingPointC2EPK8DI_Point
libgmsh.so.4.8:_ZN15FunctionManager13leaveFunctionEPP8_IO_FILERNSt7__cxx1112basic_stringIcSt11char_traitsIcESaIcEEERi
libgmsh.so.4.8:_ZN15FunctionManager14createFunctionERKNSt7__cxx1112basic_stringIcSt11char_traitsIcESaIcEEEP8_IO_FILES7_i
libgmsh.so.4.8:_ZN15FunctionManager5clearEv
libgmsh.so.4.8:_ZN15FunctionManager8InstanceEv
libgmsh.so.4.8:_ZN15FunctionManagerC1Ev
libgmsh.so.4.8:_ZN15FunctionManagerC2Ev
libgmsh.so.4.8:_ZN15GMSH_CurlPlugin7executeEP5PView
libgmsh.so.4.8:_ZN15GMSH_CurlPlugin9getOptionEi
libgmsh.so.4.8:_ZN15GMSH_PostPlugin11getDataListEP5PViewb
libgmsh.so.4.8:_ZN15GMSH_PostPlugin13executeRemoteEP5PView
libgmsh.so.4.8:_ZN15GMSH_PostPlugin23getPossiblyAdaptiveDataEP5PView
libgmsh.so.4.8:_ZN15GMSH_PostPlugin7getViewEiP5PView
libgmsh.so.4.8:_ZN15GMSH_SkinPlugin7executeEP5PView
libgmsh.so.4.8:_ZN15GMSH_SkinPlugin9getOptionEi
libgmsh.so.4.8:_ZN15GMSH_WarpPlugin7executeEP5PView
libgmsh.so.4.8:_ZN15GMSH_WarpPlugin9getOptionEi
libgmsh.so.4.8:_ZN15GeomMeshMatcher10matchEdgesEP6GModelS1_PSt6vectorI4PairIP7GVertexS5_ESaIS6_EERb
libgmsh.so.4.8:_ZN15GeomMeshMatcher10matchFacesEP6GModelS1_PSt6vectorI4PairIP5GEdgeS5_ESaIS6_EERb
libgmsh.so.4.8:_ZN15GeomMeshMatcher12forceTomatchEP6GModelS1_d
libgmsh.so.4.8:_ZN15GeomMeshMatcher12matchRegionsEP6GModelS1_PSt6vectorI4PairIP5GFaceS5_ESaIS6_EERb
libgmsh.so.4.8:_ZN15GeomMeshMatcher13matchVerticesEP6GModelS1_Rb
libgmsh.so.4.8:_ZN15GeomMeshMatcher5matchEP6GModelS1_
libgmsh.so.4.8:_ZN15GeomMeshMatcher7destroyEv
libgmsh.so.4.8:_ZN15GeomMeshMatcher8instanceEv
libgmsh.so.4.8:_ZN15MElementFactory6createEiRSt6vectorIP7MVertexSaIS2_EEmibiP8MElementS7_S7_
libgmsh.so.4.8:_ZN15MElementFactory6createEiiRKSt6vectorIiSaIiEEP6GModel
libgmsh.so.4.8:_ZN15MSubTetrahedron12updateParentEP6GModel
libgmsh.so.4.8:_ZN15MSubTetrahedron20getIntegrationPointsEiPiPP5IntPt
libgmsh.so.4.8:_ZN15MSubTetrahedron20getShapeFunctionNodeEi
libgmsh.so.4.8:_ZN15MSubTetrahedronD0Ev
libgmsh.so.4.8:_ZN15MSubTetrahedronD1Ev
libgmsh.so.4.8:_ZN15MSubTetrahedronD2Ev
libgmsh.so.4.8:_ZN15MTriangleBorder20getIntegrationPointsEiPiPP5IntPt
libgmsh.so.4.8:_ZN15PViewDataGModel10getElementEiii
libgmsh.so.4.8:_ZN15PViewDataGModel10skipEntityEii
libgmsh.so.4.8:_ZN15PViewDataGModel11_getElementEiii
libgmsh.so.4.8:_ZN15PViewDataGModel11combineTimeER8nameData
libgmsh.so.4.8:_ZN15PViewDataGModel11destroyDataEv
libgmsh.so.4.8:_ZN15PViewDataGModel11getFileNameB5cxx11Ei
libgmsh.so.4.8:_ZN15PViewDataGModel11getNumEdgesEiii
libgmsh.so.4.8:_ZN15PViewDataGModel11getNumLinesEi
libgmsh.so.4.8:_ZN15PViewDataGModel11getNumNodesEiii
libgmsh.so.4.8:_ZN15PViewDataGModel11hasTimeStepEi
libgmsh.so.4.8:_ZN15PViewDataGModel11importListsEPiPPSt6vectorIdSaIdEE
libgmsh.so.4.8:_ZN15PViewDataGModel11skipElementEiiibi
libgmsh.so.4.8:_ZN15PViewDataGModel12getDimensionEiii
libgmsh.so.4.8:_ZN15PViewDataGModel12getNumPointsEi
libgmsh.so.4.8:_ZN15PViewDataGModel12getNumPrismsEi
libgmsh.so.4.8:_ZN15PViewDataGModel12getNumValuesEiii
libgmsh.so.4.8:_ZN15PViewDataGModel12hasPartitionEii
libgmsh.so.4.8:_ZN15PViewDataGModel12sendToServerERKNSt7__cxx1112basic_stringIcSt11char_traitsIcESaIcEEE
libgmsh.so.4.8:_ZN15PViewDataGModel13getMemoryInMbEv
libgmsh.so.4.8:_ZN15PViewDataGModel13getNumScalarsEi
libgmsh.so.4.8:_ZN15PViewDataGModel13getNumTensorsEi
libgmsh.so.4.8:_ZN15PViewDataGModel13getNumVectorsEi
libgmsh.so.4.8:_ZN15PViewDataGModel14getBoundingBoxEi
libgmsh.so.4.8:_ZN15PViewDataGModel14getNumElementsEii
libgmsh.so.4.8:_ZN15PViewDataGModel14getNumEntitiesEi
libgmsh.so.4.8:_ZN15PViewDataGModel14getNumPolygonsEi
libgmsh.so.4.8:_ZN15PViewDataGModel14getNumPyramidsEi
libgmsh.so.4.8:_ZN15PViewDataGModel14getNumTrihedraEi
libgmsh.so.4.8:_ZN15PViewDataGModel14reverseElementEiii
libgmsh.so.4.8:_ZN15PViewDataGModel15getNumHexahedraEi
libgmsh.so.4.8:_ZN15PViewDataGModel15getNumPolyhedraEi
libgmsh.so.4.8:_ZN15PViewDataGModel15getNumTimeStepsEv
libgmsh.so.4.8:_ZN15PViewDataGModel15getNumTrianglesEi
libgmsh.so.4.8:_ZN15PViewDataGModel15getValueByIndexEiiiiRd
libgmsh.so.4.8:_ZN15PViewDataGModel16getNumComponentsEiii
libgmsh.so.4.8:_ZN15PViewDataGModel16getNumTetrahedraEi
libgmsh.so.4.8:_ZN15PViewDataGModel17getNumQuadranglesEi
libgmsh.so.4.8:_ZN15PViewDataGModel17hasMultipleMeshesEv
libgmsh.so.4.8:_ZN15PViewDataGModel24getFirstNonEmptyTimeStepEi
libgmsh.so.4.8:_ZN15PViewDataGModel6getMaxEibiiPi
libgmsh.so.4.8:_ZN15PViewDataGModel6getMinEibiiPi
libgmsh.so.4.8:_ZN15PViewDataGModel6smoothEv
libgmsh.so.4.8:_ZN15PViewDataGModel7addDataEP6GModelRKSt3mapIiSt6vectorIdSaIdEESt4lessIiESaISt4pairIKiS5_EEEidii
libgmsh.so.4.8:_ZN15PViewDataGModel7addDataEP6GModelRKSt6vectorImSaImEERKS2_IS2_IdSaIdEESaIS8_EEidii
libgmsh.so.4.8:_ZN15PViewDataGModel7addDataEP6GModelRKSt6vectorImSaImEERKS2_IdSaIdEEidii
libgmsh.so.4.8:_ZN15PViewDataGModel7getNodeEiiiiRdS0_S0_
libgmsh.so.4.8:_ZN15PViewDataGModel7getTimeEi
libgmsh.so.4.8:_ZN15PViewDataGModel7getTypeEiii
libgmsh.so.4.8:_ZN15PViewDataGModel7readMEDERKNSt7__cxx1112basic_stringIcSt11char_traitsIcESaIcEEEi
libgmsh.so.4.8:_ZN15PViewDataGModel7readMSHERKNSt7__cxx1112basic_stringIcSt11char_traitsIcESaIcEEES7_iP8_IO_FILEbbidiiiS7_
libgmsh.so.4.8:_ZN15PViewDataGModel7readPCHERKNSt7__cxx1112basic_stringIcSt11char_traitsIcESaIcEEEi
libgmsh.so.4.8:_ZN15PViewDataGModel7setNodeEiiiiddd
libgmsh.so.4.8:_ZN15PViewDataGModel7tagNodeEiiiii
libgmsh.so.4.8:_ZN15PViewDataGModel8_getNodeEP8MElementi
libgmsh.so.4.8:_ZN15PViewDataGModel8finalizeEbRKNSt7__cxx1112basic_stringIcSt11char_traitsIcESaIcEEE
libgmsh.so.4.8:_ZN15PViewDataGModel8getValueEiiiiRd
libgmsh.so.4.8:_ZN15PViewDataGModel8getValueEiiiiiRd
libgmsh.so.4.8:_ZN15PViewDataGModel8hasModelEP6GModeli
libgmsh.so.4.8:_ZN15PViewDataGModel8readCGNSERKSt4pairINSt7__cxx1112basic_stringIcSt11char_traitsIcESaIcEEES6_ERKS6_iiiRKSt6vectorISC_IP7MVertexSaISE_EESaISG_EERKSC_ISC_IP8MElementSaISM_EESaISO_EE
libgmsh.so.4.8:_ZN15PViewDataGModel8setValueEiiiiid
libgmsh.so.4.8:_ZN15PViewDataGModel8writeMEDERKNSt7__cxx1112basic_stringIcSt11char_traitsIcESaIcEEE
libgmsh.so.4.8:_ZN15PViewDataGModel8writeMSHERKNSt7__cxx1112basic_stringIcSt11char_traitsIcESaIcEEEdbbbibbb
libgmsh.so.4.8:_ZN15PViewDataGModel9getEntityEii
libgmsh.so.4.8:_ZN15PViewDataGModelC1ENS_8DataTypeE
libgmsh.so.4.8:_ZN15PViewDataGModelC2ENS_8DataTypeE
libgmsh.so.4.8:_ZN15PViewDataGModelD0Ev
libgmsh.so.4.8:_ZN15PViewDataGModelD1Ev
libgmsh.so.4.8:_ZN15PViewDataGModelD2Ev
libgmsh.so.4.8:_ZN15adaptivePyramid10recurErrorEPS_dd
libgmsh.so.4.8:_ZN15adaptivePyramid11recurCreateEPS_ii
libgmsh.so.4.8:_ZN15adaptivePyramid5errorEdd
libgmsh.so.4.8:_ZN15adaptivePyramid6createEi
libgmsh.so.4.8:_ZN15gLevelsetConrodC1EPKdS1_S1_RS0_S2_S2_S2_S2_S2_S2_S2_S2_S2_i
libgmsh.so.4.8:_ZN15gLevelsetConrodC1ERKS_
libgmsh.so.4.8:_ZN15gLevelsetConrodC2EPKdS1_S1_RS0_S2_S2_S2_S2_S2_S2_S2_S2_S2_i
libgmsh.so.4.8:_ZN15gLevelsetConrodC2ERKS_
libgmsh.so.4.8:_ZN15gLevelsetNACA00C1Edddd
libgmsh.so.4.8:_ZN15gLevelsetNACA00C2Edddd
libgmsh.so.4.8:_ZN15gLevelsetPoints15setup_level_setERK10fullMatrixIdERS1_S4_
libgmsh.so.4.8:_ZN15gLevelsetPoints9computeLSERSt6vectorIP7MVertexSaIS2_EE
libgmsh.so.4.8:_ZN15gLevelsetPointsC1ER10fullMatrixIdEi
libgmsh.so.4.8:_ZN15gLevelsetPointsC1ERKS_
libgmsh.so.4.8:_ZN15gLevelsetPointsC2ER10fullMatrixIdEi
libgmsh.so.4.8:_ZN15gLevelsetPointsC2ERKS_
libgmsh.so.4.8:_ZN15gLevelsetSphereC1ERKdS1_S1_S1_i
libgmsh.so.4.8:_ZN15gLevelsetSphereC2ERKdS1_S1_S1_i
libgmsh.so.4.8:_ZN15gmshPolarSphere14NewPolarSphereEidddd
libgmsh.so.4.8:_ZN15gmshPolarSphereC1Edddd
libgmsh.so.4.8:_ZN15gmshPolarSphereC2Edddd
libgmsh.so.4.8:_ZN15groupOfElements11addPhysicalEiiRK13elementFilter
libgmsh.so.4.8:_ZN15groupOfElements13addElementaryEP7GEntityRK13elementFilter
libgmsh.so.4.8:_ZN15groupOfElementsC1EP5GFace
libgmsh.so.4.8:_ZN15groupOfElementsC1EP7GRegion
libgmsh.so.4.8:_ZN15groupOfElementsC1ERSt6vectorIP8MElementSaIS2_EE
libgmsh.so.4.8:_ZN15groupOfElementsC2EP5GFace
libgmsh.so.4.8:_ZN15groupOfElementsC2EP7GRegion
libgmsh.so.4.8:_ZN15groupOfElementsC2ERSt6vectorIP8MElementSaIS2_EE
libgmsh.so.4.8:_ZN15incompleteBasis28_computeCoefficientsTriangleEv
libgmsh.so.4.8:_ZN15incompleteBasisC1Ei
libgmsh.so.4.8:_ZN15incompleteBasisC2Ei
libgmsh.so.4.8:_ZN15incompleteBasisD0Ev
libgmsh.so.4.8:_ZN15incompleteBasisD1Ev
libgmsh.so.4.8:_ZN15incompleteBasisD2Ev
libgmsh.so.4.8:_ZN15inputValueFloat12new_input_cbEP9Fl_WidgetPv
libgmsh.so.4.8:_ZN15inputValueFloat6handleEi
libgmsh.so.4.8:_ZN15inputValueFloatC1EiiiiPKc
libgmsh.so.4.8:_ZN15inputValueFloatC2EiiiiPKc
libgmsh.so.4.8:_ZN15linearSystemCSRISt7complexIdEE18preAllocateEntriesEv
libgmsh.so.4.8:_ZN15linearSystemCSRISt7complexIdEE8allocateEi
libgmsh.so.4.8:_ZN15linearSystemCSRISt7complexIdEE9getMatrixERPiS4_RPd
libgmsh.so.4.8:_ZN15linearSystemCSRIdE18preAllocateEntriesEv
libgmsh.so.4.8:_ZN15linearSystemCSRIdE8allocateEi
libgmsh.so.4.8:_ZN15linearSystemCSRIdE9getMatrixERPiS2_RPd
libgmsh.so.4.8:_ZN15orientMeshGEdgeclEP5GEdge
libgmsh.so.4.8:_ZN15orientMeshGFaceclEP5GFace
libgmsh.so.4.8:_ZN15orthogonalBasisC1ERK13FuncSpaceData
libgmsh.so.4.8:_ZN15orthogonalBasisC2ERK13FuncSpaceData
libgmsh.so.4.8:_ZN15polynomialBasisC1Ei
libgmsh.so.4.8:_ZN15polynomialBasisC2Ei
libgmsh.so.4.8:_ZN15polynomialBasisD0Ev
libgmsh.so.4.8:_ZN15polynomialBasisD1Ev
libgmsh.so.4.8:_ZN15polynomialBasisD2Ev
libgmsh.so.4.8:_ZN15redirectMessageC1ENSt7__cxx1112basic_stringIcSt11char_traitsIcESaIcEEEb
libgmsh.so.4.8:_ZN15redirectMessageC2ENSt7__cxx1112basic_stringIcSt11char_traitsIcESaIcEEEb
libgmsh.so.4.8:_ZN15redirectMessageclENSt7__cxx1112basic_stringIcSt11char_traitsIcESaIcEEES5_
libgmsh.so.4.8:_ZN15sparsityPattern11insertEntryEii
libgmsh.so.4.8:_ZN15sparsityPattern5clearEv
libgmsh.so.4.8:_ZN15sparsityPatternC1Ev
libgmsh.so.4.8:_ZN15sparsityPatternC2Ev
libgmsh.so.4.8:_ZN15sparsityPatternD1Ev
libgmsh.so.4.8:_ZN15sparsityPatternD2Ev
libgmsh.so.4.8:_ZN16CGNSZoneUnstruct11readSectionEiRKSt6vectorIP7MVertexSaIS2_EERKS0_I7SPoint3SaIS7_EEPSt3mapIiS0_IP8MElementSaISE_EESt4lessIiESaISt4pairIKiSG_EEERSG_
libgmsh.so.4.8:_ZN16CGNSZoneUnstruct12readElementsERSt6vectorIP7MVertexSaIS2_EEPSt3mapIiS0_IP8MElementSaIS8_EESt4lessIiESaISt4pairIKiSA_EEERSA_RS0_INSt7__cxx1112basic_stringIcSt11char_traitsIcESaIcEEESaISP_EE
libgmsh.so.4.8:_ZN16CGNSZoneUnstructC1EiiiilRKSt3mapINSt7__cxx1112basic_stringIcSt11char_traitsIcESaIcEEESt6vectorIS7_IiSaIiEESaIS9_EESt4lessIS6_ESaISt4pairIKS6_SB_EEERi
libgmsh.so.4.8:_ZN16CGNSZoneUnstructC2EiiiilRKSt3mapINSt7__cxx1112basic_stringIcSt11char_traitsIcESaIcEEESt6vectorIS7_IiSaIiEESaIS9_EESt4lessIS6_ESaISt4pairIKS6_SB_EEERi
libgmsh.so.4.8:_ZN16GMSH_CrackPlugin7executeEP5PView
libgmsh.so.4.8:_ZN16GMSH_CrackPlugin9getOptionEi
libgmsh.so.4.8:_ZN16GMSH_ProbePlugin4drawEPv
libgmsh.so.4.8:_ZN16GMSH_ProbePlugin7executeEP5PView
libgmsh.so.4.8:_ZN16GMSH_ProbePlugin8callbackEiidPd
libgmsh.so.4.8:_ZN16GMSH_ProbePlugin9callbackXEiid
libgmsh.so.4.8:_ZN16GMSH_ProbePlugin9callbackYEiid
libgmsh.so.4.8:_ZN16GMSH_ProbePlugin9callbackZEiid
libgmsh.so.4.8:_ZN16GMSH_ProbePlugin9getOptionEi
libgmsh.so.4.8:_ZN16InterfacedClient7analyzeEv
libgmsh.so.4.8:_ZN16InterfacedClient7computeEv
libgmsh.so.4.8:_ZN16InterfacedClient7convertEv
libgmsh.so.4.8:_ZN16adaptMeshGRegionclEP7GRegion
libgmsh.so.4.8:_ZN16adaptiveElementsI15adaptivePyramidE4initEi
libgmsh.so.4.8:_ZN16adaptiveTriangle10recurErrorEPS_dd
libgmsh.so.4.8:_ZN16adaptiveTriangle11recurCreateEPS_ii
libgmsh.so.4.8:_ZN16adaptiveTriangle5errorEdd
libgmsh.so.4.8:_ZN16adaptiveTriangle6createEi
libgmsh.so.4.8:_ZN16backgroundMesh2D11updateSizesEv
libgmsh.so.4.8:_ZN16backgroundMesh2D15propagateValuesERSt3mapIKPK7MVertexdSt4lessIS4_ESaISt4pairIS4_dEEER14simpleFunctionIdEb
libgmsh.so.4.8:_ZN16backgroundMesh2D16computeSizeFieldEv
libgmsh.so.4.8:_ZN16backgroundMesh2D16create_face_meshEv
libgmsh.so.4.8:_ZN16backgroundMesh2D16create_mesh_copyEv
libgmsh.so.4.8:_ZN16backgroundMesh2D5resetEb
libgmsh.so.4.8:_ZN16backgroundMesh2D5unsetEv
libgmsh.so.4.8:_ZN16backgroundMesh2D9getOctreeEv
libgmsh.so.4.8:_ZN16backgroundMesh2DC1EP5GFaceb
libgmsh.so.4.8:_ZN16backgroundMesh2DC2EP5GFaceb
libgmsh.so.4.8:_ZN16backgroundMesh2DD0Ev
libgmsh.so.4.8:_ZN16backgroundMesh2DD1Ev
libgmsh.so.4.8:_ZN16backgroundMesh2DD2Ev
libgmsh.so.4.8:_ZN16backgroundMesh3D15propagateValuesERSt3mapIKPK7MVertexdSt4lessIS4_ESaISt4pairIS4_dEEER14simpleFunctionIdEb
libgmsh.so.4.8:_ZN16backgroundMesh3D16computeSizeFieldEv
libgmsh.so.4.8:_ZN16backgroundMesh3D20get_nearest_neighborEPK7MVertex
libgmsh.so.4.8:_ZN16backgroundMesh3D20get_nearest_neighborEPKd
libgmsh.so.4.8:_ZN16backgroundMesh3D20get_nearest_neighborEPKdRd
libgmsh.so.4.8:_ZN16backgroundMesh3D20get_nearest_neighborEddd
libgmsh.so.4.8:_ZN16backgroundMesh3D20get_nearest_neighborEdddRd
libgmsh.so.4.8:_ZN16backgroundMesh3D9getOctreeEv
libgmsh.so.4.8:_ZN16backgroundMesh3DC1EP7GRegion
libgmsh.so.4.8:_ZN16backgroundMesh3DC2EP7GRegion
libgmsh.so.4.8:_ZN16backgroundMesh3DD0Ev
libgmsh.so.4.8:_ZN16backgroundMesh3DD1Ev
libgmsh.so.4.8:_ZN16backgroundMesh3DD2Ev
libgmsh.so.4.8:_ZN16elasticitySolver11changeLMTauEid
libgmsh.so.4.8:_ZN16elasticitySolver11setEdgeDispEiiP14simpleFunctionIdE
libgmsh.so.4.8:_ZN16elasticitySolver12addNeumannBCEiNSt7__cxx1112basic_stringIcSt11char_traitsIcESaIcEEESt6vectorIdSaIdEE
libgmsh.so.4.8:_ZN16elasticitySolver12addNeumannBCEiiSt6vectorIdSaIdEE
libgmsh.so.4.8:_ZN16elasticitySolver13computeL2NormEP14simpleFunctionIdES2_S2_
libgmsh.so.4.8:_ZN16elasticitySolver13readInputFileERKNSt7__cxx1112basic_stringIcSt11char_traitsIcESaIcEEE
libgmsh.so.4.8:_ZN16elasticitySolver14addDirichletBCEiNSt7__cxx1112basic_stringIcSt11char_traitsIcESaIcEEEid
libgmsh.so.4.8:_ZN16elasticitySolver14addDirichletBCEiiid
libgmsh.so.4.8:_ZN16elasticitySolver14buildErrorViewENSt7__cxx1112basic_stringIcSt11char_traitsIcESaIcEEEP14simpleFunctionIdES8_S8_
libgmsh.so.4.8:_ZN16elasticitySolver14computeLagNormEiP14simpleFunctionIdE
libgmsh.so.4.8:_ZN16elasticitySolver15buildStrainViewENSt7__cxx1112basic_stringIcSt11char_traitsIcESaIcEEE
libgmsh.so.4.8:_ZN16elasticitySolver15buildVolumeViewENSt7__cxx1112basic_stringIcSt11char_traitsIcESaIcEEE
libgmsh.so.4.8:_ZN16elasticitySolver16addElasticDomainENSt7__cxx1112basic_stringIcSt11char_traitsIcESaIcEEEdd
libgmsh.so.4.8:_ZN16elasticitySolver16addElasticDomainEidd
libgmsh.so.4.8:_ZN16elasticitySolver16setElasticDomainEidd
libgmsh.so.4.8:_ZN16elasticitySolver17buildStressesViewENSt7__cxx1112basic_stringIcSt11char_traitsIcESaIcEEE
libgmsh.so.4.8:_ZN16elasticitySolver17buildVonMisesViewENSt7__cxx1112basic_stringIcSt11char_traitsIcESaIcEEE
libgmsh.so.4.8:_ZN16elasticitySolver21buildDisplacementViewENSt7__cxx1112basic_stringIcSt11char_traitsIcESaIcEEE
libgmsh.so.4.8:_ZN16elasticitySolver22buildElasticEnergyViewENSt7__cxx1112basic_stringIcSt11char_traitsIcESaIcEEE
libgmsh.so.4.8:_ZN16elasticitySolver22computeEffectiveStrainESt6vectorIdSaIdEE
libgmsh.so.4.8:_ZN16elasticitySolver22setLagrangeMultipliersEidRK8SVector3iP14simpleFunctionIdE
libgmsh.so.4.8:_ZN16elasticitySolver24computeDisplacementErrorEP14simpleFunctionIdES2_S2_
libgmsh.so.4.8:_ZN16elasticitySolver25computeEffectiveStiffnessESt6vectorIdSaIdEE
libgmsh.so.4.8:_ZN16elasticitySolver27buildLagrangeMultiplierViewERKNSt7__cxx1112basic_stringIcSt11char_traitsIcESaIcEEEi
libgmsh.so.4.8:_ZN16elasticitySolver5solveEv
libgmsh.so.4.8:_ZN16elasticitySolver7cutMeshEP9gLevelset
libgmsh.so.4.8:_ZN16elasticitySolver7setMeshERKNSt7__cxx1112basic_stringIcSt11char_traitsIcESaIcEEEi
libgmsh.so.4.8:_ZN16elasticitySolver8assembleEP12linearSystemIdE
libgmsh.so.4.8:_ZN16elasticitySolver8exportKbEv
libgmsh.so.4.8:_ZN16elasticitySolver9postSolveEv
libgmsh.so.4.8:_ZN16elasticitySolverC1EP6GModeli
libgmsh.so.4.8:_ZN16elasticitySolverC2EP6GModeli
libgmsh.so.4.8:_ZN16gLevelsetPopcornC1Eddddddi
libgmsh.so.4.8:_ZN16gLevelsetPopcornC2Eddddddi
libgmsh.so.4.8:_ZN16gLevelsetQuadric21computeRotationMatrixEPKdPA3_d
libgmsh.so.4.8:_ZN16gLevelsetQuadric21computeRotationMatrixEPKdS1_PA3_d
libgmsh.so.4.8:_ZN16gLevelsetQuadric2AxEPKdPdd
libgmsh.so.4.8:_ZN16gLevelsetQuadric3xAxEPKdRdd
libgmsh.so.4.8:_ZN16gLevelsetQuadric4initEv
libgmsh.so.4.8:_ZN16gLevelsetQuadric6rotateEPA3_Kd
libgmsh.so.4.8:_ZN16gLevelsetQuadric9translateEPKd
libgmsh.so.4.8:_ZN16gLevelsetQuadricC1ERKS_
libgmsh.so.4.8:_ZN16gLevelsetQuadricC2ERKS_
libgmsh.so.4.8:_ZN16gaussIntegration10getPyramidEiR10fullMatrixIdER10fullVectorIdE
libgmsh.so.4.8:_ZN16gaussIntegration11getTriangleEiR10fullMatrixIdER10fullVectorIdE
libgmsh.so.4.8:_ZN16gaussIntegration13getHexahedronEiR10fullMatrixIdER10fullVectorIdE
libgmsh.so.4.8:_ZN16gaussIntegration14getTetrahedronEiR10fullMatrixIdER10fullVectorIdE
libgmsh.so.4.8:_ZN16gaussIntegration3getEiiR10fullMatrixIdER10fullVectorIdE
libgmsh.so.4.8:_ZN16gaussIntegration7getLineEiR10fullMatrixIdER10fullVectorIdE
libgmsh.so.4.8:_ZN16gaussIntegration7getQuadEiR10fullMatrixIdER10fullVectorIdE
libgmsh.so.4.8:_ZN16gaussIntegration8getPrismEiR10fullMatrixIdER10fullVectorIdE
libgmsh.so.4.8:_ZN16linearSystemBase12setParameterERKNSt7__cxx1112basic_stringIcSt11char_traitsIcESaIcEEES5_
libgmsh.so.4.8:_ZN16robustPredicates12incirclefastEPdS0_S0_S0_
libgmsh.so.4.8:_ZN16robustPredicates12incircleslowEPdS0_S0_S0_
libgmsh.so.4.8:_ZN16robustPredicates12inspherefastEPdS0_S0_S0_S0_
libgmsh.so.4.8:_ZN16robustPredicates12insphereslowEPdS0_S0_S0_S0_
libgmsh.so.4.8:_ZN16robustPredicates12orient2dfastEPdS0_S0_
libgmsh.so.4.8:_ZN16robustPredicates12orient2dslowEPdS0_S0_
libgmsh.so.4.8:_ZN16robustPredicates12orient3dfastEPdS0_S0_S0_
libgmsh.so.4.8:_ZN16robustPredicates12orient3dslowEPdS0_S0_S0_
libgmsh.so.4.8:_ZN16robustPredicates13expansion_sumEiPdiS0_S0_
libgmsh.so.4.8:_ZN16robustPredicates13incircleadaptEPdS0_S0_S0_d
libgmsh.so.4.8:_ZN16robustPredicates13incircleexactEPdS0_S0_S0_
libgmsh.so.4.8:_ZN16robustPredicates13insphereadaptEPdS0_S0_S0_S0_d
libgmsh.so.4.8:_ZN16robustPredicates13insphereexactEPdS0_S0_S0_S0_
libgmsh.so.4.8:_ZN16robustPredicates13orient2dadaptEPdS0_S0_d
libgmsh.so.4.8:_ZN16robustPredicates13orient2dexactEPdS0_S0_
libgmsh.so.4.8:_ZN16robustPredicates13orient3dadaptEPdS0_S0_S0_d
libgmsh.so.4.8:_ZN16robustPredicates13orient3dexactEPdS0_S0_S0_
libgmsh.so.4.8:_ZN16robustPredicates13orient4dadaptEPdS0_S0_S0_S0_dddddd
libgmsh.so.4.8:_ZN16robustPredicates13orient4dexactEPdS0_S0_S0_S0_ddddd
libgmsh.so.4.8:_ZN16robustPredicates14grow_expansionEiPddS0_
libgmsh.so.4.8:_ZN16robustPredicates15scale_expansionEiPddS0_
libgmsh.so.4.8:_ZN16robustPredicates18fast_expansion_sumEiPdiS0_S0_
libgmsh.so.4.8:_ZN16robustPredicates20linear_expansion_sumEiPdiS0_S0_
libgmsh.so.4.8:_ZN16robustPredicates23expansion_sum_zeroelim1EiPdiS0_S0_
libgmsh.so.4.8:_ZN16robustPredicates23expansion_sum_zeroelim2EiPdiS0_S0_
libgmsh.so.4.8:_ZN16robustPredicates23grow_expansion_zeroelimEiPddS0_
libgmsh.so.4.8:_ZN16robustPredicates24scale_expansion_zeroelimEiPddS0_
libgmsh.so.4.8:_ZN16robustPredicates27fast_expansion_sum_zeroelimEiPdiS0_S0_
libgmsh.so.4.8:_ZN16robustPredicates29linear_expansion_sum_zeroelimEiPdiS0_S0_
libgmsh.so.4.8:_ZN16robustPredicates8compressEiPdS0_
libgmsh.so.4.8:_ZN16robustPredicates8estimateEiPd
libgmsh.so.4.8:_ZN16robustPredicates8incircleEPdS0_S0_S0_
libgmsh.so.4.8:_ZN16robustPredicates8insphereEPdS0_S0_S0_S0_
libgmsh.so.4.8:_ZN16robustPredicates8orient2dEPdS0_S0_
libgmsh.so.4.8:_ZN16robustPredicates8orient3dEPdS0_S0_S0_
libgmsh.so.4.8:_ZN16robustPredicates8orient4dEPdS0_S0_S0_S0_ddddd
libgmsh.so.4.8:_ZN16robustPredicates9exactinitEiddd
libgmsh.so.4.8:_ZN16statisticsWindow4showEv
libgmsh.so.4.8:_ZN16statisticsWindow7computeEb
libgmsh.so.4.8:_ZN16statisticsWindowC1Ei
libgmsh.so.4.8:_ZN16statisticsWindowC2Ei
libgmsh.so.4.8:_ZN16visibilityWindow15updatePerWindowEb
libgmsh.so.4.8:_ZN16visibilityWindow4showEb
libgmsh.so.4.8:_ZN16visibilityWindowC1Ei
libgmsh.so.4.8:_ZN16visibilityWindowC2Ei
libgmsh.so.4.8:_ZN17GMSH_CutBoxPlugin10callbackX0Eiid
libgmsh.so.4.8:_ZN17GMSH_CutBoxPlugin10callbackX1Eiid
libgmsh.so.4.8:_ZN17GMSH_CutBoxPlugin10callbackX2Eiid
libgmsh.so.4.8:_ZN17GMSH_CutBoxPlugin10callbackX3Eiid
libgmsh.so.4.8:_ZN17GMSH_CutBoxPlugin10callbackY0Eiid
libgmsh.so.4.8:_ZN17GMSH_CutBoxPlugin10callbackY1Eiid
libgmsh.so.4.8:_ZN17GMSH_CutBoxPlugin10callbackY2Eiid
libgmsh.so.4.8:_ZN17GMSH_CutBoxPlugin10callbackY3Eiid
libgmsh.so.4.8:_ZN17GMSH_CutBoxPlugin10callbackZ0Eiid
libgmsh.so.4.8:_ZN17GMSH_CutBoxPlugin10callbackZ1Eiid
libgmsh.so.4.8:_ZN17GMSH_CutBoxPlugin10callbackZ2Eiid
libgmsh.so.4.8:_ZN17GMSH_CutBoxPlugin10callbackZ3Eiid
libgmsh.so.4.8:_ZN17GMSH_CutBoxPlugin12GenerateViewEP5PViewii
libgmsh.so.4.8:_ZN17GMSH_CutBoxPlugin15callbackConnectEiid
libgmsh.so.4.8:_ZN17GMSH_CutBoxPlugin16callbackBoundaryEiid
libgmsh.so.4.8:_ZN17GMSH_CutBoxPlugin4drawEPv
libgmsh.so.4.8:_ZN17GMSH_CutBoxPlugin6getNbUEv
libgmsh.so.4.8:_ZN17GMSH_CutBoxPlugin6getNbVEv
libgmsh.so.4.8:_ZN17GMSH_CutBoxPlugin6getNbWEv
libgmsh.so.4.8:_ZN17GMSH_CutBoxPlugin7executeEP5PView
libgmsh.so.4.8:_ZN17GMSH_CutBoxPlugin8callbackEiidPdddd
libgmsh.so.4.8:_ZN17GMSH_CutBoxPlugin8getPointEiiiPd
libgmsh.so.4.8:_ZN17GMSH_CutBoxPlugin9addInViewEiiiiPPPPdS3_RSt6vectorIdSaIdEEPiS7_S8_S7_S8_S7_S8_
libgmsh.so.4.8:_ZN17GMSH_CutBoxPlugin9callbackUEiid
libgmsh.so.4.8:_ZN17GMSH_CutBoxPlugin9callbackVEiid
libgmsh.so.4.8:_ZN17GMSH_CutBoxPlugin9callbackWEiid
libgmsh.so.4.8:_ZN17GMSH_CutBoxPlugin9getOptionEi
libgmsh.so.4.8:_ZN17GMSH_MinMaxPlugin7executeEP5PView
libgmsh.so.4.8:_ZN17GMSH_MinMaxPlugin9getOptionEi
libgmsh.so.4.8:_ZN17GMSH_RemovePlugin7executeEP5PView
libgmsh.so.4.8:_ZN17GMSH_RemovePlugin9getOptionEi
libgmsh.so.4.8:_ZN17GMSH_SmoothPlugin7executeEP5PView
libgmsh.so.4.8:_ZN17GMSH_SmoothPlugin9getOptionEi
libgmsh.so.4.8:_ZN17HierarchicalBasisD0Ev
libgmsh.so.4.8:_ZN17HierarchicalBasisD1Ev
libgmsh.so.4.8:_ZN17HierarchicalBasisD2Ev
libgmsh.so.4.8:_ZN17JacobiPolynomials1fEidddPd
libgmsh.so.4.8:_ZN17JacobiPolynomials2dfEidddPd
libgmsh.so.4.8:_ZN17MsgProgressStatus4nextEv
libgmsh.so.4.8:_ZN17MsgProgressStatusC1Ei
libgmsh.so.4.8:_ZN17MsgProgressStatusC2Ei
libgmsh.so.4.8:_ZN17MsgProgressStatusD1Ev
libgmsh.so.4.8:_ZN17MsgProgressStatusD2Ev
libgmsh.so.4.8:_ZN17ObjectiveFunction10initializeEP5Patch
libgmsh.so.4.8:_ZN17ObjectiveFunction12contribNamesB5cxx11Ev
libgmsh.so.4.8:_ZN17ObjectiveFunction12failMeasuresB5cxx11Ev
libgmsh.so.4.8:_ZN17ObjectiveFunction12updateMinMaxEv
libgmsh.so.4.8:_ZN17ObjectiveFunction13targetReachedEv
libgmsh.so.4.8:_ZN17ObjectiveFunction13updateResultsEv
libgmsh.so.4.8:_ZN17ObjectiveFunction16updateParametersEv
libgmsh.so.4.8:_ZN17ObjectiveFunction17targetsNotReachedB5cxx11Ev
libgmsh.so.4.8:_ZN17ObjectiveFunction5namesB5cxx11Ev
libgmsh.so.4.8:_ZN17ObjectiveFunction6minMaxEv
libgmsh.so.4.8:_ZN17ObjectiveFunction7computeERdRSt6vectorIdSaIdEE
libgmsh.so.4.8:_ZN17ObjectiveFunction9minMaxStrB5cxx11Ev
libgmsh.so.4.8:_ZN17ObjectiveFunction9stagnatedEv
libgmsh.so.4.8:_ZN17bezierBasisRaiser15_fillRaiserDataEv
libgmsh.so.4.8:_ZN17bezierBasisRaiser18_fillRaiserDataPyrEv
libgmsh.so.4.8:_ZN17gLevelsetCylinderC1EPKdS1_RS0_S2_S2_i
libgmsh.so.4.8:_ZN17gLevelsetCylinderC1EPKdS1_RS0_S2_i
libgmsh.so.4.8:_ZN17gLevelsetCylinderC1ERKS_
libgmsh.so.4.8:_ZN17gLevelsetCylinderC1ERKSt6vectorIdSaIdEES4_RKdS6_i
libgmsh.so.4.8:_ZN17gLevelsetCylinderC2EPKdS1_RS0_S2_S2_i
libgmsh.so.4.8:_ZN17gLevelsetCylinderC2EPKdS1_RS0_S2_i
libgmsh.so.4.8:_ZN17gLevelsetCylinderC2ERKS_
libgmsh.so.4.8:_ZN17gLevelsetCylinderC2ERKSt6vectorIdSaIdEES4_RKdS6_i
libgmsh.so.4.8:_ZN17gLevelsetDistMeshC1EP6GModelRKNSt7__cxx1112basic_stringIcSt11char_traitsIcESaIcEEEii
libgmsh.so.4.8:_ZN17gLevelsetDistMeshC2EP6GModelRKNSt7__cxx1112basic_stringIcSt11char_traitsIcESaIcEEEii
libgmsh.so.4.8:_ZN17gLevelsetDistMeshD0Ev
libgmsh.so.4.8:_ZN17gLevelsetDistMeshD1Ev
libgmsh.so.4.8:_ZN17gLevelsetDistMeshD2Ev
libgmsh.so.4.8:_ZN17gLevelsetImprovedC1ERKS_
libgmsh.so.4.8:_ZN17gLevelsetImprovedC2ERKS_
libgmsh.so.4.8:_ZN17gLevelsetMathEvalC1ERKNSt7__cxx1112basic_stringIcSt11char_traitsIcESaIcEEEi
libgmsh.so.4.8:_ZN17gLevelsetMathEvalC2ERKNSt7__cxx1112basic_stringIcSt11char_traitsIcESaIcEEEi
libgmsh.so.4.8:_ZN17gLevelsetMathEvalD0Ev
libgmsh.so.4.8:_ZN17gLevelsetMathEvalD1Ev
libgmsh.so.4.8:_ZN17gLevelsetMathEvalD2Ev
libgmsh.so.4.8:_ZN17gLevelsetPostViewC1Eii
libgmsh.so.4.8:_ZN17gLevelsetPostViewC2Eii
libgmsh.so.4.8:_ZN17gLevelsetShamrockC1Edddddii
libgmsh.so.4.8:_ZN17gLevelsetShamrockC2Edddddii
libgmsh.so.4.8:_ZN17localSolverClient11FixExecPathERKNSt7__cxx1112basic_stringIcSt11char_traitsIcESaIcEEE
libgmsh.so.4.8:_ZN17localSolverClient11modify_tagsENSt7__cxx1112basic_stringIcSt11char_traitsIcESaIcEEES5_
libgmsh.so.4.8:_ZN17localSolverClient11parse_blockERSt14basic_ifstreamIcSt11char_traitsIcEE
libgmsh.so.4.8:_ZN17localSolverClient12resolveRangeERKNSt7__cxx1112basic_stringIcSt11char_traitsIcESaIcEEERSt6vectorIdSaIdEE
libgmsh.so.4.8:_ZN17localSolverClient13parse_onefileENSt7__cxx1112basic_stringIcSt11char_traitsIcESaIcEEEb
libgmsh.so.4.8:_ZN17localSolverClient13parse_onelineENSt7__cxx1112basic_stringIcSt11char_traitsIcESaIcEEERSt14basic_ifstreamIcS3_E
libgmsh.so.4.8:_ZN17localSolverClient13resolveGetValENSt7__cxx1112basic_stringIcSt11char_traitsIcESaIcEEE
libgmsh.so.4.8:_ZN17localSolverClient13resolveStringERKNSt7__cxx1112basic_stringIcSt11char_traitsIcESaIcEEE
libgmsh.so.4.8:_ZN17localSolverClient14buildRmCommandERNSt7__cxx1112basic_stringIcSt11char_traitsIcESaIcEEE
libgmsh.so.4.8:_ZN17localSolverClient14parse_sentenceENSt7__cxx1112basic_stringIcSt11char_traitsIcESaIcEEE
libgmsh.so.4.8:_ZN17localSolverClient15addNumberChoiceENSt7__cxx1112basic_stringIcSt11char_traitsIcESaIcEEEdb
libgmsh.so.4.8:_ZN17localSolverClient15client_sentenceERKNSt7__cxx1112basic_stringIcSt11char_traitsIcESaIcEEES7_RKSt6vectorIS5_SaIS5_EE
libgmsh.so.4.8:_ZN17localSolverClient15convert_onefileENSt7__cxx1112basic_stringIcSt11char_traitsIcESaIcEEERSt14basic_ofstreamIcS3_E
libgmsh.so.4.8:_ZN17localSolverClient15convert_onelineENSt7__cxx1112basic_stringIcSt11char_traitsIcESaIcEEERSt14basic_ifstreamIcS3_ERSt14basic_ofstreamIcS3_E
libgmsh.so.4.8:_ZN17localSolverClient16checkCommandLineEv
libgmsh.so.4.8:_ZN17localSolverClient16resolveLogicExprESt6vectorINSt7__cxx1112basic_stringIcSt11char_traitsIcESaIcEEESaIS6_EE
libgmsh.so.4.8:_ZN17localSolverClient17parse_ifstatementERSt14basic_ifstreamIcSt11char_traitsIcEEb
libgmsh.so.4.8:_ZN17localSolverClient19convert_ifstatementERSt14basic_ifstreamIcSt11char_traitsIcEERSt14basic_ofstreamIcS2_Eb
libgmsh.so.4.8:_ZN17localSolverClient6toCharB5cxx11Ev
libgmsh.so.4.8:_ZN17localSolverClient7getListENSt7__cxx1112basic_stringIcSt11char_traitsIcESaIcEEERSt6vectorIS5_SaIS5_EE
libgmsh.so.4.8:_ZN17localSolverClient8longNameENSt7__cxx1112basic_stringIcSt11char_traitsIcESaIcEEE
libgmsh.so.4.8:_ZN17localSolverClient9GmshMergeESt6vectorINSt7__cxx1112basic_stringIcSt11char_traitsIcESaIcEEESaIS6_EE
libgmsh.so.4.8:_ZN17localSolverClient9PostArrayESt6vectorINSt7__cxx1112basic_stringIcSt11char_traitsIcESaIcEEESaIS6_EE
libgmsh.so.4.8:_ZN17localSolverClient9getStringENSt7__cxx1112basic_stringIcSt11char_traitsIcESaIcEEE
libgmsh.so.4.8:_ZN17localSolverClient9setActionENSt7__cxx1112basic_stringIcSt11char_traitsIcESaIcEEE
libgmsh.so.4.8:_ZN17meshContextWindow4showEi
libgmsh.so.4.8:_ZN17meshContextWindowC1Ei
libgmsh.so.4.8:_ZN17meshContextWindowC2Ei
libgmsh.so.4.8:_ZN17splitQuadRecovery13buildPyramidsEP6GModel
libgmsh.so.4.8:_ZN17splitQuadRecovery3addERK5MFaceP7MVertexP5GFace
libgmsh.so.4.8:_ZN18BoundaryLayerField10setupFor1dEi
libgmsh.so.4.8:_ZN18BoundaryLayerField10setupFor2dEi
libgmsh.so.4.8:_ZN18BoundaryLayerField14getDescriptionB5cxx11Ev
libgmsh.so.4.8:_ZN18BoundaryLayerField16computeFor1dMeshEdddR8SMetric3
libgmsh.so.4.8:_ZN18BoundaryLayerField16removeAttractorsEv
libgmsh.so.4.8:_ZN18BoundaryLayerField7getNameEv
libgmsh.so.4.8:_ZN18BoundaryLayerFieldC1Ev
libgmsh.so.4.8:_ZN18BoundaryLayerFieldC2Ev
libgmsh.so.4.8:_ZN18BoundaryLayerFieldclEP13DistanceFieldddddR8SMetric3P7GEntity
libgmsh.so.4.8:_ZN18BoundaryLayerFieldclEdddP7GEntity
libgmsh.so.4.8:_ZN18BoundaryLayerFieldclEdddR8SMetric3P7GEntity
libgmsh.so.4.8:_ZN18EncapsulatedClient16buildCommandLineB5cxx11Ev
libgmsh.so.4.8:_ZN18EncapsulatedClient7analyzeEv
libgmsh.so.4.8:_ZN18EncapsulatedClient7computeEv
libgmsh.so.4.8:_ZN18EncapsulatedClient7convertEv
libgmsh.so.4.8:_ZN18GMSH_BubblesPlugin12getOptionStrEi
libgmsh.so.4.8:_ZN18GMSH_BubblesPlugin7executeEP5PView
libgmsh.so.4.8:_ZN18GMSH_BubblesPlugin9getOptionEi
libgmsh.so.4.8:_ZN18GMSH_CutGridPlugin10callbackX0Eiid
libgmsh.so.4.8:_ZN18GMSH_CutGridPlugin10callbackX1Eiid
libgmsh.so.4.8:_ZN18GMSH_CutGridPlugin10callbackX2Eiid
libgmsh.so.4.8:_ZN18GMSH_CutGridPlugin10callbackY0Eiid
libgmsh.so.4.8:_ZN18GMSH_CutGridPlugin10callbackY1Eiid
libgmsh.so.4.8:_ZN18GMSH_CutGridPlugin10callbackY2Eiid
libgmsh.so.4.8:_ZN18GMSH_CutGridPlugin10callbackZ0Eiid
libgmsh.so.4.8:_ZN18GMSH_CutGridPlugin10callbackZ1Eiid
libgmsh.so.4.8:_ZN18GMSH_CutGridPlugin10callbackZ2Eiid
libgmsh.so.4.8:_ZN18GMSH_CutGridPlugin12GenerateViewEP5PViewi
libgmsh.so.4.8:_ZN18GMSH_CutGridPlugin15callbackConnectEiid
libgmsh.so.4.8:_ZN18GMSH_CutGridPlugin4drawEPv
libgmsh.so.4.8:_ZN18GMSH_CutGridPlugin6getNbUEv
libgmsh.so.4.8:_ZN18GMSH_CutGridPlugin6getNbVEv
libgmsh.so.4.8:_ZN18GMSH_CutGridPlugin7executeEP5PView
libgmsh.so.4.8:_ZN18GMSH_CutGridPlugin8callbackEiidPdddd
libgmsh.so.4.8:_ZN18GMSH_CutGridPlugin8getPointEiiPd
libgmsh.so.4.8:_ZN18GMSH_CutGridPlugin9addInViewEiiiPPPdS2_RSt6vectorIdSaIdEEPiS6_S7_S6_S7_
libgmsh.so.4.8:_ZN18GMSH_CutGridPlugin9callbackUEiid
libgmsh.so.4.8:_ZN18GMSH_CutGridPlugin9callbackVEiid
libgmsh.so.4.8:_ZN18GMSH_CutGridPlugin9getOptionEi
libgmsh.so.4.8:_ZN18GMSH_CutMeshPlugin3runEv
libgmsh.so.4.8:_ZN18GMSH_CutMeshPlugin9getOptionEi
libgmsh.so.4.8:_ZN18GMSH_Lambda2Plugin7executeEP5PView
libgmsh.so.4.8:_ZN18GMSH_Lambda2Plugin9getOptionEi
libgmsh.so.4.8:_ZN18GMSH_NewViewPlugin11elementDataEidRSt3mapIiSt6vectorIdSaIdEESt4lessIiESaISt4pairIKiS3_EEEi
libgmsh.so.4.8:_ZN18GMSH_NewViewPlugin12getOptionStrEi
libgmsh.so.4.8:_ZN18GMSH_NewViewPlugin7executeEP5PView
libgmsh.so.4.8:_ZN18GMSH_NewViewPlugin8nodeDataEidRSt3mapIiSt6vectorIdSaIdEESt4lessIiESaISt4pairIKiS3_EEE
libgmsh.so.4.8:_ZN18GMSH_NewViewPlugin9getOptionEi
libgmsh.so.4.8:_ZN18OCCAttributesRTree14rtree_callbackEP13OCCAttributesPv
libgmsh.so.4.8:_ZN18Recombinator_Graph11export_tetsERSt3setIP8MElementSt4lessIS2_ESaIS2_EEP3HexRKNSt7__cxx1112basic_stringIcSt11char_traitsIcESaIcEEE
libgmsh.so.4.8:_ZN18Recombinator_Graph12get_triangleEP7MVertexS1_S1_
libgmsh.so.4.8:_ZN18Recombinator_Graph12get_triangleEP8MElementiii
libgmsh.so.4.8:_ZN18Recombinator_Graph12merge_cliqueEP7GRegionR20cliques_losses_graphIP3HexEi
libgmsh.so.4.8:_ZN18Recombinator_Graph13find_the_lineEP6PELineRKSt8multimapImS1_St4lessImESaISt4pairIKmS1_EEE
libgmsh.so.4.8:_ZN18Recombinator_Graph14buildGraphOnlyEP7GRegionjNSt7__cxx1112basic_stringIcSt11char_traitsIcESaIcEEE
libgmsh.so.4.8:_ZN18Recombinator_Graph14buildGraphOnlyEjNSt7__cxx1112basic_stringIcSt11char_traitsIcESaIcEEE
libgmsh.so.4.8:_ZN18Recombinator_Graph14export_all_hexERiP7GRegion
libgmsh.so.4.8:_ZN18Recombinator_Graph15add_graph_entryEP3HexS1_
libgmsh.so.4.8:_ZN18Recombinator_Graph15execute_blossomEP7GRegionjRKNSt7__cxx1112basic_stringIcSt11char_traitsIcESaIcEEE
libgmsh.so.4.8:_ZN18Recombinator_Graph15execute_blossomEjRKNSt7__cxx1112basic_stringIcSt11char_traitsIcESaIcEEE
libgmsh.so.4.8:_ZN18Recombinator_Graph15is_blossom_pairEP10PETriangleS1_
libgmsh.so.4.8:_ZN18Recombinator_Graph16fill_edges_tableERKSt6vectorIP7MVertexSaIS2_EEP3Hex
libgmsh.so.4.8:_ZN18Recombinator_Graph17compute_hex_ranksEv
libgmsh.so.4.8:_ZN18Recombinator_Graph17createBlossomInfoEP7GRegion
libgmsh.so.4.8:_ZN18Recombinator_Graph17createBlossomInfoEv
libgmsh.so.4.8:_ZN18Recombinator_Graph17export_single_hexEP3HexRKNSt7__cxx1112basic_stringIcSt11char_traitsIcESaIcEEE
libgmsh.so.4.8:_ZN18Recombinator_Graph17find_hex_in_graphEP3Hex
libgmsh.so.4.8:_ZN18Recombinator_Graph17find_the_triangleEP10PETriangleRKSt8multimapImS1_St4lessImESaISt4pairIKmS1_EEE
libgmsh.so.4.8:_ZN18Recombinator_Graph17find_the_triangleEP10PETriangleRSt8multimapIySt4pairIS1_iESt4lessIyESaIS3_IKyS4_EEE
libgmsh.so.4.8:_ZN18Recombinator_Graph18is_not_good_enoughEP3Hex
libgmsh.so.4.8:_ZN18Recombinator_Graph19create_losses_graphEP7GRegion
libgmsh.so.4.8:_ZN18Recombinator_Graph19evaluate_hex_coupleEP3HexS1_
libgmsh.so.4.8:_ZN18Recombinator_Graph20find_hex_in_graphrowEP3HexRSt8multimapIyS1_St4lessIyESaISt4pairIKyS1_EEE
libgmsh.so.4.8:_ZN18Recombinator_Graph21add_face_connectivityEP8MElementiii
libgmsh.so.4.8:_ZN18Recombinator_Graph21export_hexmesh_so_farERi
libgmsh.so.4.8:_ZN18Recombinator_Graph21export_single_hex_allEP3HexRKNSt7__cxx1112basic_stringIcSt11char_traitsIcESaIcEEE
libgmsh.so.4.8:_ZN18Recombinator_Graph21export_single_hex_tetEP3HexRKNSt7__cxx1112basic_stringIcSt11char_traitsIcESaIcEEE
libgmsh.so.4.8:_ZN18Recombinator_Graph21fill_tet_to_hex_tableEP3Hex
libgmsh.so.4.8:_ZN18Recombinator_Graph21post_check_validationEP3Hex
libgmsh.so.4.8:_ZN18Recombinator_Graph22export_hex_init_degreeEP7GRegionRKSt3mapIP3HexiSt4lessIS4_ESaISt4pairIKS4_iEEERKSt6vectorIS4_SaIS4_EE
libgmsh.so.4.8:_ZN18Recombinator_Graph23export_single_hex_facesEP3HexRKNSt7__cxx1112basic_stringIcSt11char_traitsIcESaIcEEE
libgmsh.so.4.8:_ZN18Recombinator_Graph24find_hex_couple_in_graphEP3HexS1_
libgmsh.so.4.8:_ZN18Recombinator_Graph25compute_hex_ranks_blossomEv
libgmsh.so.4.8:_ZN18Recombinator_Graph25create_faces_connectivityEv
libgmsh.so.4.8:_ZN18Recombinator_Graph25find_face_in_blossom_infoEP7MVertexS1_S1_S1_
libgmsh.so.4.8:_ZN18Recombinator_Graph28export_direct_neighbor_tableEi
libgmsh.so.4.8:_ZN18Recombinator_Graph30find_the_created_potential_hexEP3HexRKSt8multimapIyS1_St4lessIyESaISt4pairIKyS1_EEE
libgmsh.so.4.8:_ZN18Recombinator_Graph31create_indirect_neighbors_graphEv
libgmsh.so.4.8:_ZN18Recombinator_Graph45create_direct_neighbors_incompatibility_graphEv
libgmsh.so.4.8:_ZN18Recombinator_Graph5mergeEP7GRegion
libgmsh.so.4.8:_ZN18Recombinator_Graph7executeEP7GRegion
libgmsh.so.4.8:_ZN18Recombinator_Graph8add_faceEP7MVertexS1_S1_P3Hex
libgmsh.so.4.8:_ZN18Recombinator_Graph8add_faceEP7MVertexS1_S1_RSt8multimapIySt4pairIP10PETriangleiESt4lessIyESaIS3_IKyS6_EEE
libgmsh.so.4.8:_ZN18Recombinator_Graph9add_edgesEP3Hex
libgmsh.so.4.8:_ZN18Recombinator_Graph9merge_hexEP7GRegionP3Hex
libgmsh.so.4.8:_ZN18Recombinator_GraphC1EjRKNSt7__cxx1112basic_stringIcSt11char_traitsIcESaIcEEE
libgmsh.so.4.8:_ZN18Recombinator_GraphC2EjRKNSt7__cxx1112basic_stringIcSt11char_traitsIcESaIcEEE
libgmsh.so.4.8:_ZN18Recombinator_GraphD0Ev
libgmsh.so.4.8:_ZN18Recombinator_GraphD1Ev
libgmsh.so.4.8:_ZN18Recombinator_GraphD2Ev
libgmsh.so.4.8:_ZN18RemoteNativeClient16buildCommandLineB5cxx11Ev
libgmsh.so.4.8:_ZN18RemoteNativeClient16checkCommandLineEv
libgmsh.so.4.8:_ZN18RemoteNativeClient7analyzeEv
libgmsh.so.4.8:_ZN18RemoteNativeClient7computeEv
libgmsh.so.4.8:_ZN18StructuredIndexingILi2EE11entFromListERKSt6vectorIlSaIlEEPKlRS3_
libgmsh.so.4.8:_ZN18StructuredIndexingILi2EE12entFromRangeEPKlS2_RSt6vectorIlSaIlEE
libgmsh.so.4.8:_ZN18StructuredIndexingILi2EE12nbEntInRangeEPKl
libgmsh.so.4.8:_ZN18StructuredIndexingILi3EE11entFromListERKSt6vectorIlSaIlEEPKlRS3_
libgmsh.so.4.8:_ZN18StructuredIndexingILi3EE12entFromRangeEPKlS2_RSt6vectorIlSaIlEE
libgmsh.so.4.8:_ZN18StructuredIndexingILi3EE12nbEntInRangeEPKl
libgmsh.so.4.8:_ZN18adaptiveHexahedron10recurErrorEPS_dd
libgmsh.so.4.8:_ZN18adaptiveHexahedron11recurCreateEPS_ii
libgmsh.so.4.8:_ZN18adaptiveHexahedron5errorEdd
libgmsh.so.4.8:_ZN18adaptiveHexahedron6createEi
libgmsh.so.4.8:_ZN18adaptiveQuadrangle10recurErrorEPS_dd
libgmsh.so.4.8:_ZN18adaptiveQuadrangle11recurCreateEPS_ii
libgmsh.so.4.8:_ZN18adaptiveQuadrangle5errorEdd
libgmsh.so.4.8:_ZN18adaptiveQuadrangle6createEi
libgmsh.so.4.8:_ZN18closestPointFinderC1EP7GEntityd
libgmsh.so.4.8:_ZN18closestPointFinderC2EP7GEntityd
libgmsh.so.4.8:_ZN18closestPointFinderD1Ev
libgmsh.so.4.8:_ZN18closestPointFinderD2Ev
libgmsh.so.4.8:_ZN18closestPointFinderclERK7SPoint3
libgmsh.so.4.8:_ZN18gLevelsetEllipsoidC1EPKdS1_RS0_S2_S2_i
libgmsh.so.4.8:_ZN18gLevelsetEllipsoidC1ERKS_
libgmsh.so.4.8:_ZN18gLevelsetEllipsoidC2EPKdS1_RS0_S2_S2_i
libgmsh.so.4.8:_ZN18gLevelsetEllipsoidC2ERKS_
libgmsh.so.4.8:_ZN18linearSystemCSRGmmIdE11systemSolveEv
libgmsh.so.4.8:_ZN19BoundaryLayerCurver12EdgeCurver2D14_reduceCurvingEP6MEdgeNdPK5GFace
libgmsh.so.4.8:_ZN19BoundaryLayerCurver12EdgeCurver2D17_reduceOrderCurveEP6MEdgeNiPK5GFace
libgmsh.so.4.8:_ZN19BoundaryLayerCurver12EdgeCurver2D18_computeParametersEPK6MEdgeNS3_RKNS0_6_FrameEPA3_d
libgmsh.so.4.8:_ZN19BoundaryLayerCurver12EdgeCurver2D18_idealPositionEdgeEPK6MEdgeNRKNS0_6_FrameEPA3_diPK5IntPtR10fullMatrixIdE
libgmsh.so.4.8:_ZN19BoundaryLayerCurver12EdgeCurver2D22_drawIdealPositionEdgeEPK6MEdgeNRKNS0_6_FrameEPA3_dP5GEdge
libgmsh.so.4.8:_ZN19BoundaryLayerCurver12EdgeCurver2D22recoverQualityElementsERSt6vectorI6MEdgeNSaIS2_EERS1_I6MFaceNSaIS6_EERS1_IP8MElementSaISB_EEiiPK5GFace
libgmsh.so.4.8:_ZN19BoundaryLayerCurver12EdgeCurver2D6_FrameC1EPK6MEdgeNPK5GFacePK5GEdgeRK8SVector3
libgmsh.so.4.8:_ZN19BoundaryLayerCurver12EdgeCurver2D6_FrameC2EPK6MEdgeNPK5GFacePK5GEdgeRK8SVector3
libgmsh.so.4.8:_ZN19BoundaryLayerCurver12EdgeCurver2D9curveEdgeEPK6MEdgeNPS1_PK5GFacePK5GEdgeRK8SVector3
libgmsh.so.4.8:_ZN19BoundaryLayerCurver12areSameFacesER5MFaceS1_
libgmsh.so.4.8:_ZN19BoundaryLayerCurver12curveColumnsERSt6vectorISt4pairIP8MElementS0_IS3_SaIS3_EEESaIS6_EEPK5GFace
libgmsh.so.4.8:_ZN19BoundaryLayerCurver13curve2DcolumnERSt4pairIP8MElementSt6vectorIS2_SaIS2_EEEPK5GFacePK5GEdgeRK8SVector3
libgmsh.so.4.8:_ZN19BoundaryLayerCurver14curveInterfaceERSt6vectorI6MFaceNSaIS1_EEPK8MElementS7_RK6MEdgeNRS8_dPK5GFaceb
libgmsh.so.4.8:_ZN19BoundaryLayerCurver15curveInterfacesERSt6vectorISt4pairIP8MElementS0_IS3_SaIS3_EEESaIS6_EERS0_IS1_IiiESaISA_EEPK5GFace
libgmsh.so.4.8:_ZN19BoundaryLayerCurver16computeInterfaceERKSt4pairIP8MElementSt6vectorIS2_SaIS2_EEES8_RS3_I6MFaceNSaIS9_EER6MEdgeNSE_
libgmsh.so.4.8:_ZN19BoundaryLayerCurver16edgesShareVertexEP6MEdgeNS1_
libgmsh.so.4.8:_ZN19BoundaryLayerCurver16faceContainsEdgeERK5MFaceRK5MEdge
libgmsh.so.4.8:_ZN19BoundaryLayerCurver17computeCommonEdgeEP8MElementS1_R5MEdge
libgmsh.so.4.8:_ZN19BoundaryLayerCurver17computeCommonFaceEP8MElementS1_R5MFace
libgmsh.so.4.8:_ZN19BoundaryLayerCurver17idealPositionEdgeEPK8MElementS2_RK6MEdgeNRKNS_17Parameters3DCurveEiPK5IntPtR10fullMatrixIdEiPK5GFace
libgmsh.so.4.8:_ZN19BoundaryLayerCurver17idealPositionFaceERK6MFaceNRKNS_19Parameters3DSurfaceEiPK5IntPtR10fullMatrixIdE
libgmsh.so.4.8:_ZN19BoundaryLayerCurver18InteriorEdgeCurver10_linearizeERK10fullMatrixIdERS2_
libgmsh.so.4.8:_ZN19BoundaryLayerCurver18InteriorEdgeCurver10curveEdgesERSt6vectorI6MEdgeNSaIS2_EEiiPK5GFace
libgmsh.so.4.8:_ZN19BoundaryLayerCurver18InteriorEdgeCurver11_generalTFIERSt6vectorI6MEdgeNSaIS2_EEiRKS1_ISt4pairIddESaIS7_EEPK10fullMatrixIdEdPK5GFace
libgmsh.so.4.8:_ZN19BoundaryLayerCurver18InteriorEdgeCurver11_getTFIDataEii
libgmsh.so.4.8:_ZN19BoundaryLayerCurver18InteriorEdgeCurver12_computeEtasERKSt6vectorI6MEdgeNSaIS2_EERS1_ISt4pairIddESaIS8_EE
libgmsh.so.4.8:_ZN19BoundaryLayerCurver18InteriorEdgeCurver13_computeTermsERK10fullMatrixIdES4_S4_dPS2_
libgmsh.so.4.8:_ZN19BoundaryLayerCurver18InteriorEdgeCurver17_constructTFIDataEii
libgmsh.so.4.8:_ZN19BoundaryLayerCurver18InteriorEdgeCurver19_computeDeltaForTFIERKSt6vectorI6MEdgeNSaIS2_EEiiR10fullMatrixIdES9_S9_
libgmsh.so.4.8:_ZN19BoundaryLayerCurver18InteriorEdgeCurver19_computeEtaAndTermsERSt6vectorI6MEdgeNSaIS2_EEiiRS1_ISt4pairIddESaIS7_EEP10fullMatrixIdE
libgmsh.so.4.8:_ZN19BoundaryLayerCurver18InteriorEdgeCurver28curveEdgesAndPreserveQualityERSt6vectorI6MEdgeNSaIS2_EERS1_I6MFaceNSaIS6_EERS1_IP8MElementSaISB_EEiiPK5GFace
libgmsh.so.4.8:_ZN19BoundaryLayerCurver18computeAdjacenciesERSt6vectorISt4pairIP8MElementS0_IS3_SaIS3_EEESaIS6_EERS0_IS1_IiiESaISA_EE
libgmsh.so.4.8:_ZN19BoundaryLayerCurver18faceContainsVertexERK5MFacePK7MVertex
libgmsh.so.4.8:_ZN19BoundaryLayerCurver18getLeastSquareDataEiii
libgmsh.so.4.8:_ZN19BoundaryLayerCurver19Parameters3DSurface17computeParametersERK6MFaceNS3_
libgmsh.so.4.8:_ZN19BoundaryLayerCurver20createPrimaryElementEP8MElement
libgmsh.so.4.8:_ZN19BoundaryLayerCurver21computePosition3DEdgeEPK8MElementS2_RK6MEdgeNRS3_RKNS_17Parameters3DCurveEidPK5GFace
libgmsh.so.4.8:_ZN19BoundaryLayerCurver21computePosition3DFaceERK6MFaceNRS0_RKNS_19Parameters3DSurfaceEPK5GFace
libgmsh.so.4.8:_ZN19BoundaryLayerCurver21computeThicknessPViewEP8MElementR8SVector3RSt3mapIiSt6vectorIdSaIdEESt4lessIiESaISt4pairIKiS7_EEE
libgmsh.so.4.8:_ZN19BoundaryLayerCurver22projectVertexIntoGFaceEP7MVertexPK5GFace
libgmsh.so.4.8:_ZN19BoundaryLayerCurver23computeThicknessQualityERSt6vectorIP7MVertexSaIS2_EES5_RS0_IdSaIdEER8SVector3
libgmsh.so.4.8:_ZN19BoundaryLayerCurver23repositionInnerVerticesERKSt6vectorI6MFaceNSaIS1_EEPK5GFace
libgmsh.so.4.8:_ZN19BoundaryLayerCurver23repositionInteriorNodesEP8MElementRK10fullMatrixIdE
libgmsh.so.4.8:_ZN19BoundaryLayerCurver23repositionInteriorNodesERKSt6vectorI6MFaceNSaIS1_EERKS0_IP8MElementSaIS7_EE
libgmsh.so.4.8:_ZN19BoundaryLayerCurver23repositionInteriorNodesERSt6vectorI6MFaceNSaIS1_EE
libgmsh.so.4.8:_ZN19BoundaryLayerCurver24computeStackHOEdgesFacesERKSt4pairIP8MElementSt6vectorIS2_SaIS2_EEERS3_I6MEdgeNSaIS9_EERS3_I6MFaceNSaISD_EE
libgmsh.so.4.8:_ZN19BoundaryLayerCurver24constructLeastSquareDataEiii
libgmsh.so.4.8:_ZN19BoundaryLayerCurver24projectVerticesIntoGFaceEPK6MEdgeNPK5GFaceb
libgmsh.so.4.8:_ZN19BoundaryLayerCurver24projectVerticesIntoGFaceEPK6MFaceNPK5GFaceb
libgmsh.so.4.8:_ZN19BoundaryLayerCurver26InnerVertPlacementMatrices10hexahedronEibi
libgmsh.so.4.8:_ZN19BoundaryLayerCurver26InnerVertPlacementMatrices10quadrangleEib
libgmsh.so.4.8:_ZN19BoundaryLayerCurver26InnerVertPlacementMatrices11tetrahedronEibii
libgmsh.so.4.8:_ZN19BoundaryLayerCurver26InnerVertPlacementMatrices5prismEibi
libgmsh.so.4.8:_ZN19BoundaryLayerCurver26InnerVertPlacementMatrices8triangleEibi
libgmsh.so.4.8:_ZN19BoundaryLayerCurver26computeStackHighOrderFacesERKSt4pairIP8MElementSt6vectorIS2_SaIS2_EEERS3_I6MFaceNSaIS9_EE
libgmsh.so.4.8:_ZN19BoundaryLayerCurver27computeStackPrimaryVerticesERKSt4pairIP8MElementSt6vectorIS2_SaIS2_EEERS3_IP7MVertexSaISA_EE
libgmsh.so.4.8:_ZN19BoundaryLayerCurver27getBisectorsAtCommonCornersEPK8MElementS2_RK6MEdgeNR8SVector3S7_
libgmsh.so.4.8:_ZN19BoundaryLayerCurver28computeExtremityCoefficientsEPK8MElementS2_RK6MEdgeNS5_RNS_17Parameters3DCurveE
libgmsh.so.4.8:_ZN19BoundaryLayerCurver29compute2DstackPrimaryVerticesERKSt4pairIP8MElementSt6vectorIS2_SaIS2_EEERS3_IP7MVertexSaISA_EE
libgmsh.so.4.8:_ZN19BoundaryLayerCurver37computePositionInteriorEdgesLinearTFIERSt6vectorI6MFaceNSaIS1_EERK6MEdgeNS7_
libgmsh.so.4.8:_ZN19BoundaryLayerCurver37computePositionInteriorFacesLinearTFIERSt6vectorI6MFaceNSaIS1_EERKS1_S6_
libgmsh.so.4.8:_ZN19DI_IntegrationPoint9computeLsEPK10DI_ElementRKSt6vectorIP9gLevelsetSaIS5_EE
libgmsh.so.4.8:_ZN19GMSH_AnnotatePlugin10callback3DEiid
libgmsh.so.4.8:_ZN19GMSH_AnnotatePlugin11callbackStrEiiRKNSt7__cxx1112basic_stringIcSt11char_traitsIcESaIcEEERS5_
libgmsh.so.4.8:_ZN19GMSH_AnnotatePlugin12callbackFontEiiRKNSt7__cxx1112basic_stringIcSt11char_traitsIcESaIcEEE
libgmsh.so.4.8:_ZN19GMSH_AnnotatePlugin12callbackTextEiiRKNSt7__cxx1112basic_stringIcSt11char_traitsIcESaIcEEE
libgmsh.so.4.8:_ZN19GMSH_AnnotatePlugin12getOptionStrEi
libgmsh.so.4.8:_ZN19GMSH_AnnotatePlugin13callbackAlignEiiRKNSt7__cxx1112basic_stringIcSt11char_traitsIcESaIcEEE
libgmsh.so.4.8:_ZN19GMSH_AnnotatePlugin16callbackFontSizeEiid
libgmsh.so.4.8:_ZN19GMSH_AnnotatePlugin4drawEPv
libgmsh.so.4.8:_ZN19GMSH_AnnotatePlugin7executeEP5PView
libgmsh.so.4.8:_ZN19GMSH_AnnotatePlugin8callbackEiidPdddd
libgmsh.so.4.8:_ZN19GMSH_AnnotatePlugin9callbackXEiid
libgmsh.so.4.8:_ZN19GMSH_AnnotatePlugin9callbackYEiid
libgmsh.so.4.8:_ZN19GMSH_AnnotatePlugin9callbackZEiid
libgmsh.so.4.8:_ZN19GMSH_AnnotatePlugin9getOptionEi
libgmsh.so.4.8:_ZN19GMSH_CutPlanePlugin11callbackVolEiid
libgmsh.so.4.8:_ZN19GMSH_CutPlanePlugin13callbackRecurEiid
libgmsh.so.4.8:_ZN19GMSH_CutPlanePlugin14callbackTargetEiid
libgmsh.so.4.8:_ZN19GMSH_CutPlanePlugin4drawEPv
libgmsh.so.4.8:_ZN19GMSH_CutPlanePlugin7executeEP5PView
libgmsh.so.4.8:_ZN19GMSH_CutPlanePlugin8callbackEiidPdddd
libgmsh.so.4.8:_ZN19GMSH_CutPlanePlugin9callbackAEiid
libgmsh.so.4.8:_ZN19GMSH_CutPlanePlugin9callbackBEiid
libgmsh.so.4.8:_ZN19GMSH_CutPlanePlugin9callbackCEiid
libgmsh.so.4.8:_ZN19GMSH_CutPlanePlugin9callbackDEiid
libgmsh.so.4.8:_ZN19GMSH_CutPlanePlugin9getOptionEi
libgmsh.so.4.8:_ZN19GMSH_DistancePlugin7executeEP5PView
libgmsh.so.4.8:_ZN19GMSH_DistancePlugin9getOptionEi
libgmsh.so.4.8:_ZN19GMSH_DistancePlugin9printViewERSt6vectorIP7GEntitySaIS2_EERSt3mapIP7MVertexdSt4lessIS8_ESaISt4pairIKS8_dEEE
libgmsh.so.4.8:_ZN19GMSH_DistancePluginC1Ev
libgmsh.so.4.8:_ZN19GMSH_DistancePluginC2Ev
libgmsh.so.4.8:_ZN19GMSH_GradientPlugin7executeEP5PView
libgmsh.so.4.8:_ZN19GMSH_GradientPlugin9getOptionEi
libgmsh.so.4.8:_ZN19GMSH_LevelsetPlugin11_addElementEiiiPdS0_S0_PA9_dP13PViewDataListb
libgmsh.so.4.8:_ZN19GMSH_LevelsetPlugin18_cutAndAddElementsEP9PViewDataS1_iiiiPdS2_S2_S2_S2_P13PViewDataList
libgmsh.so.4.8:_ZN19GMSH_LevelsetPlugin7executeEP5PView
libgmsh.so.4.8:_ZN19GMSH_LevelsetPluginC1Ev
libgmsh.so.4.8:_ZN19GMSH_LevelsetPluginC2Ev
libgmsh.so.4.8:_ZN19GMSH_MathEvalPlugin12getOptionStrEi
libgmsh.so.4.8:_ZN19GMSH_MathEvalPlugin7executeEP5PView
libgmsh.so.4.8:_ZN19GMSH_MathEvalPlugin9getOptionEi
libgmsh.so.4.8:_ZN19GMSH_Scal2VecPlugin12getOptionStrEi
libgmsh.so.4.8:_ZN19GMSH_Scal2VecPlugin7executeEP5PView
libgmsh.so.4.8:_ZN19GMSH_Scal2VecPlugin9getOptionEi
libgmsh.so.4.8:_ZN19HierarchicalBasisH127addAllOrientedFaceFunctionsERKdS1_S1_RKSt6vectorIS2_IdSaIdEESaIS4_EERS6_S9_NSt7__cxx1112basic_stringIcSt11char_traitsIcESaIcEEE
libgmsh.so.4.8:_ZN19HierarchicalBasisH127addAllOrientedFaceFunctionsERKdS1_S1_RKSt6vectorIdSaIdEERS4_S7_
libgmsh.so.4.8:_ZN19HierarchicalBasisH1D0Ev
libgmsh.so.4.8:_ZN19HierarchicalBasisH1D1Ev
libgmsh.so.4.8:_ZN19HierarchicalBasisH1D2Ev
libgmsh.so.4.8:_ZN19LegendrePolynomials1fEidPd
libgmsh.so.4.8:_ZN19LegendrePolynomials2dfEidPd
libgmsh.so.4.8:_ZN19LegendrePolynomials2fcEidPd
libgmsh.so.4.8:_ZN19NCollection_DataMapI11TopoDS_EdgeN18BRepTools_Modifier12NewCurveInfoE23TopTools_ShapeMapHasherE11DataMapNode7delNodeEP20NCollection_ListNodeRN11opencascade6handleI25NCollection_BaseAllocatorEE
libgmsh.so.4.8:_ZN19NCollection_DataMapI11TopoDS_FaceN18BRepTools_Modifier14NewSurfaceInfoE23TopTools_ShapeMapHasherE11DataMapNode7delNodeEP20NCollection_ListNodeRN11opencascade6handleI25NCollection_BaseAllocatorEE
libgmsh.so.4.8:_ZN19NCollection_DataMapI12TopoDS_Shape16NCollection_ListI19BRepOffset_IntervalE23TopTools_ShapeMapHasherE11DataMapNode7delNodeEP20NCollection_ListNodeRN11opencascade6handleI25NCollection_BaseAllocatorEE
libgmsh.so.4.8:_ZN19NCollection_DataMapI12TopoDS_Shape16NCollection_ListIS0_E23TopTools_ShapeMapHasherE11DataMapNode7delNodeEP20NCollection_ListNodeRN11opencascade6handleI25NCollection_BaseAllocatorEE
libgmsh.so.4.8:_ZN19NCollection_DataMapI12TopoDS_Shape16NCollection_ListIiE23TopTools_ShapeMapHasherE11DataMapNode7delNodeEP20NCollection_ListNodeRN11opencascade6handleI25NCollection_BaseAllocatorEE
libgmsh.so.4.8:_ZN19NCollection_DataMapI12TopoDS_ShapeN11opencascade6handleI10Geom_PlaneEE23TopTools_ShapeMapHasherE11DataMapNode7delNodeEP20NCollection_ListNodeRNS2_I25NCollection_BaseAllocatorEE
libgmsh.so.4.8:_ZN19NCollection_DataMapI12TopoDS_ShapeN11opencascade6handleI16BRepCheck_ResultEE31TopTools_OrientedShapeMapHasherE11DataMapNode7delNodeEP20NCollection_ListNodeRNS2_I25NCollection_BaseAllocatorEE
libgmsh.so.4.8:_ZN19NCollection_DataMapI12TopoDS_ShapeN11opencascade6handleI23TopTools_HArray2OfShapeEE23TopTools_ShapeMapHasherE11DataMapNode7delNodeEP20NCollection_ListNodeRNS2_I25NCollection_BaseAllocatorEE
libgmsh.so.4.8:_ZN19NCollection_DataMapI12TopoDS_ShapeN17BRepTools_ReShape12TReplacementE23TopTools_ShapeMapHasherE11DataMapNode7delNodeEP20NCollection_ListNodeRN11opencascade6handleI25NCollection_BaseAllocatorEE
libgmsh.so.4.8:_ZN19NCollection_DataMapI12TopoDS_ShapeS0_23TopTools_ShapeMapHasherE11DataMapNode7delNodeEP20NCollection_ListNodeRN11opencascade6handleI25NCollection_BaseAllocatorEE
libgmsh.so.4.8:_ZN19NCollection_DataMapI12TopoDS_ShapeS_IS0_S0_23TopTools_ShapeMapHasherES1_E11DataMapNode7delNodeEP20NCollection_ListNodeRN11opencascade6handleI25NCollection_BaseAllocatorEE
libgmsh.so.4.8:_ZN19NCollection_DataMapI12TopoDS_Shaped23TopTools_ShapeMapHasherE11DataMapNode7delNodeEP20NCollection_ListNodeRN11opencascade6handleI25NCollection_BaseAllocatorEE
libgmsh.so.4.8:_ZN19NCollection_DataMapI12TopoDS_Shapei23TopTools_ShapeMapHasherE11DataMapNode7delNodeEP20NCollection_ListNodeRN11opencascade6handleI25NCollection_BaseAllocatorEE
libgmsh.so.4.8:_ZN19NCollection_DataMapI13TopoDS_Vertex11TopoDS_Edge25NCollection_DefaultHasherIS0_EE11DataMapNode7delNodeEP20NCollection_ListNodeRN11opencascade6handleI25NCollection_BaseAllocatorEE
libgmsh.so.4.8:_ZN19NCollection_DataMapIi12TopoDS_Shape25NCollection_DefaultHasherIiEE11DataMapNode7delNodeEP20NCollection_ListNodeRN11opencascade6handleI25NCollection_BaseAllocatorEE
libgmsh.so.4.8:_ZN19adaptiveTetrahedron10recurErrorEPS_dd
libgmsh.so.4.8:_ZN19adaptiveTetrahedron11recurCreateEPS_ii
libgmsh.so.4.8:_ZN19adaptiveTetrahedron5errorEdd
libgmsh.so.4.8:_ZN19adaptiveTetrahedron6createEi
libgmsh.so.4.8:_ZN19closestVertexFinderC1EP7GEntityb
libgmsh.so.4.8:_ZN19closestVertexFinderC2EP7GEntityb
libgmsh.so.4.8:_ZN19closestVertexFinderD1Ev
libgmsh.so.4.8:_ZN19closestVertexFinderD2Ev
libgmsh.so.4.8:_ZN19closestVertexFinderclERK7SPoint3
libgmsh.so.4.8:_ZN19closestVertexFinderclERK7SPoint3RKSt6vectorIdSaIdEE
libgmsh.so.4.8:_ZN19meshGRegionExtrudedclEP7GRegion
libgmsh.so.4.8:_ZN19onelabContextWindow13disableRedrawEv
libgmsh.so.4.8:_ZN19onelabContextWindow18highlightSelectionEv
libgmsh.so.4.8:_ZN19onelabContextWindow4hideEv
libgmsh.so.4.8:_ZN19onelabContextWindow4showEii
libgmsh.so.4.8:_ZN19onelabContextWindow7rebuildEb
libgmsh.so.4.8:_ZN19onelabContextWindowC1Ei
libgmsh.so.4.8:_ZN19onelabContextWindowC2Ei
libgmsh.so.4.8:_ZN19onelabContextWindowD1Ev
libgmsh.so.4.8:_ZN19onelabContextWindowD2Ev
libgmsh.so.4.8:_ZN19optimizeMeshGRegionclEP7GRegionb
libgmsh.so.4.8:_ZN19parametricLineGEdgeC1EPK5GEdgedd
libgmsh.so.4.8:_ZN19parametricLineGEdgeC2EPK5GEdgedd
libgmsh.so.4.8:_ZN20BoundaryLayerColumns10getColumnsEP7MVertexS1_i
libgmsh.so.4.8:_ZN20GMSH_CutSpherePlugin11callbackVolEiid
libgmsh.so.4.8:_ZN20GMSH_CutSpherePlugin13callbackRecurEiid
libgmsh.so.4.8:_ZN20GMSH_CutSpherePlugin14callbackTargetEiid
libgmsh.so.4.8:_ZN20GMSH_CutSpherePlugin4drawEPv
libgmsh.so.4.8:_ZN20GMSH_CutSpherePlugin7executeEP5PView
libgmsh.so.4.8:_ZN20GMSH_CutSpherePlugin8callbackEiidPdddd
libgmsh.so.4.8:_ZN20GMSH_CutSpherePlugin9callbackREiid
libgmsh.so.4.8:_ZN20GMSH_CutSpherePlugin9callbackXEiid
libgmsh.so.4.8:_ZN20GMSH_CutSpherePlugin9callbackYEiid
libgmsh.so.4.8:_ZN20GMSH_CutSpherePlugin9callbackZEiid
libgmsh.so.4.8:_ZN20GMSH_CutSpherePlugin9getOptionEi
libgmsh.so.4.8:_ZN20GMSH_IntegratePlugin7executeEP5PView
libgmsh.so.4.8:_ZN20GMSH_IntegratePlugin9getOptionEi
libgmsh.so.4.8:_ZN20GMSH_InvisiblePlugin7executeEP5PView
libgmsh.so.4.8:_ZN20GMSH_InvisiblePlugin9getOptionEi
libgmsh.so.4.8:_ZN20GMSH_ParticlesPlugin10callbackX0Eiid
libgmsh.so.4.8:_ZN20GMSH_ParticlesPlugin10callbackX1Eiid
libgmsh.so.4.8:_ZN20GMSH_ParticlesPlugin10callbackX2Eiid
libgmsh.so.4.8:_ZN20GMSH_ParticlesPlugin10callbackY0Eiid
libgmsh.so.4.8:_ZN20GMSH_ParticlesPlugin10callbackY1Eiid
libgmsh.so.4.8:_ZN20GMSH_ParticlesPlugin10callbackY2Eiid
libgmsh.so.4.8:_ZN20GMSH_ParticlesPlugin10callbackZ0Eiid
libgmsh.so.4.8:_ZN20GMSH_ParticlesPlugin10callbackZ1Eiid
libgmsh.so.4.8:_ZN20GMSH_ParticlesPlugin10callbackZ2Eiid
libgmsh.so.4.8:_ZN20GMSH_ParticlesPlugin4drawEPv
libgmsh.so.4.8:_ZN20GMSH_ParticlesPlugin6getNbUEv
libgmsh.so.4.8:_ZN20GMSH_ParticlesPlugin6getNbVEv
libgmsh.so.4.8:_ZN20GMSH_ParticlesPlugin7executeEP5PView
libgmsh.so.4.8:_ZN20GMSH_ParticlesPlugin8callbackEiidPdddd
libgmsh.so.4.8:_ZN20GMSH_ParticlesPlugin8getPointEiiPd
libgmsh.so.4.8:_ZN20GMSH_ParticlesPlugin9callbackUEiid
libgmsh.so.4.8:_ZN20GMSH_ParticlesPlugin9callbackVEiid
libgmsh.so.4.8:_ZN20GMSH_ParticlesPlugin9getOptionEi
libgmsh.so.4.8:_ZN20GMSH_Scal2TensPlugin12getOptionStrEi
libgmsh.so.4.8:_ZN20GMSH_Scal2TensPlugin7executeEP5PView
libgmsh.so.4.8:_ZN20GMSH_Scal2TensPlugin9getOptionEi
libgmsh.so.4.8:_ZN20GMSH_SummationPlugin12getOptionStrEi
libgmsh.so.4.8:_ZN20GMSH_SummationPlugin7executeEP5PView
libgmsh.so.4.8:_ZN20GMSH_SummationPlugin9getOptionEi
libgmsh.so.4.8:_ZN20GMSH_TransformPlugin7executeEP5PView
libgmsh.so.4.8:_ZN20GMSH_TransformPlugin9getOptionEi
libgmsh.so.4.8:_ZN20GMSH_VoroMetalPlugin12getOptionStrEi
libgmsh.so.4.8:_ZN20GMSH_VoroMetalPlugin7executeEP5PView
libgmsh.so.4.8:_ZN20GMSH_VoroMetalPlugin9getOptionEi
libgmsh.so.4.8:_ZN20HOPatchDefParametersC1ERK16OptHomParameters
libgmsh.so.4.8:_ZN20HOPatchDefParametersC2ERK16OptHomParameters
libgmsh.so.4.8:_ZN20IsotropicElasticTermC1ER13FunctionSpaceI8SVector3ES3_dd
libgmsh.so.4.8:_ZN20IsotropicElasticTermC1ER13FunctionSpaceI8SVector3Edd
libgmsh.so.4.8:_ZN20IsotropicElasticTermC2ER13FunctionSpaceI8SVector3ES3_dd
libgmsh.so.4.8:_ZN20IsotropicElasticTermC2ER13FunctionSpaceI8SVector3Edd
libgmsh.so.4.8:_ZN20NCollection_SequenceI12TopoDS_ShapeE7delNodeEP19NCollection_SeqNodeRN11opencascade6handleI25NCollection_BaseAllocatorEE
libgmsh.so.4.8:_ZN20NCollection_SequenceI15Extrema_POnCurvE7delNodeEP19NCollection_SeqNodeRN11opencascade6handleI25NCollection_BaseAllocatorEE
libgmsh.so.4.8:_ZN20NCollection_SequenceI15Extrema_POnSurfE7delNodeEP19NCollection_SeqNodeRN11opencascade6handleI25NCollection_BaseAllocatorEE
libgmsh.so.4.8:_ZN20NCollection_SequenceI21BRepFill_FaceAndOrderE7delNodeEP19NCollection_SeqNodeRN11opencascade6handleI25NCollection_BaseAllocatorEE
libgmsh.so.4.8:_ZN20NCollection_SequenceI24Plate_PinpointConstraintE7delNodeEP19NCollection_SeqNodeRN11opencascade6handleI25NCollection_BaseAllocatorEE
libgmsh.so.4.8:_ZN20NCollection_SequenceI25BRepFill_EdgeFaceAndOrderE7delNodeEP19NCollection_SeqNodeRN11opencascade6handleI25NCollection_BaseAllocatorEE
libgmsh.so.4.8:_ZN20NCollection_SequenceI25Plate_LinearXYZConstraintE7delNodeEP19NCollection_SeqNodeRN11opencascade6handleI25NCollection_BaseAllocatorEE
libgmsh.so.4.8:_ZN20NCollection_SequenceI26IntRes2d_IntersectionPointE7delNodeEP19NCollection_SeqNodeRN11opencascade6handleI25NCollection_BaseAllocatorEE
libgmsh.so.4.8:_ZN20NCollection_SequenceI28IntRes2d_IntersectionSegmentE7delNodeEP19NCollection_SeqNodeRN11opencascade6handleI25NCollection_BaseAllocatorEE
libgmsh.so.4.8:_ZN20NCollection_SequenceI28Plate_LinearScalarConstraintE7delNodeEP19NCollection_SeqNodeRN11opencascade6handleI25NCollection_BaseAllocatorEE
libgmsh.so.4.8:_ZN20NCollection_SequenceIN11opencascade6handleI18Standard_TransientEEE7delNodeEP19NCollection_SeqNodeRNS1_I25NCollection_BaseAllocatorEE
libgmsh.so.4.8:_ZN20NCollection_SequenceIN11opencascade6handleI25GeomPlate_PointConstraintEEE7delNodeEP19NCollection_SeqNodeRNS1_I25NCollection_BaseAllocatorEE
libgmsh.so.4.8:_ZN20NCollection_SequenceIbE7delNodeEP19NCollection_SeqNodeRN11opencascade6handleI25NCollection_BaseAllocatorEE
libgmsh.so.4.8:_ZN20NCollection_SequenceIdE7delNodeEP19NCollection_SeqNodeRN11opencascade6handleI25NCollection_BaseAllocatorEE
libgmsh.so.4.8:_ZN20NCollection_SequenceIiE7delNodeEP19NCollection_SeqNodeRN11opencascade6handleI25NCollection_BaseAllocatorEE
libgmsh.so.4.8:_ZN20SOrientedBoundingBox5fillpEv
libgmsh.so.4.8:_ZN20SOrientedBoundingBox7compareERS_S0_
libgmsh.so.4.8:_ZN20SOrientedBoundingBox8buildOBBERSt6vectorI7SPoint3SaIS1_EE
libgmsh.so.4.8:_ZN20SOrientedBoundingBoxC1EPS_
libgmsh.so.4.8:_ZN20SOrientedBoundingBoxC1ER8SVector3dddRKS0_S3_S3_
libgmsh.so.4.8:_ZN20SOrientedBoundingBoxC1Ev
libgmsh.so.4.8:_ZN20SOrientedBoundingBoxC2EPS_
libgmsh.so.4.8:_ZN20SOrientedBoundingBoxC2ER8SVector3dddRKS0_S3_S3_
libgmsh.so.4.8:_ZN20SOrientedBoundingBoxC2Ev
libgmsh.so.4.8:_ZN20VertexCoordLocalLineC1EP7MVertex
libgmsh.so.4.8:_ZN20VertexCoordLocalLineC2EP7MVertex
libgmsh.so.4.8:_ZN20VertexCoordLocalSurfC1EP7MVertex
libgmsh.so.4.8:_ZN20VertexCoordLocalSurfC2EP7MVertex
libgmsh.so.4.8:_ZN20classificationEditorC1Ev
libgmsh.so.4.8:_ZN20classificationEditorC2Ev
libgmsh.so.4.8:_ZN20drawContextFltkCairo10drawStringEPKc
libgmsh.so.4.8:_ZN20drawContextFltkCairo11flushStringEv
libgmsh.so.4.8:_ZN20drawContextFltkCairo14getStringWidthEPKc
libgmsh.so.4.8:_ZN20drawContextFltkCairo7setFontEii
libgmsh.so.4.8:_ZN20drawContextFltkCairoC1Ev
libgmsh.so.4.8:_ZN20drawContextFltkCairoC2Ev
libgmsh.so.4.8:_ZN20drawContextFltkCairoD0Ev
libgmsh.so.4.8:_ZN20drawContextFltkCairoD1Ev
libgmsh.so.4.8:_ZN20drawContextFltkCairoD2Ev
libgmsh.so.4.8:_ZN20gLevelsetGenCylinderC1EPKdS1_RS0_i
libgmsh.so.4.8:_ZN20gLevelsetGenCylinderC1ERKS_
libgmsh.so.4.8:_ZN20gLevelsetGenCylinderC2EPKdS1_RS0_i
libgmsh.so.4.8:_ZN20gLevelsetGenCylinderC2ERKS_
libgmsh.so.4.8:_ZN20gLevelsetMathEvalAllC1ESt6vectorINSt7__cxx1112basic_stringIcSt11char_traitsIcESaIcEEESaIS6_EEi
libgmsh.so.4.8:_ZN20gLevelsetMathEvalAllC2ESt6vectorINSt7__cxx1112basic_stringIcSt11char_traitsIcESaIcEEESaIS6_EEi
libgmsh.so.4.8:_ZN20gLevelsetMathEvalAllD0Ev
libgmsh.so.4.8:_ZN20gLevelsetMathEvalAllD1Ev
libgmsh.so.4.8:_ZN20gLevelsetMathEvalAllD2Ev
libgmsh.so.4.8:_ZN20highOrderToolsWindow4showEb
libgmsh.so.4.8:_ZN20highOrderToolsWindowC1Ei
libgmsh.so.4.8:_ZN20highOrderToolsWindowC2Ei
libgmsh.so.4.8:_ZN20jacobianBasedQuality13_coeffDataICN17deleteBezierCoeffEv
libgmsh.so.4.8:_ZN20jacobianBasedQuality13_coeffDataICNC1EiPK11bezierCoeffS3_
libgmsh.so.4.8:_ZN20jacobianBasedQuality13_coeffDataICNC2EiPK11bezierCoeffS3_
libgmsh.so.4.8:_ZN20jacobianBasedQuality13_coeffDataIGE17deleteBezierCoeffEv
libgmsh.so.4.8:_ZN20jacobianBasedQuality13_coeffDataIGEC1EiPK11bezierCoeffS3_
libgmsh.so.4.8:_ZN20jacobianBasedQuality13_coeffDataIGEC2EiPK11bezierCoeffS3_
libgmsh.so.4.8:_ZN20jacobianBasedQuality13_coeffDataJac17deleteBezierCoeffEv
libgmsh.so.4.8:_ZN20jacobianBasedQuality13_coeffDataJacC1EPK11bezierCoeff
libgmsh.so.4.8:_ZN20jacobianBasedQuality13_coeffDataJacC2EPK11bezierCoeff
libgmsh.so.4.8:_ZN20jacobianBasedQuality13minICNMeasureEP8MElementbbPK10fullMatrixIdEb
libgmsh.so.4.8:_ZN20jacobianBasedQuality13minIGEMeasureEP8MElementbbPK10fullMatrixIdEb
libgmsh.so.4.8:_ZN20jacobianBasedQuality15testAllMeasuresEP8MElementPK10fullMatrixIdE
libgmsh.so.4.8:_ZN20jacobianBasedQuality16sampleICNMeasureEP8MElementiR10fullVectorIdE
libgmsh.so.4.8:_ZN20jacobianBasedQuality16sampleICNMeasureEP8MElementiRdS2_
libgmsh.so.4.8:_ZN20jacobianBasedQuality16sampleIGEMeasureEP8MElementiR10fullVectorIdE
libgmsh.so.4.8:_ZN20jacobianBasedQuality16sampleIGEMeasureEP8MElementiRdS2_
libgmsh.so.4.8:_ZN20jacobianBasedQuality17_subdivideDomainsERSt6vectorIPNS_10_coeffDataESaIS2_EEbb
libgmsh.so.4.8:_ZN20jacobianBasedQuality21_computeBoundRationalERK10fullVectorIdES3_bb
libgmsh.so.4.8:_ZN20jacobianBasedQuality23_getMinAndDeleteDomainsERSt6vectorIPNS_10_coeffDataESaIS2_EE
libgmsh.so.4.8:_ZN20jacobianBasedQuality25minMaxJacobianDeterminantEP8MElementRdS2_PK10fullMatrixIdEb
libgmsh.so.4.8:_ZN20jacobianBasedQuality25sampleJacobianDeterminantEP8MElementiR10fullVectorIdEPK10fullMatrixIdE
libgmsh.so.4.8:_ZN20jacobianBasedQuality25sampleJacobianDeterminantEP8MElementiRdS2_PK10fullMatrixIdE
libgmsh.so.4.8:_ZN20jacobianBasedQuality26testAllMeasuresAllElementsEv
libgmsh.so.4.8:_ZN21GMSH_DivergencePlugin7executeEP5PView
libgmsh.so.4.8:_ZN21GMSH_DivergencePlugin9getOptionEi
libgmsh.so.4.8:_ZN21GMSH_IsosurfacePlugin11callbackVolEiid
libgmsh.so.4.8:_ZN21GMSH_IsosurfacePlugin13callbackRecurEiid
libgmsh.so.4.8:_ZN21GMSH_IsosurfacePlugin13callbackValueEiid
libgmsh.so.4.8:_ZN21GMSH_IsosurfacePlugin14callbackTargetEiid
libgmsh.so.4.8:_ZN21GMSH_IsosurfacePlugin7executeEP5PView
libgmsh.so.4.8:_ZN21GMSH_IsosurfacePlugin9getOptionEi
libgmsh.so.4.8:_ZN21GMSH_MeshVolumePlugin7executeEP5PView
libgmsh.so.4.8:_ZN21GMSH_MeshVolumePlugin9getOptionEi
libgmsh.so.4.8:_ZN21NCollection_TListNodeI12TopoDS_ShapeE7delNodeEP20NCollection_ListNodeRN11opencascade6handleI25NCollection_BaseAllocatorEE
libgmsh.so.4.8:_ZN21NCollection_TListNodeI19BRepOffset_IntervalE7delNodeEP20NCollection_ListNodeRN11opencascade6handleI25NCollection_BaseAllocatorEE
libgmsh.so.4.8:_ZN21NCollection_TListNodeIiE7delNodeEP20NCollection_ListNodeRN11opencascade6handleI25NCollection_BaseAllocatorEE
libgmsh.so.4.8:_ZN21ObjContribFuncBarrier9setTargetEddd
libgmsh.so.4.8:_ZN21ObjContribFuncBarrierC1Ev
libgmsh.so.4.8:_ZN21ObjContribFuncBarrierC2Ev
libgmsh.so.4.8:_ZN21bezierCoeffMemoryPool10freeMemoryEv
libgmsh.so.4.8:_ZN21bezierCoeffMemoryPool12releaseBlockEPdP11bezierCoeff
libgmsh.so.4.8:_ZN21bezierCoeffMemoryPool13setSizeBlocksEm
libgmsh.so.4.8:_ZN21bezierCoeffMemoryPool18_checkEnoughMemoryEv
libgmsh.so.4.8:_ZN21bezierCoeffMemoryPool9giveBlockEP11bezierCoeff
libgmsh.so.4.8:_ZN21bezierCoeffMemoryPoolC1Ev
libgmsh.so.4.8:_ZN21bezierCoeffMemoryPoolC2Ev
libgmsh.so.4.8:_ZN21gmshParametricSurface20NewParametricSurfaceEiPcS0_S0_
libgmsh.so.4.8:_ZN21gmshParametricSurfaceC1EPcS0_S0_
libgmsh.so.4.8:_ZN21gmshParametricSurfaceC2EPcS0_S0_
libgmsh.so.4.8:_ZN21gmshParametricSurfaceD0Ev
libgmsh.so.4.8:_ZN21gmshParametricSurfaceD1Ev
libgmsh.so.4.8:_ZN21gmshParametricSurfaceD2Ev
libgmsh.so.4.8:_ZN21physicalContextWindow4showERKNSt7__cxx1112basic_stringIcSt11char_traitsIcESaIcEEEb
libgmsh.so.4.8:_ZN21physicalContextWindowC1Ei
libgmsh.so.4.8:_ZN21physicalContextWindowC2Ei
libgmsh.so.4.8:_ZN22GMSH_EigenvaluesPlugin7executeEP5PView
libgmsh.so.4.8:_ZN22GMSH_EigenvaluesPlugin9getOptionEi
libgmsh.so.4.8:_ZN22GMSH_GaussPointsPlugin7executeEP5PView
libgmsh.so.4.8:_ZN22GMSH_GaussPointsPlugin9getOptionEi
libgmsh.so.4.8:_ZN22GMSH_MakeSimplexPlugin7executeEP5PView
libgmsh.so.4.8:_ZN22GMSH_MakeSimplexPlugin9getOptionEi
libgmsh.so.4.8:_ZN22GMSH_StreamLinesPlugin10callbackX0Eiid
libgmsh.so.4.8:_ZN22GMSH_StreamLinesPlugin10callbackX1Eiid
libgmsh.so.4.8:_ZN22GMSH_StreamLinesPlugin10callbackX2Eiid
libgmsh.so.4.8:_ZN22GMSH_StreamLinesPlugin10callbackY0Eiid
libgmsh.so.4.8:_ZN22GMSH_StreamLinesPlugin10callbackY1Eiid
libgmsh.so.4.8:_ZN22GMSH_StreamLinesPlugin10callbackY2Eiid
libgmsh.so.4.8:_ZN22GMSH_StreamLinesPlugin10callbackZ0Eiid
libgmsh.so.4.8:_ZN22GMSH_StreamLinesPlugin10callbackZ1Eiid
libgmsh.so.4.8:_ZN22GMSH_StreamLinesPlugin10callbackZ2Eiid
libgmsh.so.4.8:_ZN22GMSH_StreamLinesPlugin4drawEPv
libgmsh.so.4.8:_ZN22GMSH_StreamLinesPlugin6getNbUEv
libgmsh.so.4.8:_ZN22GMSH_StreamLinesPlugin6getNbVEv
libgmsh.so.4.8:_ZN22GMSH_StreamLinesPlugin7executeEP5PView
libgmsh.so.4.8:_ZN22GMSH_StreamLinesPlugin8callbackEiidPdddd
libgmsh.so.4.8:_ZN22GMSH_StreamLinesPlugin8getPointEiiPd
libgmsh.so.4.8:_ZN22GMSH_StreamLinesPlugin9callbackUEiid
libgmsh.so.4.8:_ZN22GMSH_StreamLinesPlugin9callbackVEiid
libgmsh.so.4.8:_ZN22GMSH_StreamLinesPlugin9getOptionEi
libgmsh.so.4.8:_ZN22GMSH_TriangulatePlugin7executeEP5PView
libgmsh.so.4.8:_ZN22GMSH_TriangulatePlugin9getOptionEi
libgmsh.so.4.8:_ZN22HierarchicalBasisH1Pri10orientEdgeERKiS1_RSt6vectorIS2_IdSaIdEESaIS4_EERKS6_S9_
libgmsh.so.4.8:_ZN22HierarchicalBasisH1Pri10orientEdgeERKiS1_RSt6vectorIdSaIdEERKS4_S7_
libgmsh.so.4.8:_ZN22HierarchicalBasisH1Pri10orientFaceERKiS1_S1_S1_RKSt6vectorIS2_IdSaIdEESaIS4_EES8_RS6_
libgmsh.so.4.8:_ZN22HierarchicalBasisH1Pri10orientFaceERKiS1_S1_S1_RKSt6vectorIdSaIdEES6_RS4_
libgmsh.so.4.8:_ZN22HierarchicalBasisH1Pri11getKeysInfoERSt6vectorIiSaIiEES3_
libgmsh.so.4.8:_ZN22HierarchicalBasisH1Pri13generateBasisERKdS1_S1_RSt6vectorIdSaIdEES5_S5_S5_
libgmsh.so.4.8:_ZN22HierarchicalBasisH1Pri13orientOneFaceERKdS1_S1_RKiS3_S3_S3_RSt6vectorIS4_IdSaIdEESaIS6_EENSt7__cxx1112basic_stringIcSt11char_traitsIcESaIcEEE
libgmsh.so.4.8:_ZN22HierarchicalBasisH1Pri13orientOneFaceERKdS1_S1_RKiS3_S3_S3_RSt6vectorIdSaIdEE
libgmsh.so.4.8:_ZN22HierarchicalBasisH1Pri17_affineCoordinateERKiRKdS3_S3_
libgmsh.so.4.8:_ZN22HierarchicalBasisH1Pri21generateGradientBasisERKdS1_S1_RSt6vectorIS2_IdSaIdEESaIS4_EES7_S7_S7_
libgmsh.so.4.8:_ZN22HierarchicalBasisH1Pri34orientEdgeFunctionsForNegativeFlagERSt6vectorIS0_IdSaIdEESaIS2_EE
libgmsh.so.4.8:_ZN22HierarchicalBasisH1Pri34orientEdgeFunctionsForNegativeFlagERSt6vectorIdSaIdEE
libgmsh.so.4.8:_ZN22HierarchicalBasisH1PriC1Ei
libgmsh.so.4.8:_ZN22HierarchicalBasisH1PriC2Ei
libgmsh.so.4.8:_ZN22HierarchicalBasisH1PriD0Ev
libgmsh.so.4.8:_ZN22HierarchicalBasisH1PriD1Ev
libgmsh.so.4.8:_ZN22HierarchicalBasisH1PriD2Ev
libgmsh.so.4.8:_ZN22HierarchicalBasisHcurl27addAllOrientedFaceFunctionsERKdS1_S1_RKSt6vectorIS2_IdSaIdEESaIS4_EERS6_S9_NSt7__cxx1112basic_stringIcSt11char_traitsIcESaIcEEE
libgmsh.so.4.8:_ZN22HierarchicalBasisHcurlD0Ev
libgmsh.so.4.8:_ZN22HierarchicalBasisHcurlD1Ev
libgmsh.so.4.8:_ZN22HierarchicalBasisHcurlD2Ev
libgmsh.so.4.8:_ZN22NCollection_IndexedMapI12TopoDS_Shape23TopTools_ShapeMapHasherE14IndexedMapNode7delNodeEP20NCollection_ListNodeRN11opencascade6handleI25NCollection_BaseAllocatorEE
libgmsh.so.4.8:_ZN22QualPatchDefParametersC1ERK21MeshQualOptParameters
libgmsh.so.4.8:_ZN22QualPatchDefParametersC2ERK21MeshQualOptParameters
libgmsh.so.4.8:_ZN22RemoteInterfacedClient16checkCommandLineEv
libgmsh.so.4.8:_ZN22RemoteInterfacedClient7computeEv
libgmsh.so.4.8:_ZN22automaticMeshSizeField6updateEv
libgmsh.so.4.8:_ZN22automaticMeshSizeFieldD0Ev
libgmsh.so.4.8:_ZN22automaticMeshSizeFieldD1Ev
libgmsh.so.4.8:_ZN22automaticMeshSizeFieldD2Ev
libgmsh.so.4.8:_ZN22automaticMeshSizeFieldclEdddP7GEntity
libgmsh.so.4.8:_ZN22automaticMeshSizeFieldclEdddR8SMetric3P7GEntity
libgmsh.so.4.8:_ZN22gmshLocalNetworkClient14receiveMessageEPS_
libgmsh.so.4.8:_ZN22gmshLocalNetworkClient3runEv
libgmsh.so.4.8:_ZN22gmshLocalNetworkClient4killEv
libgmsh.so.4.8:_ZN22transformContextWindow4showEibb
libgmsh.so.4.8:_ZN22transformContextWindowC1Ei
libgmsh.so.4.8:_ZN22transformContextWindowC2Ei
libgmsh.so.4.8:_ZN23GMSH_EigenvectorsPlugin7executeEP5PView
libgmsh.so.4.8:_ZN23GMSH_EigenvectorsPlugin9getOptionEi
libgmsh.so.4.8:_ZN23GMSH_ExtractEdgesPlugin7executeEP5PView
libgmsh.so.4.8:_ZN23GMSH_ExtractEdgesPlugin9getOptionEi
libgmsh.so.4.8:_ZN23GMSH_ModulusPhasePlugin7executeEP5PView
libgmsh.so.4.8:_ZN23GMSH_ModulusPhasePlugin9getOptionEi
libgmsh.so.4.8:_ZN23GMSH_SpanningTreePlugin10addToModelER6GModelRNSt7__cxx114listISt4pairIiiESaIS5_EEEi
libgmsh.so.4.8:_ZN23GMSH_SpanningTreePlugin11getAllMEdgeERSt3setIPK8MElement19MElementPtrLessThanSaIS3_EERS0_ISt4pairIiiENS_4SortESaIS9_EE
libgmsh.so.4.8:_ZN23GMSH_SpanningTreePlugin12getOptionStrEi
libgmsh.so.4.8:_ZN23GMSH_SpanningTreePlugin12spanningTreeERSt3setISt4pairIiiENS_4SortESaIS2_EERNS_3DSUERNSt7__cxx114listIS2_S4_EE
libgmsh.so.4.8:_ZN23GMSH_SpanningTreePlugin14getAllMElementER6GModeliiRSt3setIPK8MElement19MElementPtrLessThanSaIS5_EE
libgmsh.so.4.8:_ZN23GMSH_SpanningTreePlugin3DSU4findEi
libgmsh.so.4.8:_ZN23GMSH_SpanningTreePlugin3DSU4joinEii
libgmsh.so.4.8:_ZN23GMSH_SpanningTreePlugin3DSU8toStringB5cxx11Ev
libgmsh.so.4.8:_ZN23GMSH_SpanningTreePlugin3DSUC1Em
libgmsh.so.4.8:_ZN23GMSH_SpanningTreePlugin3DSUC2Em
libgmsh.so.4.8:_ZN23GMSH_SpanningTreePlugin3DSUD1Ev
libgmsh.so.4.8:_ZN23GMSH_SpanningTreePlugin3DSUD2Ev
libgmsh.so.4.8:_ZN23GMSH_SpanningTreePlugin3runEv
libgmsh.so.4.8:_ZN23GMSH_SpanningTreePlugin5parseENSt7__cxx1112basic_stringIcSt11char_traitsIcESaIcEEERNS0_4listIiSaIiEEE
libgmsh.so.4.8:_ZN23GMSH_SpanningTreePlugin6minmaxERKSt4pairIiiE
libgmsh.so.4.8:_ZN23GMSH_SpanningTreePlugin9getOptionEi
libgmsh.so.4.8:_ZN23GMSH_SpanningTreePluginC1Ev
libgmsh.so.4.8:_ZN23GMSH_SpanningTreePluginC2Ev
libgmsh.so.4.8:_ZN23HierarchicalBasisH1Line10orientEdgeERKiS1_RSt6vectorIS2_IdSaIdEESaIS4_EERKS6_S9_
libgmsh.so.4.8:_ZN23HierarchicalBasisH1Line10orientEdgeERKiS1_RSt6vectorIdSaIdEERKS4_S7_
libgmsh.so.4.8:_ZN23HierarchicalBasisH1Line11getKeysInfoERSt6vectorIiSaIiEES3_
libgmsh.so.4.8:_ZN23HierarchicalBasisH1Line13generateBasisERKdS1_S1_RSt6vectorIdSaIdEES5_S5_S5_
libgmsh.so.4.8:_ZN23HierarchicalBasisH1Line17_affineCoordinateEid
libgmsh.so.4.8:_ZN23HierarchicalBasisH1Line21generateGradientBasisERKdS1_S1_RSt6vectorIS2_IdSaIdEESaIS4_EES7_S7_S7_
libgmsh.so.4.8:_ZN23HierarchicalBasisH1Line34orientEdgeFunctionsForNegativeFlagERSt6vectorIS0_IdSaIdEESaIS2_EE
libgmsh.so.4.8:_ZN23HierarchicalBasisH1Line34orientEdgeFunctionsForNegativeFlagERSt6vectorIdSaIdEE
libgmsh.so.4.8:_ZN23HierarchicalBasisH1LineC1Ei
libgmsh.so.4.8:_ZN23HierarchicalBasisH1LineC2Ei
libgmsh.so.4.8:_ZN23HierarchicalBasisH1LineD0Ev
libgmsh.so.4.8:_ZN23HierarchicalBasisH1LineD1Ev
libgmsh.so.4.8:_ZN23HierarchicalBasisH1LineD2Ev
libgmsh.so.4.8:_ZN23HierarchicalBasisH1Quad10orientEdgeERKiS1_RSt6vectorIS2_IdSaIdEESaIS4_EERKS6_S9_
libgmsh.so.4.8:_ZN23HierarchicalBasisH1Quad10orientEdgeERKiS1_RSt6vectorIdSaIdEERKS4_S7_
libgmsh.so.4.8:_ZN23HierarchicalBasisH1Quad10orientFaceERKiS1_S1_S1_RKSt6vectorIS2_IdSaIdEESaIS4_EES8_RS6_
libgmsh.so.4.8:_ZN23HierarchicalBasisH1Quad10orientFaceERKiS1_S1_S1_RKSt6vectorIdSaIdEES6_RS4_
libgmsh.so.4.8:_ZN23HierarchicalBasisH1Quad11getKeysInfoERSt6vectorIiSaIiEES3_
libgmsh.so.4.8:_ZN23HierarchicalBasisH1Quad13generateBasisERKdS1_S1_RSt6vectorIdSaIdEES5_S5_S5_
libgmsh.so.4.8:_ZN23HierarchicalBasisH1Quad13orientOneFaceERKdS1_S1_RKiS3_S3_S3_RSt6vectorIS4_IdSaIdEESaIS6_EENSt7__cxx1112basic_stringIcSt11char_traitsIcESaIcEEE
libgmsh.so.4.8:_ZN23HierarchicalBasisH1Quad13orientOneFaceERKdS1_S1_RKiS3_S3_S3_RSt6vectorIdSaIdEE
libgmsh.so.4.8:_ZN23HierarchicalBasisH1Quad17_affineCoordinateERKiRKdS3_
libgmsh.so.4.8:_ZN23HierarchicalBasisH1Quad21generateGradientBasisERKdS1_S1_RSt6vectorIS2_IdSaIdEESaIS4_EES7_S7_S7_
libgmsh.so.4.8:_ZN23HierarchicalBasisH1Quad34orientEdgeFunctionsForNegativeFlagERSt6vectorIS0_IdSaIdEESaIS2_EE
libgmsh.so.4.8:_ZN23HierarchicalBasisH1Quad34orientEdgeFunctionsForNegativeFlagERSt6vectorIdSaIdEE
libgmsh.so.4.8:_ZN23HierarchicalBasisH1QuadC1Ei
libgmsh.so.4.8:_ZN23HierarchicalBasisH1QuadC1Eiiiiii
libgmsh.so.4.8:_ZN23HierarchicalBasisH1QuadC2Ei
libgmsh.so.4.8:_ZN23HierarchicalBasisH1QuadC2Eiiiiii
libgmsh.so.4.8:_ZN23HierarchicalBasisH1QuadD0Ev
libgmsh.so.4.8:_ZN23HierarchicalBasisH1QuadD1Ev
libgmsh.so.4.8:_ZN23HierarchicalBasisH1QuadD2Ev
libgmsh.so.4.8:_ZN23HierarchicalBasisH1Tria10orientEdgeERKiS1_RSt6vectorIS2_IdSaIdEESaIS4_EERKS6_S9_
libgmsh.so.4.8:_ZN23HierarchicalBasisH1Tria10orientEdgeERKiS1_RSt6vectorIdSaIdEERKS4_S7_
libgmsh.so.4.8:_ZN23HierarchicalBasisH1Tria10orientFaceERKiS1_S1_S1_RKSt6vectorIS2_IdSaIdEESaIS4_EES8_RS6_
libgmsh.so.4.8:_ZN23HierarchicalBasisH1Tria10orientFaceERKiS1_S1_S1_RKSt6vectorIdSaIdEES6_RS4_
libgmsh.so.4.8:_ZN23HierarchicalBasisH1Tria11getKeysInfoERSt6vectorIiSaIiEES3_
libgmsh.so.4.8:_ZN23HierarchicalBasisH1Tria13generateBasisERKdS1_S1_RSt6vectorIdSaIdEES5_S5_S5_
libgmsh.so.4.8:_ZN23HierarchicalBasisH1Tria13orientOneFaceERKdS1_S1_RKiS3_S3_S3_RSt6vectorIS4_IdSaIdEESaIS6_EENSt7__cxx1112basic_stringIcSt11char_traitsIcESaIcEEE
libgmsh.so.4.8:_ZN23HierarchicalBasisH1Tria13orientOneFaceERKdS1_S1_RKiS3_S3_S3_RSt6vectorIdSaIdEE
libgmsh.so.4.8:_ZN23HierarchicalBasisH1Tria17_affineCoordinateERKiRKdS3_
libgmsh.so.4.8:_ZN23HierarchicalBasisH1Tria21generateGradientBasisERKdS1_S1_RSt6vectorIS2_IdSaIdEESaIS4_EES7_S7_S7_
libgmsh.so.4.8:_ZN23HierarchicalBasisH1Tria34orientEdgeFunctionsForNegativeFlagERSt6vectorIS0_IdSaIdEESaIS2_EE
libgmsh.so.4.8:_ZN23HierarchicalBasisH1Tria34orientEdgeFunctionsForNegativeFlagERSt6vectorIdSaIdEE
libgmsh.so.4.8:_ZN23HierarchicalBasisH1TriaC1Ei
libgmsh.so.4.8:_ZN23HierarchicalBasisH1TriaC1Eiiii
libgmsh.so.4.8:_ZN23HierarchicalBasisH1TriaC2Ei
libgmsh.so.4.8:_ZN23HierarchicalBasisH1TriaC2Eiiii
libgmsh.so.4.8:_ZN23HierarchicalBasisH1TriaD0Ev
libgmsh.so.4.8:_ZN23HierarchicalBasisH1TriaD1Ev
libgmsh.so.4.8:_ZN23HierarchicalBasisH1TriaD2Ev
libgmsh.so.4.8:_ZN23elementaryContextWindow11updatePointEPdi
libgmsh.so.4.8:_ZN23elementaryContextWindow16frozenPointCoordEi
libgmsh.so.4.8:_ZN23elementaryContextWindow4showEi
libgmsh.so.4.8:_ZN23elementaryContextWindowC1Ei
libgmsh.so.4.8:_ZN23elementaryContextWindowC2Ei
libgmsh.so.4.8:_ZN23gLevelsetGeneralQuadricC1EPKdS1_RS0_S2_S2_S2_S2_i
libgmsh.so.4.8:_ZN23gLevelsetGeneralQuadricC1ERKS_
libgmsh.so.4.8:_ZN23gLevelsetGeneralQuadricC2EPKdS1_RS0_S2_S2_S2_S2_i
libgmsh.so.4.8:_ZN23gLevelsetGeneralQuadricC2ERKS_
libgmsh.so.4.8:_ZN24GMSH_CurvedBndDistPlugin7executeEP5PView
libgmsh.so.4.8:_ZN24GMSH_CutParametricPlugin10callbackNUEiid
libgmsh.so.4.8:_ZN24GMSH_CutParametricPlugin10callbackNVEiid
libgmsh.so.4.8:_ZN24GMSH_CutParametricPlugin11callbackStrEiiRKNSt7__cxx1112basic_stringIcSt11char_traitsIcESaIcEEERS5_
libgmsh.so.4.8:_ZN24GMSH_CutParametricPlugin12callbackMaxUEiid
libgmsh.so.4.8:_ZN24GMSH_CutParametricPlugin12callbackMaxVEiid
libgmsh.so.4.8:_ZN24GMSH_CutParametricPlugin12callbackMinUEiid
libgmsh.so.4.8:_ZN24GMSH_CutParametricPlugin12callbackMinVEiid
libgmsh.so.4.8:_ZN24GMSH_CutParametricPlugin12getOptionStrEi
libgmsh.so.4.8:_ZN24GMSH_CutParametricPlugin15callbackConnectEiid
libgmsh.so.4.8:_ZN24GMSH_CutParametricPlugin4drawEPv
libgmsh.so.4.8:_ZN24GMSH_CutParametricPlugin7executeEP5PView
libgmsh.so.4.8:_ZN24GMSH_CutParametricPlugin7fillXYZEv
libgmsh.so.4.8:_ZN24GMSH_CutParametricPlugin8callbackEiidPdddd
libgmsh.so.4.8:_ZN24GMSH_CutParametricPlugin9callbackXEiiRKNSt7__cxx1112basic_stringIcSt11char_traitsIcESaIcEEE
libgmsh.so.4.8:_ZN24GMSH_CutParametricPlugin9callbackYEiiRKNSt7__cxx1112basic_stringIcSt11char_traitsIcESaIcEEE
libgmsh.so.4.8:_ZN24GMSH_CutParametricPlugin9callbackZEiiRKNSt7__cxx1112basic_stringIcSt11char_traitsIcESaIcEEE
libgmsh.so.4.8:_ZN24GMSH_CutParametricPlugin9getOptionEi
libgmsh.so.4.8:_ZN24HierarchicalBasisH1Brick10orientEdgeERKiS1_RSt6vectorIS2_IdSaIdEESaIS4_EERKS6_S9_
libgmsh.so.4.8:_ZN24HierarchicalBasisH1Brick10orientEdgeERKiS1_RSt6vectorIdSaIdEERKS4_S7_
libgmsh.so.4.8:_ZN24HierarchicalBasisH1Brick10orientFaceERKiS1_S1_S1_RKSt6vectorIS2_IdSaIdEESaIS4_EES8_RS6_
libgmsh.so.4.8:_ZN24HierarchicalBasisH1Brick10orientFaceERKiS1_S1_S1_RKSt6vectorIdSaIdEES6_RS4_
libgmsh.so.4.8:_ZN24HierarchicalBasisH1Brick11getKeysInfoERSt6vectorIiSaIiEES3_
libgmsh.so.4.8:_ZN24HierarchicalBasisH1Brick13generateBasisERKdS1_S1_RSt6vectorIdSaIdEES5_S5_S5_
libgmsh.so.4.8:_ZN24HierarchicalBasisH1Brick13orientOneFaceERKdS1_S1_RKiS3_S3_S3_RSt6vectorIS4_IdSaIdEESaIS6_EENSt7__cxx1112basic_stringIcSt11char_traitsIcESaIcEEE
libgmsh.so.4.8:_ZN24HierarchicalBasisH1Brick13orientOneFaceERKdS1_S1_RKiS3_S3_S3_RSt6vectorIdSaIdEE
libgmsh.so.4.8:_ZN24HierarchicalBasisH1Brick17_affineCoordinateERKiRKdS3_S3_
libgmsh.so.4.8:_ZN24HierarchicalBasisH1Brick21generateGradientBasisERKdS1_S1_RSt6vectorIS2_IdSaIdEESaIS4_EES7_S7_S7_
libgmsh.so.4.8:_ZN24HierarchicalBasisH1Brick34orientEdgeFunctionsForNegativeFlagERSt6vectorIS0_IdSaIdEESaIS2_EE
libgmsh.so.4.8:_ZN24HierarchicalBasisH1Brick34orientEdgeFunctionsForNegativeFlagERSt6vectorIdSaIdEE
libgmsh.so.4.8:_ZN24HierarchicalBasisH1BrickC1Ei
libgmsh.so.4.8:_ZN24HierarchicalBasisH1BrickC2Ei
libgmsh.so.4.8:_ZN24HierarchicalBasisH1BrickD0Ev
libgmsh.so.4.8:_ZN24HierarchicalBasisH1BrickD1Ev
libgmsh.so.4.8:_ZN24HierarchicalBasisH1BrickD2Ev
libgmsh.so.4.8:_ZN24HierarchicalBasisH1Point11getKeysInfoERSt6vectorIiSaIiEES3_
libgmsh.so.4.8:_ZN24HierarchicalBasisH1Point13generateBasisERKdS1_S1_RSt6vectorIdSaIdEES5_S5_S5_
libgmsh.so.4.8:_ZN24HierarchicalBasisH1Point21generateGradientBasisERKdS1_S1_RSt6vectorIS2_IdSaIdEESaIS4_EES7_S7_S7_
libgmsh.so.4.8:_ZN24HierarchicalBasisH1PointC1Ev
libgmsh.so.4.8:_ZN24HierarchicalBasisH1PointC2Ev
libgmsh.so.4.8:_ZN24HierarchicalBasisH1PointD0Ev
libgmsh.so.4.8:_ZN24HierarchicalBasisH1PointD1Ev
libgmsh.so.4.8:_ZN24HierarchicalBasisH1PointD2Ev
libgmsh.so.4.8:_ZN24HierarchicalBasisH1Tetra10orientEdgeERKiS1_RSt6vectorIS2_IdSaIdEESaIS4_EERKS6_S9_
libgmsh.so.4.8:_ZN24HierarchicalBasisH1Tetra10orientEdgeERKiS1_RSt6vectorIdSaIdEERKS4_S7_
libgmsh.so.4.8:_ZN24HierarchicalBasisH1Tetra10orientFaceERKiS1_S1_S1_RKSt6vectorIS2_IdSaIdEESaIS4_EES8_RS6_
libgmsh.so.4.8:_ZN24HierarchicalBasisH1Tetra10orientFaceERKiS1_S1_S1_RKSt6vectorIdSaIdEES6_RS4_
libgmsh.so.4.8:_ZN24HierarchicalBasisH1Tetra11getKeysInfoERSt6vectorIiSaIiEES3_
libgmsh.so.4.8:_ZN24HierarchicalBasisH1Tetra13generateBasisERKdS1_S1_RSt6vectorIdSaIdEES5_S5_S5_
libgmsh.so.4.8:_ZN24HierarchicalBasisH1Tetra13orientOneFaceERKdS1_S1_RKiS3_S3_S3_RSt6vectorIS4_IdSaIdEESaIS6_EENSt7__cxx1112basic_stringIcSt11char_traitsIcESaIcEEE
libgmsh.so.4.8:_ZN24HierarchicalBasisH1Tetra13orientOneFaceERKdS1_S1_RKiS3_S3_S3_RSt6vectorIdSaIdEE
libgmsh.so.4.8:_ZN24HierarchicalBasisH1Tetra17_affineCoordinateERKiRKdS3_S3_
libgmsh.so.4.8:_ZN24HierarchicalBasisH1Tetra21generateGradientBasisERKdS1_S1_RSt6vectorIS2_IdSaIdEESaIS4_EES7_S7_S7_
libgmsh.so.4.8:_ZN24HierarchicalBasisH1Tetra34orientEdgeFunctionsForNegativeFlagERSt6vectorIS0_IdSaIdEESaIS2_EE
libgmsh.so.4.8:_ZN24HierarchicalBasisH1Tetra34orientEdgeFunctionsForNegativeFlagERSt6vectorIdSaIdEE
libgmsh.so.4.8:_ZN24HierarchicalBasisH1TetraC1Ei
libgmsh.so.4.8:_ZN24HierarchicalBasisH1TetraC2Ei
libgmsh.so.4.8:_ZN24HierarchicalBasisH1TetraD0Ev
libgmsh.so.4.8:_ZN24HierarchicalBasisH1TetraD1Ev
libgmsh.so.4.8:_ZN24HierarchicalBasisH1TetraD2Ev
libgmsh.so.4.8:_ZN24HighOrderMeshPeriodicity10_transformEP7MVertexRKSt6vectorIdSaIdEE
libgmsh.so.4.8:_ZN24HighOrderMeshPeriodicity14fixPeriodicityEv
libgmsh.so.4.8:_ZN24HighOrderMeshPeriodicity23_copyBackMasterVerticesEv
libgmsh.so.4.8:_ZN24HighOrderMeshPeriodicity23_relocateMasterVerticesEv
libgmsh.so.4.8:_ZN24HighOrderMeshPeriodicity8_inverseERKSt6vectorIdSaIdEE
libgmsh.so.4.8:_ZN24HighOrderMeshPeriodicityC1ERSt6vectorIP7GEntitySaIS2_EE
libgmsh.so.4.8:_ZN24HighOrderMeshPeriodicityC2ERSt6vectorIP7GEntitySaIS2_EE
libgmsh.so.4.8:_ZN24MVertexBoundaryLayerData11getChildrenEi
libgmsh.so.4.8:_ZN24MVertexBoundaryLayerData14getNumChildrenEi
libgmsh.so.4.8:_ZN24MVertexBoundaryLayerData17addChildrenFamilyERKSt6vectorIP7MVertexSaIS2_EE
libgmsh.so.4.8:_ZN24MVertexBoundaryLayerData22getNumChildrenFamiliesEv
libgmsh.so.4.8:_ZN24RemoteEncapsulatedClient16buildCommandLineB5cxx11Ev
libgmsh.so.4.8:_ZN24RemoteEncapsulatedClient16checkCommandLineEv
libgmsh.so.4.8:_ZN24RemoteEncapsulatedClient7computeEv
libgmsh.so.4.8:_ZN24localNetworkSolverClient14receiveMessageEv
libgmsh.so.4.8:_ZN24localNetworkSolverClient15appendArgumentsB5cxx11Ev
libgmsh.so.4.8:_ZN24localNetworkSolverClient16buildCommandLineB5cxx11Ev
libgmsh.so.4.8:_ZN24localNetworkSolverClient3runEv
libgmsh.so.4.8:_ZN24localNetworkSolverClient4killEv
libgmsh.so.4.8:_ZN24parametricLineNodalBasisC1ERK10nodalBasisRKSt6vectorI7SPoint3SaIS4_EE
libgmsh.so.4.8:_ZN24parametricLineNodalBasisC2ERK10nodalBasisRKSt6vectorI7SPoint3SaIS4_EE
libgmsh.so.4.8:_ZN25CategorizedSourceElementsC1EP7GRegion
libgmsh.so.4.8:_ZN25CategorizedSourceElementsC2EP7GRegion
libgmsh.so.4.8:_ZN25GMSH_BoundaryAnglesPlugin12getOptionStrEi
libgmsh.so.4.8:_ZN25GMSH_BoundaryAnglesPlugin7executeEP5PView
libgmsh.so.4.8:_ZN25GMSH_BoundaryAnglesPlugin9getOptionEi
libgmsh.so.4.8:_ZN25GMSH_HarmonicToTimePlugin7executeEP5PView
libgmsh.so.4.8:_ZN25GMSH_HarmonicToTimePlugin9getOptionEi
libgmsh.so.4.8:_ZN25GMSH_NearToFarFieldPlugin12getOptionStrEi
libgmsh.so.4.8:_ZN25GMSH_NearToFarFieldPlugin14getFarFieldJinERSt6vectorIP7elementSaIS2_EERS0_IS0_IdSaIdEESaIS7_EESA_dddd
libgmsh.so.4.8:_ZN25GMSH_NearToFarFieldPlugin15getFarFieldMonkERSt6vectorIP7elementSaIS2_EERS0_IS0_IdSaIdEESaIS7_EESA_SA_ddd
libgmsh.so.4.8:_ZN25GMSH_NearToFarFieldPlugin7executeEP5PView
libgmsh.so.4.8:_ZN25GMSH_NearToFarFieldPlugin9getOptionEi
libgmsh.so.4.8:_ZN25GMSH_SphericalRaisePlugin7executeEP5PView
libgmsh.so.4.8:_ZN25GMSH_SphericalRaisePlugin9getOptionEi
libgmsh.so.4.8:_ZN25GMSH_TetrahedralizePlugin7executeEP5PView
libgmsh.so.4.8:_ZN25GMSH_TetrahedralizePlugin9getOptionEi
libgmsh.so.4.8:_ZN25HierarchicalBasisHcurlPri10dotProductERKSt6vectorIdSaIdEES4_
libgmsh.so.4.8:_ZN25HierarchicalBasisHcurlPri10orientEdgeERKiS1_RSt6vectorIS2_IdSaIdEESaIS4_EERKS6_S9_
libgmsh.so.4.8:_ZN25HierarchicalBasisHcurlPri10orientFaceERKiS1_S1_S1_RKSt6vectorIS2_IdSaIdEESaIS4_EES8_RS6_
libgmsh.so.4.8:_ZN25HierarchicalBasisHcurlPri11getKeysInfoERSt6vectorIiSaIiEES3_
libgmsh.so.4.8:_ZN25HierarchicalBasisHcurlPri13orientOneFaceERKdS1_S1_RKiS3_S3_S3_RSt6vectorIS4_IdSaIdEESaIS6_EENSt7__cxx1112basic_stringIcSt11char_traitsIcESaIcEEE
libgmsh.so.4.8:_ZN25HierarchicalBasisHcurlPri17_affineCoordinateERKiRKdS3_S3_
libgmsh.so.4.8:_ZN25HierarchicalBasisHcurlPri17generateCurlBasisERKdS1_S1_RSt6vectorIS2_IdSaIdEESaIS4_EES7_S7_
libgmsh.so.4.8:_ZN25HierarchicalBasisHcurlPri18generateHcurlBasisERKdS1_S1_RSt6vectorIS2_IdSaIdEESaIS4_EES7_S7_
libgmsh.so.4.8:_ZN25HierarchicalBasisHcurlPri29matrixVectorProductForMappingERKdRKSt6vectorIdSaIdEERS4_
libgmsh.so.4.8:_ZN25HierarchicalBasisHcurlPri33matrixVectorProductForCurlMappingERSt6vectorIdSaIdEE
libgmsh.so.4.8:_ZN25HierarchicalBasisHcurlPri34orientEdgeFunctionsForNegativeFlagERSt6vectorIS0_IdSaIdEESaIS2_EE
libgmsh.so.4.8:_ZN25HierarchicalBasisHcurlPriC1Ei
libgmsh.so.4.8:_ZN25HierarchicalBasisHcurlPriC2Ei
libgmsh.so.4.8:_ZN25HierarchicalBasisHcurlPriD0Ev
libgmsh.so.4.8:_ZN25HierarchicalBasisHcurlPriD1Ev
libgmsh.so.4.8:_ZN25HierarchicalBasisHcurlPriD2Ev
libgmsh.so.4.8:_ZN25optimizeMeshGRegionNetgenclEP7GRegionb
libgmsh.so.4.8:_ZN26GMSH_ExtractElementsPlugin7executeEP5PView
libgmsh.so.4.8:_ZN26GMSH_ExtractElementsPlugin9getOptionEi
libgmsh.so.4.8:_ZN26GMSH_MeshSubEntitiesPlugin7executeEP5PView
libgmsh.so.4.8:_ZN26GMSH_MeshSubEntitiesPlugin9getOptionEi
libgmsh.so.4.8:_ZN26GMSH_NearestNeighborPlugin7executeEP5PView
libgmsh.so.4.8:_ZN26GMSH_NearestNeighborPlugin9getOptionEi
libgmsh.so.4.8:_ZN26GMSH_SimplePartitionPlugin12getOptionStrEi
libgmsh.so.4.8:_ZN26GMSH_SimplePartitionPlugin3runEv
libgmsh.so.4.8:_ZN26GMSH_SimplePartitionPlugin9getOptionEi
libgmsh.so.4.8:_ZN26HierarchicalBasisHcurlLine10dotProductERKSt6vectorIdSaIdEES4_
libgmsh.so.4.8:_ZN26HierarchicalBasisHcurlLine10orientEdgeERKiS1_RSt6vectorIS2_IdSaIdEESaIS4_EERKS6_S9_
libgmsh.so.4.8:_ZN26HierarchicalBasisHcurlLine11getKeysInfoERSt6vectorIiSaIiEES3_
libgmsh.so.4.8:_ZN26HierarchicalBasisHcurlLine17_affineCoordinateEid
libgmsh.so.4.8:_ZN26HierarchicalBasisHcurlLine17generateCurlBasisERKdS1_S1_RSt6vectorIS2_IdSaIdEESaIS4_EES7_S7_
libgmsh.so.4.8:_ZN26HierarchicalBasisHcurlLine18generateHcurlBasisERKdS1_S1_RSt6vectorIS2_IdSaIdEESaIS4_EES7_S7_
libgmsh.so.4.8:_ZN26HierarchicalBasisHcurlLine34orientEdgeFunctionsForNegativeFlagERSt6vectorIS0_IdSaIdEESaIS2_EE
libgmsh.so.4.8:_ZN26HierarchicalBasisHcurlLineC1Ei
libgmsh.so.4.8:_ZN26HierarchicalBasisHcurlLineC2Ei
libgmsh.so.4.8:_ZN26HierarchicalBasisHcurlLineD0Ev
libgmsh.so.4.8:_ZN26HierarchicalBasisHcurlLineD1Ev
libgmsh.so.4.8:_ZN26HierarchicalBasisHcurlLineD2Ev
libgmsh.so.4.8:_ZN26HierarchicalBasisHcurlQuad10orientEdgeERKiS1_RSt6vectorIS2_IdSaIdEESaIS4_EERKS6_S9_
libgmsh.so.4.8:_ZN26HierarchicalBasisHcurlQuad10orientFaceERKiS1_S1_S1_RKSt6vectorIS2_IdSaIdEESaIS4_EES8_RS6_
libgmsh.so.4.8:_ZN26HierarchicalBasisHcurlQuad11getKeysInfoERSt6vectorIiSaIiEES3_
libgmsh.so.4.8:_ZN26HierarchicalBasisHcurlQuad13orientOneFaceERKdS1_S1_RKiS3_S3_S3_RSt6vectorIS4_IdSaIdEESaIS6_EENSt7__cxx1112basic_stringIcSt11char_traitsIcESaIcEEE
libgmsh.so.4.8:_ZN26HierarchicalBasisHcurlQuad17_affineCoordinateERKiRKdS3_
libgmsh.so.4.8:_ZN26HierarchicalBasisHcurlQuad17generateCurlBasisERKdS1_S1_RSt6vectorIS2_IdSaIdEESaIS4_EES7_S7_
libgmsh.so.4.8:_ZN26HierarchicalBasisHcurlQuad18generateHcurlBasisERKdS1_S1_RSt6vectorIS2_IdSaIdEESaIS4_EES7_S7_
libgmsh.so.4.8:_ZN26HierarchicalBasisHcurlQuad34orientEdgeFunctionsForNegativeFlagERSt6vectorIS0_IdSaIdEESaIS2_EE
libgmsh.so.4.8:_ZN26HierarchicalBasisHcurlQuadC1Ei
libgmsh.so.4.8:_ZN26HierarchicalBasisHcurlQuadC2Ei
libgmsh.so.4.8:_ZN26HierarchicalBasisHcurlQuadD0Ev
libgmsh.so.4.8:_ZN26HierarchicalBasisHcurlQuadD1Ev
libgmsh.so.4.8:_ZN26HierarchicalBasisHcurlQuadD2Ev
libgmsh.so.4.8:_ZN26HierarchicalBasisHcurlTria10dotProductERKSt6vectorIdSaIdEES4_
libgmsh.so.4.8:_ZN26HierarchicalBasisHcurlTria10orientEdgeERKiS1_RSt6vectorIS2_IdSaIdEESaIS4_EERKS6_S9_
libgmsh.so.4.8:_ZN26HierarchicalBasisHcurlTria10orientFaceERKiS1_S1_S1_RKSt6vectorIS2_IdSaIdEESaIS4_EES8_RS6_
libgmsh.so.4.8:_ZN26HierarchicalBasisHcurlTria11getKeysInfoERSt6vectorIiSaIiEES3_
libgmsh.so.4.8:_ZN26HierarchicalBasisHcurlTria13orientOneFaceERKdS1_S1_RKiS3_S3_S3_RSt6vectorIS4_IdSaIdEESaIS6_EENSt7__cxx1112basic_stringIcSt11char_traitsIcESaIcEEE
libgmsh.so.4.8:_ZN26HierarchicalBasisHcurlTria17_affineCoordinateERKiRKdS3_
libgmsh.so.4.8:_ZN26HierarchicalBasisHcurlTria17generateCurlBasisERKdS1_S1_RSt6vectorIS2_IdSaIdEESaIS4_EES7_S7_
libgmsh.so.4.8:_ZN26HierarchicalBasisHcurlTria18generateHcurlBasisERKdS1_S1_RSt6vectorIS2_IdSaIdEESaIS4_EES7_S7_
libgmsh.so.4.8:_ZN26HierarchicalBasisHcurlTria34orientEdgeFunctionsForNegativeFlagERSt6vectorIS0_IdSaIdEESaIS2_EE
libgmsh.so.4.8:_ZN26HierarchicalBasisHcurlTriaC1Ei
libgmsh.so.4.8:_ZN26HierarchicalBasisHcurlTriaC2Ei
libgmsh.so.4.8:_ZN26HierarchicalBasisHcurlTriaD0Ev
libgmsh.so.4.8:_ZN26HierarchicalBasisHcurlTriaD1Ev
libgmsh.so.4.8:_ZN26HierarchicalBasisHcurlTriaD2Ev
libgmsh.so.4.8:_ZN26NCollection_IndexedDataMapI12TopoDS_Shape16NCollection_ListIS0_E23TopTools_ShapeMapHasherE18IndexedDataMapNode7delNodeEP20NCollection_ListNodeRN11opencascade6handleI25NCollection_BaseAllocatorEE
libgmsh.so.4.8:_ZN26NCollection_IndexedDataMapI12TopoDS_ShapeS0_23TopTools_ShapeMapHasherE18IndexedDataMapNode7delNodeEP20NCollection_ListNodeRN11opencascade6handleI25NCollection_BaseAllocatorEE
libgmsh.so.4.8:_ZN26SOrientedBoundingRectangle4areaEv
libgmsh.so.4.8:_ZN26SOrientedBoundingRectangleC1Ev
libgmsh.so.4.8:_ZN26SOrientedBoundingRectangleC2Ev
libgmsh.so.4.8:_ZN26frameFieldBackgroundMesh2D14get_smoothnessEP7MVertex
libgmsh.so.4.8:_ZN26frameFieldBackgroundMesh2D14get_smoothnessEdd
libgmsh.so.4.8:_ZN26frameFieldBackgroundMesh2D15eval_crossfieldEP7MVertexR8STensor3
libgmsh.so.4.8:_ZN26frameFieldBackgroundMesh2D15eval_crossfieldEddR8STensor3
libgmsh.so.4.8:_ZN26frameFieldBackgroundMesh2D16compute_RK_infosEdddddR7RK_form
libgmsh.so.4.8:_ZN26frameFieldBackgroundMesh2D16exportCrossFieldERKNSt7__cxx1112basic_stringIcSt11char_traitsIcESaIcEEE
libgmsh.so.4.8:_ZN26frameFieldBackgroundMesh2D17computeCrossFieldER14simpleFunctionIdE
libgmsh.so.4.8:_ZN26frameFieldBackgroundMesh2D17computeSmoothnessEv
libgmsh.so.4.8:_ZN26frameFieldBackgroundMesh2D29compute_crossfield_directionsEddd
libgmsh.so.4.8:_ZN26frameFieldBackgroundMesh2D5angleEP7MVertex
libgmsh.so.4.8:_ZN26frameFieldBackgroundMesh2D5angleEdd
libgmsh.so.4.8:_ZN26frameFieldBackgroundMesh2D5resetEb
libgmsh.so.4.8:_ZN26frameFieldBackgroundMesh2DC1EP5GFace
libgmsh.so.4.8:_ZN26frameFieldBackgroundMesh2DC2EP5GFace
libgmsh.so.4.8:_ZN26frameFieldBackgroundMesh2DD0Ev
libgmsh.so.4.8:_ZN26frameFieldBackgroundMesh2DD1Ev
libgmsh.so.4.8:_ZN26frameFieldBackgroundMesh2DD2Ev
libgmsh.so.4.8:_ZN26frameFieldBackgroundMesh3D14apply_rotationERK8SVector3RKdRK8STensor3
libgmsh.so.4.8:_ZN26frameFieldBackgroundMesh3D14get_smoothnessEP7MVertex
libgmsh.so.4.8:_ZN26frameFieldBackgroundMesh3D14get_smoothnessEddd
libgmsh.so.4.8:_ZN26frameFieldBackgroundMesh3D15build_neighborsERKi
libgmsh.so.4.8:_ZN26frameFieldBackgroundMesh3D17computeCrossFieldEv
libgmsh.so.4.8:_ZN26frameFieldBackgroundMesh3D19get_rotation_matrixERKdRK8SVector3Pd
libgmsh.so.4.8:_ZN26frameFieldBackgroundMesh3D19initiate_crossfieldEv
libgmsh.so.4.8:_ZN26frameFieldBackgroundMesh3D20compare_to_neighborsERK7SPoint3R8STensor3St17_Rb_tree_iteratorISt4pairIKdPK7MVertexEESC_R8SVector3RdRSt6vectorIdSaIdEE
libgmsh.so.4.8:_ZN26frameFieldBackgroundMesh3D21initiate_ANN_researchEv
libgmsh.so.4.8:_ZN26frameFieldBackgroundMesh3D23get_min_rotation_matrixERK8STensor3S2_RdR8SVector3db
libgmsh.so.4.8:_ZN26frameFieldBackgroundMesh3D23get_recursive_neighborsERSt3setIPK7MVertexSt4lessIS3_ESaIS3_EES8_RS0_IPK8MElementS4_ISB_ESaISB_EERSt8multimapIiS3_S4_IiESaISt4pairIKiS3_EEEii
libgmsh.so.4.8:_ZN26frameFieldBackgroundMesh3D24get_vectorial_smoothnessEPK7MVertexR8SVector3
libgmsh.so.4.8:_ZN26frameFieldBackgroundMesh3D24get_vectorial_smoothnessEdddR8SVector3
libgmsh.so.4.8:_ZN26frameFieldBackgroundMesh3D24get_vectorial_smoothnessEiPK7MVertex
libgmsh.so.4.8:_ZN26frameFieldBackgroundMesh3D24get_vectorial_smoothnessEiddd
libgmsh.so.4.8:_ZN26frameFieldBackgroundMesh3D25exportVectorialSmoothnessERKNSt7__cxx1112basic_stringIcSt11char_traitsIcESaIcEEE
libgmsh.so.4.8:_ZN26frameFieldBackgroundMesh3D26get_approximate_smoothnessEP7MVertex
libgmsh.so.4.8:_ZN26frameFieldBackgroundMesh3D26get_approximate_smoothnessEddd
libgmsh.so.4.8:_ZN26frameFieldBackgroundMesh3D27eval_approximate_crossfieldEPK7MVertexR8STensor3
libgmsh.so.4.8:_ZN26frameFieldBackgroundMesh3D27eval_approximate_crossfieldEdddR8STensor3
libgmsh.so.4.8:_ZN26frameFieldBackgroundMesh3D27get_rotation_angle_and_axisERK8STensor3S2_RdR8SVector3iR13montripletbis
libgmsh.so.4.8:_ZN26frameFieldBackgroundMesh3D29build_vertex_to_element_tableEv
libgmsh.so.4.8:_ZN26frameFieldBackgroundMesh3D32get_nearest_neighbor_on_boundaryEP7MVertex
libgmsh.so.4.8:_ZN26frameFieldBackgroundMesh3D32get_nearest_neighbor_on_boundaryEP7MVertexRd
libgmsh.so.4.8:_ZN26frameFieldBackgroundMesh3D35computeSmoothnessOnlyFromBoundariesEv
libgmsh.so.4.8:_ZN26frameFieldBackgroundMesh3DC1EP7GRegion
libgmsh.so.4.8:_ZN26frameFieldBackgroundMesh3DC2EP7GRegion
libgmsh.so.4.8:_ZN26frameFieldBackgroundMesh3DD0Ev
libgmsh.so.4.8:_ZN26frameFieldBackgroundMesh3DD1Ev
libgmsh.so.4.8:_ZN26frameFieldBackgroundMesh3DD2Ev
libgmsh.so.4.8:_ZN27GMSH_ModifyComponentsPlugin12getOptionStrEi
libgmsh.so.4.8:_ZN27GMSH_ModifyComponentsPlugin7executeEP5PView
libgmsh.so.4.8:_ZN27GMSH_ModifyComponentsPlugin9getOptionEi
libgmsh.so.4.8:_ZN27HierarchicalBasisHcurlBrick10orientEdgeERKiS1_RSt6vectorIS2_IdSaIdEESaIS4_EERKS6_S9_
libgmsh.so.4.8:_ZN27HierarchicalBasisHcurlBrick10orientFaceERKiS1_S1_S1_RKSt6vectorIS2_IdSaIdEESaIS4_EES8_RS6_
libgmsh.so.4.8:_ZN27HierarchicalBasisHcurlBrick11getKeysInfoERSt6vectorIiSaIiEES3_
libgmsh.so.4.8:_ZN27HierarchicalBasisHcurlBrick13orientOneFaceERKdS1_S1_RKiS3_S3_S3_RSt6vectorIS4_IdSaIdEESaIS6_EENSt7__cxx1112basic_stringIcSt11char_traitsIcESaIcEEE
libgmsh.so.4.8:_ZN27HierarchicalBasisHcurlBrick17_affineCoordinateERKiRKdS3_S3_
libgmsh.so.4.8:_ZN27HierarchicalBasisHcurlBrick17generateCurlBasisERKdS1_S1_RSt6vectorIS2_IdSaIdEESaIS4_EES7_S7_
libgmsh.so.4.8:_ZN27HierarchicalBasisHcurlBrick18generateHcurlBasisERKdS1_S1_RSt6vectorIS2_IdSaIdEESaIS4_EES7_S7_
libgmsh.so.4.8:_ZN27HierarchicalBasisHcurlBrick34orientEdgeFunctionsForNegativeFlagERSt6vectorIS0_IdSaIdEESaIS2_EE
libgmsh.so.4.8:_ZN27HierarchicalBasisHcurlBrickC1Ei
libgmsh.so.4.8:_ZN27HierarchicalBasisHcurlBrickC2Ei
libgmsh.so.4.8:_ZN27HierarchicalBasisHcurlBrickD0Ev
libgmsh.so.4.8:_ZN27HierarchicalBasisHcurlBrickD1Ev
libgmsh.so.4.8:_ZN27HierarchicalBasisHcurlBrickD2Ev
libgmsh.so.4.8:_ZN27HierarchicalBasisHcurlTetra10dotProductERKSt6vectorIdSaIdEES4_
libgmsh.so.4.8:_ZN27HierarchicalBasisHcurlTetra10orientEdgeERKiS1_RSt6vectorIS2_IdSaIdEESaIS4_EERKS6_S9_
libgmsh.so.4.8:_ZN27HierarchicalBasisHcurlTetra10orientFaceERKiS1_S1_S1_RKSt6vectorIS2_IdSaIdEESaIS4_EES8_RS6_
libgmsh.so.4.8:_ZN27HierarchicalBasisHcurlTetra11getKeysInfoERSt6vectorIiSaIiEES3_
libgmsh.so.4.8:_ZN27HierarchicalBasisHcurlTetra13orientOneFaceERKdS1_S1_RKiS3_S3_S3_RSt6vectorIS4_IdSaIdEESaIS6_EENSt7__cxx1112basic_stringIcSt11char_traitsIcESaIcEEE
libgmsh.so.4.8:_ZN27HierarchicalBasisHcurlTetra17_affineCoordinateERKiRKdS3_S3_
libgmsh.so.4.8:_ZN27HierarchicalBasisHcurlTetra17generateCurlBasisERKdS1_S1_RSt6vectorIS2_IdSaIdEESaIS4_EES7_S7_
libgmsh.so.4.8:_ZN27HierarchicalBasisHcurlTetra18generateHcurlBasisERKdS1_S1_RSt6vectorIS2_IdSaIdEESaIS4_EES7_S7_
libgmsh.so.4.8:_ZN27HierarchicalBasisHcurlTetra34orientEdgeFunctionsForNegativeFlagERSt6vectorIS0_IdSaIdEESaIS2_EE
libgmsh.so.4.8:_ZN27HierarchicalBasisHcurlTetraC1Ei
libgmsh.so.4.8:_ZN27HierarchicalBasisHcurlTetraC2Ei
libgmsh.so.4.8:_ZN27HierarchicalBasisHcurlTetraD0Ev
libgmsh.so.4.8:_ZN27HierarchicalBasisHcurlTetraD1Ev
libgmsh.so.4.8:_ZN27HierarchicalBasisHcurlTetraD2Ev
libgmsh.so.4.8:_ZN27ObjContribFuncBarrierFixMin10initializeEdd
libgmsh.so.4.8:_ZN27ObjContribFuncBarrierMovMax16updateParametersEdd
libgmsh.so.4.8:_ZN27ObjContribFuncBarrierMovMax9stagnatedEdd
libgmsh.so.4.8:_ZN27ObjContribFuncBarrierMovMin16updateParametersEdd
libgmsh.so.4.8:_ZN27ObjContribFuncBarrierMovMin9stagnatedEdd
libgmsh.so.4.8:_ZN28GMSH_LongituteLatitudePlugin7executeEP5PView
libgmsh.so.4.8:_ZN28GMSH_LongituteLatitudePlugin9getOptionEi
libgmsh.so.4.8:_ZN28GMSH_MeshSizeFieldViewPlugin7executeEP5PView
libgmsh.so.4.8:_ZN28GMSH_MeshSizeFieldViewPlugin9getOptionEi
libgmsh.so.4.8:_ZN28drawContextFltkStringTexture10drawStringEPKc
libgmsh.so.4.8:_ZN28drawContextFltkStringTexture11flushStringEv
libgmsh.so.4.8:_ZN28drawContextFltkStringTexture7setFontEii
libgmsh.so.4.8:_ZN28drawContextFltkStringTextureC1Ev
libgmsh.so.4.8:_ZN28drawContextFltkStringTextureC2Ev
libgmsh.so.4.8:_ZN28drawContextFltkStringTextureD0Ev
libgmsh.so.4.8:_ZN28drawContextFltkStringTextureD1Ev
libgmsh.so.4.8:_ZN28drawContextFltkStringTextureD2Ev
libgmsh.so.4.8:_ZN29GMSH_AnalyseMeshQualityPlugin13_printStatICNEv
libgmsh.so.4.8:_ZN29GMSH_AnalyseMeshQualityPlugin13_printStatIGEEv
libgmsh.so.4.8:_ZN29GMSH_AnalyseMeshQualityPlugin14_computeMinICNEi
libgmsh.so.4.8:_ZN29GMSH_AnalyseMeshQualityPlugin14_computeMinIGEEi
libgmsh.so.4.8:_ZN29GMSH_AnalyseMeshQualityPlugin18_hideWithThresholdEiidb
libgmsh.so.4.8:_ZN29GMSH_AnalyseMeshQualityPlugin18_printStatJacobianEv
libgmsh.so.4.8:_ZN29GMSH_AnalyseMeshQualityPlugin26_computeMinMaxJandValidityEi
libgmsh.so.4.8:_ZN29GMSH_AnalyseMeshQualityPlugin6_clearEi
libgmsh.so.4.8:_ZN29GMSH_AnalyseMeshQualityPlugin7executeEP5PView
libgmsh.so.4.8:_ZN29GMSH_AnalyseMeshQualityPlugin9getOptionEi
libgmsh.so.4.8:_ZN29ObjContribFuncSimpleTargetMax16updateParametersEdd
libgmsh.so.4.8:_ZN29ObjContribFuncSimpleTargetMax9setTargetEd
libgmsh.so.4.8:_ZN29ObjContribFuncSimpleTargetMax9stagnatedEdd
libgmsh.so.4.8:_ZN29ObjContribFuncSimpleTargetMaxC1Ev
libgmsh.so.4.8:_ZN29ObjContribFuncSimpleTargetMaxC2Ev
libgmsh.so.4.8:_ZN30GMSH_DiscretizationErrorPlugin7executeEP5PView
libgmsh.so.4.8:_ZN30GMSH_DiscretizationErrorPlugin9getOptionEi
libgmsh.so.4.8:_ZN30GMSH_HomologyComputationPlugin12getOptionStrEi
libgmsh.so.4.8:_ZN30GMSH_HomologyComputationPlugin14parseStringOptEiRSt6vectorIiSaIiEE
libgmsh.so.4.8:_ZN30GMSH_HomologyComputationPlugin7executeEP5PView
libgmsh.so.4.8:_ZN30GMSH_HomologyComputationPlugin9getOptionEi
libgmsh.so.4.8:_ZN31GMSH_ShowNeighborElementsPlugin11_showLayersEP7GEntityi
libgmsh.so.4.8:_ZN31GMSH_ShowNeighborElementsPlugin5_initEP7GEntity
libgmsh.so.4.8:_ZN31GMSH_ShowNeighborElementsPlugin7executeEP5PView
libgmsh.so.4.8:_ZN31GMSH_ShowNeighborElementsPlugin9getOptionEi
libgmsh.so.4.8:_ZN31MVertexPtrLessThanLexicographic12getToleranceEv
libgmsh.so.4.8:_ZN31surfacePointWithExclusionRegion15inExclusionZoneERK7SPoint2
libgmsh.so.4.8:_ZN31surfacePointWithExclusionRegion5printEP8_IO_FILEi
libgmsh.so.4.8:_ZN31surfacePointWithExclusionRegionC1EP7MVertexPA1_7SPoint2RS2_R8SMetric3PS_
libgmsh.so.4.8:_ZN31surfacePointWithExclusionRegionC2EP7MVertexPA1_7SPoint2RS2_R8SMetric3PS_
libgmsh.so.4.8:_ZN33GMSH_HomologyPostProcessingPlugin12getOptionStrEi
libgmsh.so.4.8:_ZN33GMSH_HomologyPostProcessingPlugin14parseStringOptEiRSt6vectorIiSaIiEE
libgmsh.so.4.8:_ZN33GMSH_HomologyPostProcessingPlugin16detIntegerMatrixERSt6vectorIiSaIiEE
libgmsh.so.4.8:_ZN33GMSH_HomologyPostProcessingPlugin19invertIntegerMatrixERSt6vectorIiSaIiEE
libgmsh.so.4.8:_ZN33GMSH_HomologyPostProcessingPlugin7executeEP5PView
libgmsh.so.4.8:_ZN33GMSH_HomologyPostProcessingPlugin9getOptionEi
libgmsh.so.4.8:_ZN33ObjContribFuncBarrierFixMinMovMax10initializeEdd
libgmsh.so.4.8:_ZN34GMSH_FieldFromAmplitudePhasePlugin12getOptionStrEi
libgmsh.so.4.8:_ZN34GMSH_FieldFromAmplitudePhasePlugin7executeEP5PView
libgmsh.so.4.8:_ZN34GMSH_FieldFromAmplitudePhasePlugin9getOptionEi
libgmsh.so.4.8:_ZN3CTX10unpackBlueEj
libgmsh.so.4.8:_ZN3CTX11unpackAlphaEj
libgmsh.so.4.8:_ZN3CTX11unpackGreenEj
libgmsh.so.4.8:_ZN3CTX4initEv
libgmsh.so.4.8:_ZN3CTX8instanceEv
libgmsh.so.4.8:_ZN3CTX9packColorEiiii
libgmsh.so.4.8:_ZN3CTX9unpackRedEj
libgmsh.so.4.8:_ZN3CTXC1Ev
libgmsh.so.4.8:_ZN3CTXC2Ev
libgmsh.so.4.8:_ZN3CTXD1Ev
libgmsh.so.4.8:_ZN3CTXD2Ev
libgmsh.so.4.8:_ZN3Msg10InitializeEiPPc
libgmsh.so.4.8:_ZN3Msg10SetInfoCpuEb
libgmsh.so.4.8:_ZN3Msg10SetInfoMemEb
libgmsh.so.4.8:_ZN3Msg10SetLogFileERKNSt7__cxx1112basic_stringIcSt11char_traitsIcESaIcEEE
libgmsh.so.4.8:_ZN3Msg11GetCallbackEv
libgmsh.so.4.8:_ZN3Msg11GetCommRankEv
libgmsh.so.4.8:_ZN3Msg11GetCommSizeEv
libgmsh.so.4.8:_ZN3Msg11PrintTimersEv
libgmsh.so.4.8:_ZN3Msg11SetCallbackEP11GmshMessage
libgmsh.so.4.8:_ZN3Msg11SetCommRankEi
libgmsh.so.4.8:_ZN3Msg11SetCommSizeEi
libgmsh.so.4.8:_ZN3Msg12GetLastErrorB5cxx11Ev
libgmsh.so.4.8:_ZN3Msg12GetThreadNumEv
libgmsh.so.4.8:_ZN3Msg12GetVerbosityEv
libgmsh.so.4.8:_ZN3Msg12SetVerbosityEi
libgmsh.so.4.8:_ZN3Msg13GetErrorCountEv
libgmsh.so.4.8:_ZN3Msg13GetFirstErrorB5cxx11Ev
libgmsh.so.4.8:_ZN3Msg13GetGmshClientEv
libgmsh.so.4.8:_ZN3Msg13GetLaunchDateB5cxx11Ev
libgmsh.so.4.8:_ZN3Msg13GetMaxThreadsEv
libgmsh.so.4.8:_ZN3Msg13GetNumThreadsEv
libgmsh.so.4.8:_ZN3Msg13ProgressMeterEibPKcz
libgmsh.so.4.8:_ZN3Msg13RequestRenderEv
libgmsh.so.4.8:_ZN3Msg13SetNumThreadsEi
libgmsh.so.4.8:_ZN3Msg14FinalizeOnelabEv
libgmsh.so.4.8:_ZN3Msg14PrintResourcesB5cxx11Ebbbb
libgmsh.so.4.8:_ZN3Msg14SetWindowTitleERKNSt7__cxx1112basic_stringIcSt11char_traitsIcESaIcEEE
libgmsh.so.4.8:_ZN3Msg15GetFirstWarningB5cxx11Ev
libgmsh.so.4.8:_ZN3Msg15GetOnelabActionB5cxx11Ev
libgmsh.so.4.8:_ZN3Msg15GetOnelabClientEv
libgmsh.so.4.8:_ZN3Msg15GetOnelabNumberERKNSt7__cxx1112basic_stringIcSt11char_traitsIcESaIcEEEdb
libgmsh.so.4.8:_ZN3Msg15GetOnelabStringERKNSt7__cxx1112basic_stringIcSt11char_traitsIcESaIcEEES7_b
libgmsh.so.4.8:_ZN3Msg15GetWarningCountEv
libgmsh.so.4.8:_ZN3Msg15RunOnelabClientERKNSt7__cxx1112basic_stringIcSt11char_traitsIcESaIcEEES7_
libgmsh.so.4.8:_ZN3Msg15SetOnelabActionERKNSt7__cxx1112basic_stringIcSt11char_traitsIcESaIcEEE
libgmsh.so.4.8:_ZN3Msg15SetOnelabNumberERKNSt7__cxx1112basic_stringIcSt11char_traitsIcESaIcEEERKSt6vectorIdSaIdEEb
libgmsh.so.4.8:_ZN3Msg15SetOnelabNumberERKNSt7__cxx1112basic_stringIcSt11char_traitsIcESaIcEEEdbbbi
libgmsh.so.4.8:_ZN3Msg15SetOnelabStringERKNSt7__cxx1112basic_stringIcSt11char_traitsIcESaIcEEES7_bbbiS7_
libgmsh.so.4.8:_ZN3Msg16InitializeOnelabERKNSt7__cxx1112basic_stringIcSt11char_traitsIcESaIcEEES7_
libgmsh.so.4.8:_ZN3Msg16LoadOnelabClientERKNSt7__cxx1112basic_stringIcSt11char_traitsIcESaIcEEES7_
libgmsh.so.4.8:_ZN3Msg16SetOnelabChangedEiRKNSt7__cxx1112basic_stringIcSt11char_traitsIcESaIcEEE
libgmsh.so.4.8:_ZN3Msg17GetExecutableNameB5cxx11Ev
libgmsh.so.4.8:_ZN3Msg17PrintErrorCounterEPKc
libgmsh.so.4.8:_ZN3Msg17ResetErrorCounterEv
libgmsh.so.4.8:_ZN3Msg17SetExecutableNameERKNSt7__cxx1112basic_stringIcSt11char_traitsIcESaIcEEE
libgmsh.so.4.8:_ZN3Msg17StopProgressMeterEv
libgmsh.so.4.8:_ZN3Msg18GetCommandLineArgsB5cxx11Ev
libgmsh.so.4.8:_ZN3Msg18GetCommandLineFullB5cxx11Ev
libgmsh.so.4.8:_ZN3Msg18StartProgressMeterEi
libgmsh.so.4.8:_ZN3Msg19GetNumOnelabClientsEv
libgmsh.so.4.8:_ZN3Msg20GetProgressMeterStepEv
libgmsh.so.4.8:_ZN3Msg20SetProgressMeterStepEi
libgmsh.so.4.8:_ZN3Msg21AddOnelabStringChoiceERKNSt7__cxx1112basic_stringIcSt11char_traitsIcESaIcEEES7_S7_bbb
libgmsh.so.4.8:_ZN3Msg21GetCommandLineNumbersB5cxx11Ev
libgmsh.so.4.8:_ZN3Msg21GetCommandLineStringsB5cxx11Ev
libgmsh.so.4.8:_ZN3Msg23ExchangeOnelabParameterERKNSt7__cxx1112basic_stringIcSt11char_traitsIcESaIcEEERS5_RSt3mapIS5_St6vectorIdSaIdEESt4lessIS5_ESaISt4pairIS6_SC_EEERS9_IS5_SA_IS5_SaIS5_EESE_SaISF_IS6_SL_EEE
libgmsh.so.4.8:_ZN3Msg23ExchangeOnelabParameterERKNSt7__cxx1112basic_stringIcSt11char_traitsIcESaIcEEERSt6vectorIdSaIdEERSt3mapIS5_SA_St4lessIS5_ESaISt4pairIS6_SA_EEERSC_IS5_S8_IS5_SaIS5_EESE_SaISF_IS6_SL_EEE
libgmsh.so.4.8:_ZN3Msg23UndefineOnelabParameterERKNSt7__cxx1112basic_stringIcSt11char_traitsIcESaIcEEE
libgmsh.so.4.8:_ZN3Msg28ImportPhysicalGroupsInOnelabEv
libgmsh.so.4.8:_ZN3Msg4AutoEPKcz
libgmsh.so.4.8:_ZN3Msg4ExitEi
libgmsh.so.4.8:_ZN3Msg4InfoEPKcz
libgmsh.so.4.8:_ZN3Msg5DebugEPKcz
libgmsh.so.4.8:_ZN3Msg5ErrorEPKcz
libgmsh.so.4.8:_ZN3Msg5TimerERKNSt7__cxx1112basic_stringIcSt11char_traitsIcESaIcEEE
libgmsh.so.4.8:_ZN3Msg6DirectEPKcz
libgmsh.so.4.8:_ZN3Msg7BarrierEv
libgmsh.so.4.8:_ZN3Msg7WarningEPKcz
libgmsh.so.4.8:_ZN3Msg8FinalizeEv
libgmsh.so.4.8:_ZN3Msg8GetValueEPKcd
libgmsh.so.4.8:_ZN3Msg8StatusGlEPKcz
libgmsh.so.4.8:_ZN3Msg9GetAnswerEPKciS1_S1_S1_
libgmsh.so.4.8:_ZN3Msg9GetStringEPKcRKNSt7__cxx1112basic_stringIcSt11char_traitsIcESaIcEEE
libgmsh.so.4.8:_ZN3Msg9StatusBarEbPKcz
libgmsh.so.4.8:_ZN3Msg9UseOnelabEv
libgmsh.so.4.8:_ZN3Qtn12storeProductERKS_S1_
libgmsh.so.4.8:_ZN3XYZ3setERKdS1_S1_
libgmsh.so.4.8:_ZN3XYZC1ERK10Quaternion
libgmsh.so.4.8:_ZN3XYZC1Eddd
libgmsh.so.4.8:_ZN3XYZC2ERK10Quaternion
libgmsh.so.4.8:_ZN3XYZC2Eddd
libgmsh.so.4.8:_ZN4Cell10createCellEP8MElementi
libgmsh.so.4.8:_ZN4Cell10createCellEPS_i
libgmsh.so.4.8:_ZN4Cell11getBoundaryERSt3mapIPS_s15CellPtrLessThanSaISt4pairIKS1_sEEEb
libgmsh.so.4.8:_ZN4Cell11hasBoundaryEPS_b
libgmsh.so.4.8:_ZN4Cell12lastBoundaryEv
libgmsh.so.4.8:_ZN4Cell13firstBoundaryEb
libgmsh.so.4.8:_ZN4Cell13getCoboundaryERSt3mapIPS_s15CellPtrLessThanSaISt4pairIKS1_sEEEb
libgmsh.so.4.8:_ZN4Cell13hasCoboundaryEPS_b
libgmsh.so.4.8:_ZN4Cell13printBoundaryEv
libgmsh.so.4.8:_ZN4Cell14lastCoboundaryEv
libgmsh.so.4.8:_ZN4Cell15addBoundaryCellEiPS_b
libgmsh.so.4.8:_ZN4Cell15firstCoboundaryEb
libgmsh.so.4.8:_ZN4Cell15getBoundarySizeEb
libgmsh.so.4.8:_ZN4Cell15printCoboundaryEv
libgmsh.so.4.8:_ZN4Cell16saveCellBoundaryEv
libgmsh.so.4.8:_ZN4Cell17addCoboundaryCellEiPS_b
libgmsh.so.4.8:_ZN4Cell17getCoboundarySizeEb
libgmsh.so.4.8:_ZN4Cell18removeBoundaryCellEPS_b
libgmsh.so.4.8:_ZN4Cell19restoreCellBoundaryEv
libgmsh.so.4.8:_ZN4Cell20removeCoboundaryCellEPS_b
libgmsh.so.4.8:_ZN4Cell9printCellEv
libgmsh.so.4.8:_ZN4CellC1EP8MElementi
libgmsh.so.4.8:_ZN4CellC1EPS_i
libgmsh.so.4.8:_ZN4CellC2EP8MElementi
libgmsh.so.4.8:_ZN4CellC2EPS_i
libgmsh.so.4.8:_ZN4Node10get_metricEv
libgmsh.so.4.8:_ZN4Node10set_metricERK6Metric
libgmsh.so.4.8:_ZN4Node8get_sizeEv
libgmsh.so.4.8:_ZN4Node8set_sizeEd
libgmsh.so.4.8:_ZN4Node9get_layerEv
libgmsh.so.4.8:_ZN4Node9get_limitEv
libgmsh.so.4.8:_ZN4Node9get_pointEv
libgmsh.so.4.8:_ZN4Node9set_layerEi
libgmsh.so.4.8:_ZN4Node9set_limitEi
libgmsh.so.4.8:_ZN4Node9set_pointERK7SPoint3
libgmsh.so.4.8:_ZN4NodeC1ERK7SPoint3
libgmsh.so.4.8:_ZN4NodeC1Ev
libgmsh.so.4.8:_ZN4NodeC2ERK7SPoint3
libgmsh.so.4.8:_ZN4NodeC2Ev
libgmsh.so.4.8:_ZN4NodeD1Ev
libgmsh.so.4.8:_ZN4NodeD2Ev
libgmsh.so.4.8:_ZN4bamg10ReadBBFileEPKcRlS2_RPiii
libgmsh.so.4.8:_ZN4bamg10ReadbbFileEPKcRlS2_ii
libgmsh.so.4.8:_ZN4bamg11MeshIstream7ReadStrEv
libgmsh.so.4.8:_ZN4bamg11MeshIstream8IsStringEPKc
libgmsh.so.4.8:_ZN4bamg11MeshIstream9ShowIoErrEi
libgmsh.so.4.8:_ZN4bamg11MetricAnIso13IntersectWithES0_
libgmsh.so.4.8:_ZN4bamg11MetricAnIsoC1EPKdS0_S0_S0_
libgmsh.so.4.8:_ZN4bamg11MetricAnIsoC1EdS0_dS0_
libgmsh.so.4.8:_ZN4bamg11MetricAnIsoC2EPKdS0_S0_S0_
libgmsh.so.4.8:_ZN4bamg11MetricAnIsoC2EdS0_dS0_
libgmsh.so.4.8:_ZN4bamg11QuadQualityERKNS_6VertexES2_S2_S2_
libgmsh.so.4.8:_ZN4bamg11SetOfEdges43addEll
libgmsh.so.4.8:_ZN4bamg11SetOfEdges44findEll
libgmsh.so.4.8:_ZN4bamg11SetOfEdges4C1Ell
libgmsh.so.4.8:_ZN4bamg11SetOfEdges4C2Ell
libgmsh.so.4.8:_ZN4bamg12FindTriangleERNS_9TrianglesEddPdRi
libgmsh.so.4.8:_ZN4bamg12IntersectionENS_11MetricAnIsoES0_
libgmsh.so.4.8:_ZN4bamg15LengthInterpoleENS_11MetricAnIsoES0_NS_2P2IddEE
libgmsh.so.4.8:_ZN4bamg17CloseBoundaryEdgeENS_2P2IilEEPNS_8TriangleERdS4_
libgmsh.so.4.8:_ZN4bamg17abscisseInterpoleENS_11MetricAnIsoES0_NS_2P2IddEEdi
libgmsh.so.4.8:_ZN4bamg18SwapForForcingEdgeERPNS_6VertexES2_RNS_16TriangleAdjacentERlS5_S5_Ri
libgmsh.so.4.8:_ZN4bamg19CloseBoundaryEdgeV2ENS_2P2IilEEPNS_8TriangleERdS4_
libgmsh.so.4.8:_ZN4bamg19ReductionSimultaneeENS_11MetricAnIsoES0_RdS1_RNS_5P2xP2IddEE
libgmsh.so.4.8:_ZN4bamg20AGoodNumberPrimeWithEl
libgmsh.so.4.8:_ZN4bamg23IFortranUnFormattedFile5ErrorEi
libgmsh.so.4.8:_ZN4bamg23IFortranUnFormattedFile6RecordEv
libgmsh.so.4.8:_ZN4bamg23IFortranUnFormattedFileD1Ev
libgmsh.so.4.8:_ZN4bamg23IFortranUnFormattedFileD2Ev
libgmsh.so.4.8:_ZN4bamg23OFortranUnFormattedFile5ErrorEi
libgmsh.so.4.8:_ZN4bamg23OFortranUnFormattedFile6RecordEl
libgmsh.so.4.8:_ZN4bamg23OFortranUnFormattedFileD1Ev
libgmsh.so.4.8:_ZN4bamg23OFortranUnFormattedFileD2Ev
libgmsh.so.4.8:_ZN4bamg27ListofIntersectionTriangles6LengthEv
libgmsh.so.4.8:_ZN4bamg27ListofIntersectionTriangles7NewItemENS_2P2IddEERKNS_11MetricAnIsoE
libgmsh.so.4.8:_ZN4bamg27ListofIntersectionTriangles7NewItemEPNS_8TriangleEddd
libgmsh.so.4.8:_ZN4bamg27ListofIntersectionTriangles9NewPointsEPNS_6VertexERll
libgmsh.so.4.8:_ZN4bamg27ListofIntersectionTriangles9SplitEdgeERKNS_9TrianglesERKNS_2P2IddEES7_i
libgmsh.so.4.8:_ZN4bamg4swapEPNS_8TriangleEsS1_sPNS_6VertexES3_ll
libgmsh.so.4.8:_ZN4bamg6Vertex9SmoothingERNS_9TrianglesERKS1_RPNS_8TriangleEd
libgmsh.so.4.8:_ZN4bamg8Geometry10ReadMetricEPKcddd
libgmsh.so.4.8:_ZN4bamg8Geometry12ReadGeometryEPKc
libgmsh.so.4.8:_ZN4bamg8Geometry12ReadGeometryERNS_11MeshIstreamEPKc
libgmsh.so.4.8:_ZN4bamg8Geometry13EmptyGeometryEv
libgmsh.so.4.8:_ZN4bamg8Geometry5WriteEPKc
libgmsh.so.4.8:_ZN4bamg8Geometry9AfterReadEv
libgmsh.so.4.8:_ZN4bamg8GeometryC1ERKS0_
libgmsh.so.4.8:_ZN4bamg8GeometryC2ERKS0_
libgmsh.so.4.8:_ZN4bamg8GeometryD1Ev
libgmsh.so.4.8:_ZN4bamg8GeometryD2Ev
libgmsh.so.4.8:_ZN4bamg8QuadTree13NearestVertexEii
libgmsh.so.4.8:_ZN4bamg8QuadTree18StorageQuadTreeBoxC1ElPS1_
libgmsh.so.4.8:_ZN4bamg8QuadTree18StorageQuadTreeBoxC2ElPS1_
libgmsh.so.4.8:_ZN4bamg8QuadTree23NearestVertexWithNormalEii
libgmsh.so.4.8:_ZN4bamg8QuadTree3AddERNS_6VertexE
libgmsh.so.4.8:_ZN4bamg8QuadTree7ToCloseERNS_6VertexEdii
libgmsh.so.4.8:_ZN4bamg8QuadTreeC1EPNS_9TrianglesEl
libgmsh.so.4.8:_ZN4bamg8QuadTreeC1Ev
libgmsh.so.4.8:_ZN4bamg8QuadTreeC2EPNS_9TrianglesEl
libgmsh.so.4.8:_ZN4bamg8QuadTreeC2Ev
libgmsh.so.4.8:_ZN4bamg8QuadTreeD1Ev
libgmsh.so.4.8:_ZN4bamg8QuadTreeD2Ev
libgmsh.so.4.8:_ZN4bamg8Triangle4swapEsi
libgmsh.so.4.8:_ZN4bamg8Triangle5OptimEsi
libgmsh.so.4.8:_ZN4bamg8WriteStrERSoPc
libgmsh.so.4.8:_ZN4bamg9ForceEdgeERNS_6VertexES1_RNS_16TriangleAdjacentE
libgmsh.so.4.8:_ZN4bamg9MatVVP2x2C1ENS_11MetricAnIsoE
libgmsh.so.4.8:_ZN4bamg9MatVVP2x2C2ENS_11MetricAnIsoE
libgmsh.so.4.8:_ZN4bamg9MeshErrorEiPNS_9TrianglesE
libgmsh.so.4.8:_ZN4bamg9Triangles10ReadMetricEPKcddd
libgmsh.so.4.8:_ZN4bamg9Triangles10Read_amdbaERNS_11MeshIstreamE
libgmsh.so.4.8:_ZN4bamg9Triangles10SetIntCoorEPKc
libgmsh.so.4.8:_ZN4bamg9Triangles11Read_am_fmtERNS_11MeshIstreamE
libgmsh.so.4.8:_ZN4bamg9Triangles11WriteMetricERSoi
libgmsh.so.4.8:_ZN4bamg9Triangles12ConsGeometryEdPi
libgmsh.so.4.8:_ZN4bamg9Triangles12MakeQuadTreeEv
libgmsh.so.4.8:_ZN4bamg9Triangles12NewPointsOldERS0_
libgmsh.so.4.8:_ZN4bamg9Triangles12SmoothMetricEd
libgmsh.so.4.8:_ZN4bamg9Triangles12SplitElementEi
libgmsh.so.4.8:_ZN4bamg9Triangles13FindSubDomainEi
libgmsh.so.4.8:_ZN4bamg9Triangles13ForceBoundaryEv
libgmsh.so.4.8:_ZN4bamg9Triangles13NearestVertexEii
libgmsh.so.4.8:_ZN4bamg9Triangles14FillHoleInMeshEv
libgmsh.so.4.8:_ZN4bamg9Triangles14MaxSubDivisionEd
libgmsh.so.4.8:_ZN4bamg9Triangles14ProjectOnCurveERNS_4EdgeERNS_6VertexES4_dS4_RNS_12VertexOnEdgeERNS_12VertexOnGeomE
libgmsh.so.4.8:_ZN4bamg9Triangles15BoundAnisotropyEdd
libgmsh.so.4.8:_ZN4bamg9Triangles15InsertNewPointsElRl
libgmsh.so.4.8:_ZN4bamg9Triangles15MakeQuadranglesEd
libgmsh.so.4.8:_ZN4bamg9Triangles15SmoothingVertexEid
libgmsh.so.4.8:_ZN4bamg9Triangles16GeomToTriangles0El
libgmsh.so.4.8:_ZN4bamg9Triangles16GeomToTriangles1Eli
libgmsh.so.4.8:_ZN4bamg9Triangles17ReNumberingVertexEPl
libgmsh.so.4.8:_ZN4bamg9Triangles19IntersectConsMetricEPKdlPKidddddiidi
libgmsh.so.4.8:_ZN4bamg9Triangles19IntersectGeomMetricEdi
libgmsh.so.4.8:_ZN4bamg9Triangles25MakeGeometricalEdgeToEdgeEv
libgmsh.so.4.8:_ZN4bamg9Triangles33ReNumberingTheTriangleBySubDomainEb
libgmsh.so.4.8:_ZN4bamg9Triangles35SplitInternalEdgeWithBorderVerticesEv
libgmsh.so.4.8:_ZN4bamg9Triangles3AddERNS_6VertexEPNS_8TriangleEPl
libgmsh.so.4.8:_ZN4bamg9Triangles4ReadERNS_11MeshIstreamEid
libgmsh.so.4.8:_ZN4bamg9Triangles5CrackEv
libgmsh.so.4.8:_ZN4bamg9Triangles5WriteEPKc
libgmsh.so.4.8:_ZN4bamg9Triangles5WriteEPKcNS0_12TypeFileMeshE
libgmsh.so.4.8:_ZN4bamg9Triangles6InsertEv
libgmsh.so.4.8:_ZN4bamg9Triangles7PreInitElPc
libgmsh.so.4.8:_ZN4bamg9Triangles7Read_amERNS_11MeshIstreamE
libgmsh.so.4.8:_ZN4bamg9Triangles7UnCrackEv
libgmsh.so.4.8:_ZN4bamg9Triangles8Read_ftqERNS_11MeshIstreamE
libgmsh.so.4.8:_ZN4bamg9Triangles8Read_mshERNS_11MeshIstreamE
libgmsh.so.4.8:_ZN4bamg9Triangles9CrackMeshEv
libgmsh.so.4.8:_ZN4bamg9Triangles9NewPointsERS0_i
libgmsh.so.4.8:_ZN4bamg9Triangles9Read_nopoERNS_11MeshIstreamE
libgmsh.so.4.8:_ZN4bamg9TrianglesC1EPKcd
libgmsh.so.4.8:_ZN4bamg9TrianglesC1ERKS0_PKiS4_
libgmsh.so.4.8:_ZN4bamg9TrianglesC1ERS0_PNS_8GeometryEPS0_l
libgmsh.so.4.8:_ZN4bamg9TrianglesC2EPKcd
libgmsh.so.4.8:_ZN4bamg9TrianglesC2ERKS0_PKiS4_
libgmsh.so.4.8:_ZN4bamg9TrianglesC2ERS0_PNS_8GeometryEPS0_l
libgmsh.so.4.8:_ZN4bamg9TrianglesD1Ev
libgmsh.so.4.8:_ZN4bamg9TrianglesD2Ev
libgmsh.so.4.8:_ZN4bamglsERSoRKNS_8GeometryE
libgmsh.so.4.8:_ZN4bamglsERSoRKNS_8QuadTreeE
libgmsh.so.4.8:_ZN4bamglsERSoRKNS_8TriangleE
libgmsh.so.4.8:_ZN4bamglsERSoRKNS_9TrianglesE
libgmsh.so.4.8:_ZN4gmsh10initializeEiPPcb
libgmsh.so.4.8:_ZN4gmsh4fltk10initializeEv
libgmsh.so.4.8:_ZN4gmsh4fltk11isAvailableEv
libgmsh.so.4.8:_ZN4gmsh4fltk11selectViewsERSt6vectorIiSaIiEE
libgmsh.so.4.8:_ZN4gmsh4fltk12openTreeItemERKNSt7__cxx1112basic_stringIcSt11char_traitsIcESaIcEEE
libgmsh.so.4.8:_ZN4gmsh4fltk13closeTreeItemERKNSt7__cxx1112basic_stringIcSt11char_traitsIcESaIcEEE
libgmsh.so.4.8:_ZN4gmsh4fltk14selectElementsERSt6vectorImSaImEE
libgmsh.so.4.8:_ZN4gmsh4fltk14selectEntitiesERSt6vectorISt4pairIiiESaIS3_EEi
libgmsh.so.4.8:_ZN4gmsh4fltk16setCurrentWindowEi
libgmsh.so.4.8:_ZN4gmsh4fltk16setStatusMessageERKNSt7__cxx1112basic_stringIcSt11char_traitsIcESaIcEEEb
libgmsh.so.4.8:_ZN4gmsh4fltk17showContextWindowEii
libgmsh.so.4.8:_ZN4gmsh4fltk18splitCurrentWindowERKNSt7__cxx1112basic_stringIcSt11char_traitsIcESaIcEEEd
libgmsh.so.4.8:_ZN4gmsh4fltk3runEv
libgmsh.so.4.8:_ZN4gmsh4fltk4lockEv
libgmsh.so.4.8:_ZN4gmsh4fltk4waitEd
libgmsh.so.4.8:_ZN4gmsh4fltk5awakeERKNSt7__cxx1112basic_stringIcSt11char_traitsIcESaIcEEE
libgmsh.so.4.8:_ZN4gmsh4fltk6unlockEv
libgmsh.so.4.8:_ZN4gmsh4fltk6updateEv
libgmsh.so.4.8:_ZN4gmsh4openERKNSt7__cxx1112basic_stringIcSt11char_traitsIcESaIcEEE
libgmsh.so.4.8:_ZN4gmsh4view11addListDataEiRKNSt7__cxx1112basic_stringIcSt11char_traitsIcESaIcEEEiRKSt6vectorIdSaIdEE
libgmsh.so.4.8:_ZN4gmsh4view11copyOptionsEii
libgmsh.so.4.8:_ZN4gmsh4view11getListDataEiRSt6vectorINSt7__cxx1112basic_stringIcSt11char_traitsIcESaIcEEESaIS7_EERS1_IiSaIiEERS1_IS1_IdSaIdEESaISF_EE
libgmsh.so.4.8:_ZN4gmsh4view12addModelDataEiiRKNSt7__cxx1112basic_stringIcSt11char_traitsIcESaIcEEES8_RKSt6vectorImSaImEERKS9_IS9_IdSaIdEESaISF_EEdii
libgmsh.so.4.8:_ZN4gmsh4view12getModelDataEiiRNSt7__cxx1112basic_stringIcSt11char_traitsIcESaIcEEERSt6vectorImSaImEERS8_IS8_IdSaIdEESaISD_EERdRi
libgmsh.so.4.8:_ZN4gmsh4view17addListDataStringEiRKSt6vectorIdSaIdEERKS1_INSt7__cxx1112basic_stringIcSt11char_traitsIcESaIcEEESaISB_EESF_
libgmsh.so.4.8:_ZN4gmsh4view18getListDataStringsEiiRSt6vectorIdSaIdEERS1_INSt7__cxx1112basic_stringIcSt11char_traitsIcESaIcEEESaISA_EESD_
libgmsh.so.4.8:_ZN4gmsh4view22setVisibilityPerWindowEiii
libgmsh.so.4.8:_ZN4gmsh4view23addHomogeneousModelDataEiiRKNSt7__cxx1112basic_stringIcSt11char_traitsIcESaIcEEES8_RKSt6vectorImSaImEERKS9_IdSaIdEEdii
libgmsh.so.4.8:_ZN4gmsh4view23getHomogeneousModelDataEiiRNSt7__cxx1112basic_stringIcSt11char_traitsIcESaIcEEERSt6vectorImSaImEERS8_IdSaIdEERdRi
libgmsh.so.4.8:_ZN4gmsh4view24setInterpolationMatricesEiRKNSt7__cxx1112basic_stringIcSt11char_traitsIcESaIcEEEiRKSt6vectorIdSaIdEESD_iSD_SD_
libgmsh.so.4.8:_ZN4gmsh4view3addERKNSt7__cxx1112basic_stringIcSt11char_traitsIcESaIcEEEi
libgmsh.so.4.8:_ZN4gmsh4view5probeEidddRSt6vectorIdSaIdEEiibdRKS3_S6_S6_i
libgmsh.so.4.8:_ZN4gmsh4view5writeEiRKNSt7__cxx1112basic_stringIcSt11char_traitsIcESaIcEEEb
libgmsh.so.4.8:_ZN4gmsh4view6removeEi
libgmsh.so.4.8:_ZN4gmsh4view7combineERKNSt7__cxx1112basic_stringIcSt11char_traitsIcESaIcEEES8_bb
libgmsh.so.4.8:_ZN4gmsh4view7getTagsERSt6vectorIiSaIiEE
libgmsh.so.4.8:_ZN4gmsh4view8addAliasEibi
libgmsh.so.4.8:_ZN4gmsh4view8getIndexEi
libgmsh.so.4.8:_ZN4gmsh5clearEv
libgmsh.so.4.8:_ZN4gmsh5mergeERKNSt7__cxx1112basic_stringIcSt11char_traitsIcESaIcEEE
libgmsh.so.4.8:_ZN4gmsh5model10getCurrentERNSt7__cxx1112basic_stringIcSt11char_traitsIcESaIcEEE
libgmsh.so.4.8:_ZN4gmsh5model10setCurrentERKNSt7__cxx1112basic_stringIcSt11char_traitsIcESaIcEEE
libgmsh.so.4.8:_ZN4gmsh5model11getBoundaryERKSt6vectorISt4pairIiiESaIS3_EERS5_bbb
libgmsh.so.4.8:_ZN4gmsh5model11getEntitiesERSt6vectorISt4pairIiiESaIS3_EEi
libgmsh.so.4.8:_ZN4gmsh5model11getFileNameERNSt7__cxx1112basic_stringIcSt11char_traitsIcESaIcEEE
libgmsh.so.4.8:_ZN4gmsh5model11setFileNameERKNSt7__cxx1112basic_stringIcSt11char_traitsIcESaIcEEE
libgmsh.so.4.8:_ZN4gmsh5model12getCurvatureEiiRKSt6vectorIdSaIdEERS3_
libgmsh.so.4.8:_ZN4gmsh5model12getDimensionEv
libgmsh.so.4.8:_ZN4gmsh5model13getDerivativeEiiRKSt6vectorIdSaIdEERS3_
libgmsh.so.4.8:_ZN4gmsh5model13getEntityNameEiiRNSt7__cxx1112basic_stringIcSt11char_traitsIcESaIcEEE
libgmsh.so.4.8:_ZN4gmsh5model13getPartitionsEiiRSt6vectorIiSaIiEE
libgmsh.so.4.8:_ZN4gmsh5model13getVisibilityEiiRi
libgmsh.so.4.8:_ZN4gmsh5model13setEntityNameEiiRKNSt7__cxx1112basic_stringIcSt11char_traitsIcESaIcEEE
libgmsh.so.4.8:_ZN4gmsh5model13setVisibilityERKSt6vectorISt4pairIiiESaIS3_EEib
libgmsh.so.4.8:_ZN4gmsh5model14getAdjacenciesEiiRSt6vectorIiSaIiEES4_
libgmsh.so.4.8:_ZN4gmsh5model14getBoundingBoxEiiRdS1_S1_S1_S1_S1_
libgmsh.so.4.8:_ZN4gmsh5model14removeEntitiesERKSt6vectorISt4pairIiiESaIS3_EEb
libgmsh.so.4.8:_ZN4gmsh5model14setCoordinatesEiddd
libgmsh.so.4.8:_ZN4gmsh5model15getClosestPointEiiRKSt6vectorIdSaIdEERS3_S6_
libgmsh.so.4.8:_ZN4gmsh5model15getPhysicalNameEiiRNSt7__cxx1112basic_stringIcSt11char_traitsIcESaIcEEE
libgmsh.so.4.8:_ZN4gmsh5model15setPhysicalNameEiiRKNSt7__cxx1112basic_stringIcSt11char_traitsIcESaIcEEE
libgmsh.so.4.8:_ZN4gmsh5model16addPhysicalGroupEiRKSt6vectorIiSaIiEEi
libgmsh.so.4.8:_ZN4gmsh5model16removeEntityNameERKNSt7__cxx1112basic_stringIcSt11char_traitsIcESaIcEEE
libgmsh.so.4.8:_ZN4gmsh5model17addDiscreteEntityEiiRKSt6vectorIiSaIiEE
libgmsh.so.4.8:_ZN4gmsh5model17getPhysicalGroupsERSt6vectorISt4pairIiiESaIS3_EEi
libgmsh.so.4.8:_ZN4gmsh5model18getParametrizationEiiRKSt6vectorIdSaIdEERS3_
libgmsh.so.4.8:_ZN4gmsh5model18removePhysicalNameERKNSt7__cxx1112basic_stringIcSt11char_traitsIcESaIcEEE
libgmsh.so.4.8:_ZN4gmsh5model19getSecondDerivativeEiiRKSt6vectorIdSaIdEERS3_
libgmsh.so.4.8:_ZN4gmsh5model20removePhysicalGroupsERKSt6vectorISt4pairIiiESaIS3_EE
libgmsh.so.4.8:_ZN4gmsh5model22getPrincipalCurvaturesEiRKSt6vectorIdSaIdEERS3_S6_S6_S6_
libgmsh.so.4.8:_ZN4gmsh5model22reparametrizeOnSurfaceEiiRKSt6vectorIdSaIdEEiRS3_i
libgmsh.so.4.8:_ZN4gmsh5model22setVisibilityPerWindowEii
libgmsh.so.4.8:_ZN4gmsh5model24getEntitiesInBoundingBoxEddddddRSt6vectorISt4pairIiiESaIS3_EEi
libgmsh.so.4.8:_ZN4gmsh5model24getParametrizationBoundsEiiRSt6vectorIdSaIdEES4_
libgmsh.so.4.8:_ZN4gmsh5model26getPhysicalGroupsForEntityEiiRSt6vectorIiSaIiEE
libgmsh.so.4.8:_ZN4gmsh5model27getEntitiesForPhysicalGroupEiiRSt6vectorIiSaIiEE
libgmsh.so.4.8:_ZN4gmsh5model3addERKNSt7__cxx1112basic_stringIcSt11char_traitsIcESaIcEEE
libgmsh.so.4.8:_ZN4gmsh5model3geo10addBSplineERKSt6vectorIiSaIiEEi
libgmsh.so.4.8:_ZN4gmsh5model3geo10splitCurveEiRKSt6vectorIiSaIiEERS4_
libgmsh.so.4.8:_ZN4gmsh5model3geo10symmetrizeERKSt6vectorISt4pairIiiESaIS4_EEdddd
libgmsh.so.4.8:_ZN4gmsh5model3geo11addPolylineERKSt6vectorIiSaIiEEi
libgmsh.so.4.8:_ZN4gmsh5model3geo11synchronizeEv
libgmsh.so.4.8:_ZN4gmsh5model3geo12addCircleArcEiiiiddd
libgmsh.so.4.8:_ZN4gmsh5model3geo12addCurveLoopERKSt6vectorIiSaIiEEib
libgmsh.so.4.8:_ZN4gmsh5model3geo13addCurveLoopsERKSt6vectorIiSaIiEERS4_
libgmsh.so.4.8:_ZN4gmsh5model3geo13addEllipseArcEiiiiiddd
libgmsh.so.4.8:_ZN4gmsh5model3geo14addSurfaceLoopERKSt6vectorIiSaIiEEi
libgmsh.so.4.8:_ZN4gmsh5model3geo15addPlaneSurfaceERKSt6vectorIiSaIiEEi
libgmsh.so.4.8:_ZN4gmsh5model3geo16addPhysicalGroupEiRKSt6vectorIiSaIiEEi
libgmsh.so.4.8:_ZN4gmsh5model3geo17addCompoundSplineERKSt6vectorIiSaIiEEii
libgmsh.so.4.8:_ZN4gmsh5model3geo17addSurfaceFillingERKSt6vectorIiSaIiEEii
libgmsh.so.4.8:_ZN4gmsh5model3geo18addCompoundBSplineERKSt6vectorIiSaIiEEii
libgmsh.so.4.8:_ZN4gmsh5model3geo19removeAllDuplicatesEv
libgmsh.so.4.8:_ZN4gmsh5model3geo20extrudeBoundaryLayerERKSt6vectorISt4pairIiiESaIS4_EERS6_RKS2_IiSaIiEERKS2_IdSaIdEEbbi
libgmsh.so.4.8:_ZN4gmsh5model3geo20removePhysicalGroupsERKSt6vectorISt4pairIiiESaIS4_EE
libgmsh.so.4.8:_ZN4gmsh5model3geo4copyERKSt6vectorISt4pairIiiESaIS4_EERS6_
libgmsh.so.4.8:_ZN4gmsh5model3geo4mesh10setReverseEiib
libgmsh.so.4.8:_ZN4gmsh5model3geo4mesh12setAlgorithmEiii
libgmsh.so.4.8:_ZN4gmsh5model3geo4mesh12setRecombineEiid
libgmsh.so.4.8:_ZN4gmsh5model3geo4mesh12setSmoothingEiii
libgmsh.so.4.8:_ZN4gmsh5model3geo4mesh19setSizeFromBoundaryEiii
libgmsh.so.4.8:_ZN4gmsh5model3geo4mesh19setTransfiniteCurveEiiRKNSt7__cxx1112basic_stringIcSt11char_traitsIcESaIcEEEd
libgmsh.so.4.8:_ZN4gmsh5model3geo4mesh20setTransfiniteVolumeEiRKSt6vectorIiSaIiEE
libgmsh.so.4.8:_ZN4gmsh5model3geo4mesh21setTransfiniteSurfaceEiRKNSt7__cxx1112basic_stringIcSt11char_traitsIcESaIcEEERKSt6vectorIiSaIiEE
libgmsh.so.4.8:_ZN4gmsh5model3geo4mesh7setSizeERKSt6vectorISt4pairIiiESaIS5_EEd
libgmsh.so.4.8:_ZN4gmsh5model3geo5twistERKSt6vectorISt4pairIiiESaIS4_EEddddddddddRS6_RKS2_IiSaIiEERKS2_IdSaIdEEb
libgmsh.so.4.8:_ZN4gmsh5model3geo6dilateERKSt6vectorISt4pairIiiESaIS4_EEdddddd
libgmsh.so.4.8:_ZN4gmsh5model3geo6mirrorERKSt6vectorISt4pairIiiESaIS4_EEdddd
libgmsh.so.4.8:_ZN4gmsh5model3geo6removeERKSt6vectorISt4pairIiiESaIS4_EEb
libgmsh.so.4.8:_ZN4gmsh5model3geo6rotateERKSt6vectorISt4pairIiiESaIS4_EEddddddd
libgmsh.so.4.8:_ZN4gmsh5model3geo7addLineEiii
libgmsh.so.4.8:_ZN4gmsh5model3geo7extrudeERKSt6vectorISt4pairIiiESaIS4_EEdddRS6_RKS2_IiSaIiEERKS2_IdSaIdEEb
libgmsh.so.4.8:_ZN4gmsh5model3geo7revolveERKSt6vectorISt4pairIiiESaIS4_EEdddddddRS6_RKS2_IiSaIiEERKS2_IdSaIdEEb
libgmsh.so.4.8:_ZN4gmsh5model3geo8addPointEddddi
libgmsh.so.4.8:_ZN4gmsh5model3geo9addBezierERKSt6vectorIiSaIiEEi
libgmsh.so.4.8:_ZN4gmsh5model3geo9addSplineERKSt6vectorIiSaIiEEi
libgmsh.so.4.8:_ZN4gmsh5model3geo9addVolumeERKSt6vectorIiSaIiEEi
libgmsh.so.4.8:_ZN4gmsh5model3geo9getMaxTagEi
libgmsh.so.4.8:_ZN4gmsh5model3geo9setMaxTagEii
libgmsh.so.4.8:_ZN4gmsh5model3geo9translateERKSt6vectorISt4pairIiiESaIS4_EEddd
libgmsh.so.4.8:_ZN4gmsh5model3occ10addBSplineERKSt6vectorIiSaIiEEiiRKS2_IdSaIdEESA_S6_
libgmsh.so.4.8:_ZN4gmsh5model3occ10addEllipseEdddddidd
libgmsh.so.4.8:_ZN4gmsh5model3occ10healShapesERSt6vectorISt4pairIiiESaIS4_EERKS6_dbbbbb
libgmsh.so.4.8:_ZN4gmsh5model3occ10symmetrizeERKSt6vectorISt4pairIiiESaIS4_EEdddd
libgmsh.so.4.8:_ZN4gmsh5model3occ11addCylinderEdddddddid
libgmsh.so.4.8:_ZN4gmsh5model3occ11getEntitiesERSt6vectorISt4pairIiiESaIS4_EEi
libgmsh.so.4.8:_ZN4gmsh5model3occ11synchronizeEv
libgmsh.so.4.8:_ZN4gmsh5model3occ12addCircleArcEiiii
libgmsh.so.4.8:_ZN4gmsh5model3occ12addCurveLoopERKSt6vectorIiSaIiEEi
libgmsh.so.4.8:_ZN4gmsh5model3occ12addRectangleEdddddid
libgmsh.so.4.8:_ZN4gmsh5model3occ12importShapesERKNSt7__cxx1112basic_stringIcSt11char_traitsIcESaIcEEERSt6vectorISt4pairIiiESaISC_EEbS9_
libgmsh.so.4.8:_ZN4gmsh5model3occ13addEllipseArcEiiiii
libgmsh.so.4.8:_ZN4gmsh5model3occ13addThickSolidEiRKSt6vectorIiSaIiEEdRS2_ISt4pairIiiESaIS8_EEi
libgmsh.so.4.8:_ZN4gmsh5model3occ14addSurfaceLoopERKSt6vectorIiSaIiEEib
libgmsh.so.4.8:_ZN4gmsh5model3occ14getBoundingBoxEiiRdS2_S2_S2_S2_S2_
libgmsh.so.4.8:_ZN4gmsh5model3occ15addPlaneSurfaceERKSt6vectorIiSaIiEEi
libgmsh.so.4.8:_ZN4gmsh5model3occ15addThruSectionsERKSt6vectorIiSaIiEERS2_ISt4pairIiiESaIS8_EEibbi
libgmsh.so.4.8:_ZN4gmsh5model3occ15affineTransformERKSt6vectorISt4pairIiiESaIS4_EERKS2_IdSaIdEE
libgmsh.so.4.8:_ZN4gmsh5model3occ15getCenterOfMassEiiRdS2_S2_
libgmsh.so.4.8:_ZN4gmsh5model3occ16addBezierFillingEiiRKNSt7__cxx1112basic_stringIcSt11char_traitsIcESaIcEEE
libgmsh.so.4.8:_ZN4gmsh5model3occ16addBezierSurfaceERKSt6vectorIiSaIiEEiiS6_b
libgmsh.so.4.8:_ZN4gmsh5model3occ17addBSplineFillingEiiRKNSt7__cxx1112basic_stringIcSt11char_traitsIcESaIcEEE
libgmsh.so.4.8:_ZN4gmsh5model3occ17addBSplineSurfaceERKSt6vectorIiSaIiEEiiiiRKS2_IdSaIdEESA_SA_S6_S6_S6_b
libgmsh.so.4.8:_ZN4gmsh5model3occ17addSurfaceFillingEiiRKSt6vectorIiSaIiEE
libgmsh.so.4.8:_ZN4gmsh5model3occ17addTrimmedSurfaceEiRKSt6vectorIiSaIiEEbi
libgmsh.so.4.8:_ZN4gmsh5model3occ18getMatrixOfInertiaEiiRSt6vectorIdSaIdEE
libgmsh.so.4.8:_ZN4gmsh5model3occ19removeAllDuplicatesEv
libgmsh.so.4.8:_ZN4gmsh5model3occ24getEntitiesInBoundingBoxEddddddRSt6vectorISt4pairIiiESaIS4_EEi
libgmsh.so.4.8:_ZN4gmsh5model3occ25importShapesNativePointerEPKvRSt6vectorISt4pairIiiESaIS6_EEb
libgmsh.so.4.8:_ZN4gmsh5model3occ3cutERKSt6vectorISt4pairIiiESaIS4_EES8_RS6_RS2_IS6_SaIS6_EEibb
libgmsh.so.4.8:_ZN4gmsh5model3occ4copyERKSt6vectorISt4pairIiiESaIS4_EERS6_
libgmsh.so.4.8:_ZN4gmsh5model3occ4fuseERKSt6vectorISt4pairIiiESaIS4_EES8_RS6_RS2_IS6_SaIS6_EEibb
libgmsh.so.4.8:_ZN4gmsh5model3occ4mesh7setSizeERKSt6vectorISt4pairIiiESaIS5_EEd
libgmsh.so.4.8:_ZN4gmsh5model3occ6addBoxEddddddi
libgmsh.so.4.8:_ZN4gmsh5model3occ6dilateERKSt6vectorISt4pairIiiESaIS4_EEdddddd
libgmsh.so.4.8:_ZN4gmsh5model3occ6filletERKSt6vectorIiSaIiEES6_RKS2_IdSaIdEERS2_ISt4pairIiiESaISC_EEb
libgmsh.so.4.8:_ZN4gmsh5model3occ6mirrorERKSt6vectorISt4pairIiiESaIS4_EEdddd
libgmsh.so.4.8:_ZN4gmsh5model3occ6removeERKSt6vectorISt4pairIiiESaIS4_EEb
libgmsh.so.4.8:_ZN4gmsh5model3occ6rotateERKSt6vectorISt4pairIiiESaIS4_EEddddddd
libgmsh.so.4.8:_ZN4gmsh5model3occ7addConeEddddddddid
libgmsh.so.4.8:_ZN4gmsh5model3occ7addDiskEdddddi
libgmsh.so.4.8:_ZN4gmsh5model3occ7addLineEiii
libgmsh.so.4.8:_ZN4gmsh5model3occ7addPipeERKSt6vectorISt4pairIiiESaIS4_EEiRS6_RKNSt7__cxx1112basic_stringIcSt11char_traitsIcESaIcEEE
libgmsh.so.4.8:_ZN4gmsh5model3occ7addWireERKSt6vectorIiSaIiEEib
libgmsh.so.4.8:_ZN4gmsh5model3occ7chamferERKSt6vectorIiSaIiEES6_S6_RKS2_IdSaIdEERS2_ISt4pairIiiESaISC_EEb
libgmsh.so.4.8:_ZN4gmsh5model3occ7extrudeERKSt6vectorISt4pairIiiESaIS4_EEdddRS6_RKS2_IiSaIiEERKS2_IdSaIdEEb
libgmsh.so.4.8:_ZN4gmsh5model3occ7getMassEiiRd
libgmsh.so.4.8:_ZN4gmsh5model3occ7revolveERKSt6vectorISt4pairIiiESaIS4_EEdddddddRS6_RKS2_IiSaIiEERKS2_IdSaIdEEb
libgmsh.so.4.8:_ZN4gmsh5model3occ8addPointEddddi
libgmsh.so.4.8:_ZN4gmsh5model3occ8addTorusEdddddid
libgmsh.so.4.8:_ZN4gmsh5model3occ8addWedgeEddddddid
libgmsh.so.4.8:_ZN4gmsh5model3occ8fragmentERKSt6vectorISt4pairIiiESaIS4_EES8_RS6_RS2_IS6_SaIS6_EEibb
libgmsh.so.4.8:_ZN4gmsh5model3occ9addBezierERKSt6vectorIiSaIiEEi
libgmsh.so.4.8:_ZN4gmsh5model3occ9addCircleEddddidd
libgmsh.so.4.8:_ZN4gmsh5model3occ9addSphereEddddiddd
libgmsh.so.4.8:_ZN4gmsh5model3occ9addSplineERKSt6vectorIiSaIiEEi
libgmsh.so.4.8:_ZN4gmsh5model3occ9addVolumeERKSt6vectorIiSaIiEEi
libgmsh.so.4.8:_ZN4gmsh5model3occ9getMaxTagEi
libgmsh.so.4.8:_ZN4gmsh5model3occ9intersectERKSt6vectorISt4pairIiiESaIS4_EES8_RS6_RS2_IS6_SaIS6_EEibb
libgmsh.so.4.8:_ZN4gmsh5model3occ9setMaxTagEii
libgmsh.so.4.8:_ZN4gmsh5model3occ9translateERKSt6vectorISt4pairIiiESaIS4_EEddd
libgmsh.so.4.8:_ZN4gmsh5model4listERSt6vectorINSt7__cxx1112basic_stringIcSt11char_traitsIcESaIcEEESaIS7_EE
libgmsh.so.4.8:_ZN4gmsh5model4mesh10getElementEmRiRSt6vectorImSaImEE
libgmsh.so.4.8:_ZN4gmsh5model4mesh10setReverseEiib
libgmsh.so.4.8:_ZN4gmsh5model4mesh11addElementsEiiRKSt6vectorIiSaIiEERKS2_IS2_ImSaImEESaIS8_EESC_
libgmsh.so.4.8:_ZN4gmsh5model4mesh11createEdgesERKSt6vectorISt4pairIiiESaIS4_EE
libgmsh.so.4.8:_ZN4gmsh5model4mesh11createFacesERKSt6vectorISt4pairIiiESaIS4_EE
libgmsh.so.4.8:_ZN4gmsh5model4mesh11getElementsERSt6vectorIiSaIiEERS2_IS2_ImSaImEESaIS7_EESA_ii
libgmsh.so.4.8:_ZN4gmsh5model4mesh11getEmbeddedEiiRSt6vectorISt4pairIiiESaIS4_EE
libgmsh.so.4.8:_ZN4gmsh5model4mesh11getJacobianEmRKSt6vectorIdSaIdEERS4_S7_S7_
libgmsh.so.4.8:_ZN4gmsh5model4mesh11setCompoundEiRKSt6vectorIiSaIiEE
libgmsh.so.4.8:_ZN4gmsh5model4mesh11setPeriodicEiRKSt6vectorIiSaIiEES6_RKS2_IdSaIdEE
libgmsh.so.4.8:_ZN4gmsh5model4mesh11triangulateERKSt6vectorIdSaIdEERS2_ImSaImEE
libgmsh.so.4.8:_ZN4gmsh5model4mesh11unpartitionEv
libgmsh.so.4.8:_ZN4gmsh5model4mesh12getJacobiansEiRKSt6vectorIdSaIdEERS4_S7_S7_imm
libgmsh.so.4.8:_ZN4gmsh5model4mesh12setAlgorithmEiii
libgmsh.so.4.8:_ZN4gmsh5model4mesh12setRecombineEii
libgmsh.so.4.8:_ZN4gmsh5model4mesh12setSmoothingEiii
libgmsh.so.4.8:_ZN4gmsh5model4mesh13relocateNodesEii
libgmsh.so.4.8:_ZN4gmsh5model4mesh13renumberNodesEv
libgmsh.so.4.8:_ZN4gmsh5model4mesh14createGeometryERKSt6vectorISt4pairIiiESaIS4_EE
libgmsh.so.4.8:_ZN4gmsh5model4mesh14createTopologyEbb
libgmsh.so.4.8:_ZN4gmsh5model4mesh14getBarycentersEiibbRSt6vectorIdSaIdEEmm
libgmsh.so.4.8:_ZN4gmsh5model4mesh14getElementTypeERKNSt7__cxx1112basic_stringIcSt11char_traitsIcESaIcEEEib
libgmsh.so.4.8:_ZN4gmsh5model4mesh14removeEmbeddedERKSt6vectorISt4pairIiiESaIS4_EEi
libgmsh.so.4.8:_ZN4gmsh5model4mesh14tetrahedralizeERKSt6vectorIdSaIdEERS2_ImSaImEE
libgmsh.so.4.8:_ZN4gmsh5model4mesh15computeHomologyERKSt6vectorIiSaIiEES6_S6_
libgmsh.so.4.8:_ZN4gmsh5model4mesh15getElementTypesERSt6vectorIiSaIiEEii
libgmsh.so.4.8:_ZN4gmsh5model4mesh15reclassifyNodesEv
libgmsh.so.4.8:_ZN4gmsh5model4mesh15reorderElementsEiiRKSt6vectorImSaImEE
libgmsh.so.4.8:_ZN4gmsh5model4mesh15setSizeCallbackESt8functionIFdiidddEE
libgmsh.so.4.8:_ZN4gmsh5model4mesh16classifySurfacesEdbbdb
libgmsh.so.4.8:_ZN4gmsh5model4mesh16getGhostElementsEiiRSt6vectorImSaImEERS2_IiSaIiEE
libgmsh.so.4.8:_ZN4gmsh5model4mesh16getLastNodeErrorERSt6vectorImSaImEE
libgmsh.so.4.8:_ZN4gmsh5model4mesh16getPeriodicNodesEiiRiRSt6vectorImSaImEES6_RS3_IdSaIdEEb
libgmsh.so.4.8:_ZN4gmsh5model4mesh16rebuildNodeCacheEb
libgmsh.so.4.8:_ZN4gmsh5model4mesh16renumberElementsEv
libgmsh.so.4.8:_ZN4gmsh5model4mesh16splitQuadranglesEdi
libgmsh.so.4.8:_ZN4gmsh5model4mesh17addElementsByTypeEiiRKSt6vectorImSaImEES6_
libgmsh.so.4.8:_ZN4gmsh5model4mesh17computeCohomologyERKSt6vectorIiSaIiEES6_S6_
libgmsh.so.4.8:_ZN4gmsh5model4mesh17computeCrossFieldERSt6vectorIiSaIiEE
libgmsh.so.4.8:_ZN4gmsh5model4mesh17getBasisFunctionsEiRKSt6vectorIdSaIdEERKNSt7__cxx1112basic_stringIcSt11char_traitsIcESaIcEEERiRS4_SF_RKS2_IiSaIiEE
libgmsh.so.4.8:_ZN4gmsh5model4mesh17getElementsByTypeEiRSt6vectorImSaImEES5_imm
libgmsh.so.4.8:_ZN4gmsh5model4mesh17getKeysForElementEmRKNSt7__cxx1112basic_stringIcSt11char_traitsIcESaIcEEERSt6vectorISt4pairIiiESaISC_EERSA_IdSaIdEEb
libgmsh.so.4.8:_ZN4gmsh5model4mesh17removeConstraintsERKSt6vectorISt4pairIiiESaIS4_EE
libgmsh.so.4.8:_ZN4gmsh5model4mesh18getKeysForElementsEiRKNSt7__cxx1112basic_stringIcSt11char_traitsIcESaIcEEERSt6vectorISt4pairIiiESaISC_EERSA_IdSaIdEEib
libgmsh.so.4.8:_ZN4gmsh5model4mesh18getLastEntityErrorERSt6vectorISt4pairIiiESaIS4_EE
libgmsh.so.4.8:_ZN4gmsh5model4mesh18removeSizeCallbackEv
libgmsh.so.4.8:_ZN4gmsh5model4mesh19getElementEdgeNodesEiRSt6vectorImSaImEEibmm
libgmsh.so.4.8:_ZN4gmsh5model4mesh19getElementFaceNodesEiiRSt6vectorImSaImEEibmm
libgmsh.so.4.8:_ZN4gmsh5model4mesh19rebuildElementCacheEb
libgmsh.so.4.8:_ZN4gmsh5model4mesh19setSizeFromBoundaryEiii
libgmsh.so.4.8:_ZN4gmsh5model4mesh19setTransfiniteCurveEiiRKNSt7__cxx1112basic_stringIcSt11char_traitsIcESaIcEEEd
libgmsh.so.4.8:_ZN4gmsh5model4mesh20getElementPropertiesEiRNSt7__cxx1112basic_stringIcSt11char_traitsIcESaIcEEERiS9_S9_RSt6vectorIdSaIdEES9_
libgmsh.so.4.8:_ZN4gmsh5model4mesh20getIntegrationPointsEiRKNSt7__cxx1112basic_stringIcSt11char_traitsIcESaIcEEERSt6vectorIdSaIdEESD_
libgmsh.so.4.8:_ZN4gmsh5model4mesh20preallocateJacobiansEiibbbRSt6vectorIdSaIdEES5_S5_i
libgmsh.so.4.8:_ZN4gmsh5model4mesh20removeDuplicateNodesEv
libgmsh.so.4.8:_ZN4gmsh5model4mesh20setTransfiniteVolumeEiRKSt6vectorIiSaIiEE
libgmsh.so.4.8:_ZN4gmsh5model4mesh21getNodesByElementTypeEiRSt6vectorImSaImEERS2_IdSaIdEES8_ib
libgmsh.so.4.8:_ZN4gmsh5model4mesh21setOutwardOrientationEi
libgmsh.so.4.8:_ZN4gmsh5model4mesh21setTransfiniteSurfaceEiRKNSt7__cxx1112basic_stringIcSt11char_traitsIcESaIcEEERKSt6vectorIiSaIiEE
libgmsh.so.4.8:_ZN4gmsh5model4mesh22preallocateBarycentersEiRSt6vectorIdSaIdEEi
libgmsh.so.4.8:_ZN4gmsh5model4mesh23getElementByCoordinatesEdddRmRiRSt6vectorImSaImEERdS8_S8_ib
libgmsh.so.4.8:_ZN4gmsh5model4mesh23getNumberOfOrientationsEiRKNSt7__cxx1112basic_stringIcSt11char_traitsIcESaIcEEE
libgmsh.so.4.8:_ZN4gmsh5model4mesh23setTransfiniteAutomaticERKSt6vectorISt4pairIiiESaIS4_EEdb
libgmsh.so.4.8:_ZN4gmsh5model4mesh24getElementsByCoordinatesEdddRSt6vectorImSaImEEib
libgmsh.so.4.8:_ZN4gmsh5model4mesh24getNodesForPhysicalGroupEiiRSt6vectorImSaImEERS2_IdSaIdEE
libgmsh.so.4.8:_ZN4gmsh5model4mesh25getInformationForElementsERKSt6vectorISt4pairIiiESaIS4_EEiRKNSt7__cxx1112basic_stringIcSt11char_traitsIcESaIcEEERS6_
libgmsh.so.4.8:_ZN4gmsh5model4mesh25preallocateElementsByTypeEibbRSt6vectorImSaImEES5_i
libgmsh.so.4.8:_ZN4gmsh5model4mesh25setSizeAtParametricPointsEiiRKSt6vectorIdSaIdEES6_
libgmsh.so.4.8:_ZN4gmsh5model4mesh26getNumberOfKeysForElementsEiRKNSt7__cxx1112basic_stringIcSt11char_traitsIcESaIcEEE
libgmsh.so.4.8:_ZN4gmsh5model4mesh28getLocalCoordinatesInElementEmdddRdS2_S2_
libgmsh.so.4.8:_ZN4gmsh5model4mesh28getLocalMultipliersForHcurl0EiRSt6vectorIiSaIiEEi
libgmsh.so.4.8:_ZN4gmsh5model4mesh38getBasisFunctionsOrientationForElementEmRKNSt7__cxx1112basic_stringIcSt11char_traitsIcESaIcEEERi
libgmsh.so.4.8:_ZN4gmsh5model4mesh39getBasisFunctionsOrientationForElementsEiRKNSt7__cxx1112basic_stringIcSt11char_traitsIcESaIcEEERSt6vectorIiSaIiEEimm
libgmsh.so.4.8:_ZN4gmsh5model4mesh47preallocateBasisFunctionsOrientationForElementsEiRSt6vectorIiSaIiEEi
libgmsh.so.4.8:_ZN4gmsh5model4mesh5clearERKSt6vectorISt4pairIiiESaIS4_EE
libgmsh.so.4.8:_ZN4gmsh5model4mesh5embedEiRKSt6vectorIiSaIiEEii
libgmsh.so.4.8:_ZN4gmsh5model4mesh5field10setNumbersEiRKNSt7__cxx1112basic_stringIcSt11char_traitsIcESaIcEEERKSt6vectorIdSaIdEE
libgmsh.so.4.8:_ZN4gmsh5model4mesh5field18setAsBoundaryLayerEi
libgmsh.so.4.8:_ZN4gmsh5model4mesh5field19setAsBackgroundMeshEi
libgmsh.so.4.8:_ZN4gmsh5model4mesh5field3addERKNSt7__cxx1112basic_stringIcSt11char_traitsIcESaIcEEEi
libgmsh.so.4.8:_ZN4gmsh5model4mesh5field6removeEi
libgmsh.so.4.8:_ZN4gmsh5model4mesh5field9setNumberEiRKNSt7__cxx1112basic_stringIcSt11char_traitsIcESaIcEEEd
libgmsh.so.4.8:_ZN4gmsh5model4mesh5field9setStringEiRKNSt7__cxx1112basic_stringIcSt11char_traitsIcESaIcEEESA_
libgmsh.so.4.8:_ZN4gmsh5model4mesh6refineEv
libgmsh.so.4.8:_ZN4gmsh5model4mesh7getNodeEmRSt6vectorIdSaIdEES5_
libgmsh.so.4.8:_ZN4gmsh5model4mesh7setNodeEmRKSt6vectorIdSaIdEES6_
libgmsh.so.4.8:_ZN4gmsh5model4mesh7setSizeERKSt6vectorISt4pairIiiESaIS4_EEd
libgmsh.so.4.8:_ZN4gmsh5model4mesh8addNodesEiiRKSt6vectorImSaImEERKS2_IdSaIdEESA_
libgmsh.so.4.8:_ZN4gmsh5model4mesh8generateEi
libgmsh.so.4.8:_ZN4gmsh5model4mesh8getEdgesERKSt6vectorImSaImEERS4_RS2_IiSaIiEE
libgmsh.so.4.8:_ZN4gmsh5model4mesh8getFacesEiRKSt6vectorImSaImEERS4_RS2_IiSaIiEE
libgmsh.so.4.8:_ZN4gmsh5model4mesh8getNodesERSt6vectorImSaImEERS2_IdSaIdEES8_iibb
libgmsh.so.4.8:_ZN4gmsh5model4mesh8optimizeERKNSt7__cxx1112basic_stringIcSt11char_traitsIcESaIcEEEbiRKSt6vectorISt4pairIiiESaISC_EE
libgmsh.so.4.8:_ZN4gmsh5model4mesh8setOrderEi
libgmsh.so.4.8:_ZN4gmsh5model4mesh9partitionEi
libgmsh.so.4.8:_ZN4gmsh5model4mesh9recombineEv
libgmsh.so.4.8:_ZN4gmsh5model6removeEv
libgmsh.so.4.8:_ZN4gmsh5model7getTypeEiiRNSt7__cxx1112basic_stringIcSt11char_traitsIcESaIcEEE
libgmsh.so.4.8:_ZN4gmsh5model8getColorEiiRiS1_S1_S1_
libgmsh.so.4.8:_ZN4gmsh5model8getValueEiiRKSt6vectorIdSaIdEERS3_
libgmsh.so.4.8:_ZN4gmsh5model8isInsideEiiRKSt6vectorIdSaIdEE
libgmsh.so.4.8:_ZN4gmsh5model8setColorERKSt6vectorISt4pairIiiESaIS3_EEiiiib
libgmsh.so.4.8:_ZN4gmsh5model9getNormalEiRKSt6vectorIdSaIdEERS3_
libgmsh.so.4.8:_ZN4gmsh5model9getParentEiiRiS1_
libgmsh.so.4.8:_ZN4gmsh5writeERKNSt7__cxx1112basic_stringIcSt11char_traitsIcESaIcEEE
libgmsh.so.4.8:_ZN4gmsh6logger10getCpuTimeEv
libgmsh.so.4.8:_ZN4gmsh6logger11getWallTimeEv
libgmsh.so.4.8:_ZN4gmsh6logger12getLastErrorERNSt7__cxx1112basic_stringIcSt11char_traitsIcESaIcEEE
libgmsh.so.4.8:_ZN4gmsh6logger3getERSt6vectorINSt7__cxx1112basic_stringIcSt11char_traitsIcESaIcEEESaIS7_EE
libgmsh.so.4.8:_ZN4gmsh6logger4stopEv
libgmsh.so.4.8:_ZN4gmsh6logger5startEv
libgmsh.so.4.8:_ZN4gmsh6logger5writeERKNSt7__cxx1112basic_stringIcSt11char_traitsIcESaIcEEES8_
libgmsh.so.4.8:_ZN4gmsh6onelab3getERNSt7__cxx1112basic_stringIcSt11char_traitsIcESaIcEEERKS6_S9_
libgmsh.so.4.8:_ZN4gmsh6onelab3runERKNSt7__cxx1112basic_stringIcSt11char_traitsIcESaIcEEES8_
libgmsh.so.4.8:_ZN4gmsh6onelab3setERKNSt7__cxx1112basic_stringIcSt11char_traitsIcESaIcEEES8_
libgmsh.so.4.8:_ZN4gmsh6onelab5clearERKNSt7__cxx1112basic_stringIcSt11char_traitsIcESaIcEEE
libgmsh.so.4.8:_ZN4gmsh6onelab8getNamesERSt6vectorINSt7__cxx1112basic_stringIcSt11char_traitsIcESaIcEEESaIS7_EERKS7_
libgmsh.so.4.8:_ZN4gmsh6onelab9getNumberERKNSt7__cxx1112basic_stringIcSt11char_traitsIcESaIcEEERSt6vectorIdSaIdEE
libgmsh.so.4.8:_ZN4gmsh6onelab9getStringERKNSt7__cxx1112basic_stringIcSt11char_traitsIcESaIcEEERSt6vectorIS6_SaIS6_EE
libgmsh.so.4.8:_ZN4gmsh6onelab9setNumberERKNSt7__cxx1112basic_stringIcSt11char_traitsIcESaIcEEERKSt6vectorIdSaIdEE
libgmsh.so.4.8:_ZN4gmsh6onelab9setStringERKNSt7__cxx1112basic_stringIcSt11char_traitsIcESaIcEEERKSt6vectorIS6_SaIS6_EE
libgmsh.so.4.8:_ZN4gmsh6option8getColorERKNSt7__cxx1112basic_stringIcSt11char_traitsIcESaIcEEERiS9_S9_S9_
libgmsh.so.4.8:_ZN4gmsh6option8setColorERKNSt7__cxx1112basic_stringIcSt11char_traitsIcESaIcEEEiiii
libgmsh.so.4.8:_ZN4gmsh6option9getNumberERKNSt7__cxx1112basic_stringIcSt11char_traitsIcESaIcEEERd
libgmsh.so.4.8:_ZN4gmsh6option9getStringERKNSt7__cxx1112basic_stringIcSt11char_traitsIcESaIcEEERS6_
libgmsh.so.4.8:_ZN4gmsh6option9setNumberERKNSt7__cxx1112basic_stringIcSt11char_traitsIcESaIcEEEd
libgmsh.so.4.8:_ZN4gmsh6option9setStringERKNSt7__cxx1112basic_stringIcSt11char_traitsIcESaIcEEES8_
libgmsh.so.4.8:_ZN4gmsh6plugin3runERKNSt7__cxx1112basic_stringIcSt11char_traitsIcESaIcEEE
libgmsh.so.4.8:_ZN4gmsh6plugin9setNumberERKNSt7__cxx1112basic_stringIcSt11char_traitsIcESaIcEEES8_d
libgmsh.so.4.8:_ZN4gmsh6plugin9setStringERKNSt7__cxx1112basic_stringIcSt11char_traitsIcESaIcEEES8_S8_
libgmsh.so.4.8:_ZN4gmsh8finalizeEv
libgmsh.so.4.8:_ZN4gmsh8graphics4drawEv
libgmsh.so.4.8:_ZN4voro10wall_plane12point_insideEddd
libgmsh.so.4.8:_ZN4voro11wall_sphere12point_insideEddd
libgmsh.so.4.8:_ZN4voro12voro_computeINS_14container_polyEE12compute_cellINS_11voronoicellEEEbRT_iiiii
libgmsh.so.4.8:_ZN4voro12voro_computeINS_14container_polyEE12compute_cellINS_20voronoicell_neighborEEEbRT_iiiii
libgmsh.so.4.8:_ZN4voro12voro_computeINS_14container_polyEE17find_voronoi_cellEdddiiiiRNS_15particle_recordERd
libgmsh.so.4.8:_ZN4voro12voro_computeINS_14container_polyEEC1ERS1_iii
libgmsh.so.4.8:_ZN4voro12voro_computeINS_14container_polyEEC2ERS1_iii
libgmsh.so.4.8:_ZN4voro12voro_computeINS_18container_periodicEE12compute_cellINS_11voronoicellEEEbRT_iiiii
libgmsh.so.4.8:_ZN4voro12voro_computeINS_18container_periodicEE12compute_cellINS_20voronoicell_neighborEEEbRT_iiiii
libgmsh.so.4.8:_ZN4voro12voro_computeINS_18container_periodicEE17find_voronoi_cellEdddiiiiRNS_15particle_recordERd
libgmsh.so.4.8:_ZN4voro12voro_computeINS_18container_periodicEEC1ERS1_iii
libgmsh.so.4.8:_ZN4voro12voro_computeINS_18container_periodicEEC2ERS1_iii
libgmsh.so.4.8:_ZN4voro12voro_computeINS_23container_periodic_polyEE12compute_cellINS_11voronoicellEEEbRT_iiiii
libgmsh.so.4.8:_ZN4voro12voro_computeINS_23container_periodic_polyEE12compute_cellINS_20voronoicell_neighborEEEbRT_iiiii
libgmsh.so.4.8:_ZN4voro12voro_computeINS_23container_periodic_polyEE17find_voronoi_cellEdddiiiiRNS_15particle_recordERd
libgmsh.so.4.8:_ZN4voro12voro_computeINS_23container_periodic_polyEEC1ERS1_iii
libgmsh.so.4.8:_ZN4voro12voro_computeINS_23container_periodic_polyEEC2ERS1_iii
libgmsh.so.4.8:_ZN4voro12voro_computeINS_9containerEE12compute_cellINS_11voronoicellEEEbRT_iiiii
libgmsh.so.4.8:_ZN4voro12voro_computeINS_9containerEE12compute_cellINS_20voronoicell_neighborEEEbRT_iiiii
libgmsh.so.4.8:_ZN4voro12voro_computeINS_9containerEE17find_voronoi_cellEdddiiiiRNS_15particle_recordERd
libgmsh.so.4.8:_ZN4voro12voro_computeINS_9containerEEC1ERS1_iii
libgmsh.so.4.8:_ZN4voro12voro_computeINS_9containerEEC2ERS1_iii
libgmsh.so.4.8:_ZN4voro13c_loop_subset10next_blockEv
libgmsh.so.4.8:_ZN4voro13c_loop_subset12setup_commonEv
libgmsh.so.4.8:_ZN4voro13c_loop_subset12setup_intboxEiiiiii
libgmsh.so.4.8:_ZN4voro13c_loop_subset12setup_sphereEddddb
libgmsh.so.4.8:_ZN4voro13c_loop_subset13out_of_boundsEv
libgmsh.so.4.8:_ZN4voro13c_loop_subset5startEv
libgmsh.so.4.8:_ZN4voro13c_loop_subset9setup_boxEddddddb
libgmsh.so.4.8:_ZN4voro13pre_container3putEiddd
libgmsh.so.4.8:_ZN4voro13pre_container5setupERNS_14particle_orderERNS_9containerE
libgmsh.so.4.8:_ZN4voro13pre_container5setupERNS_9containerE
libgmsh.so.4.8:_ZN4voro13pre_container6importEP8_IO_FILE
libgmsh.so.4.8:_ZN4voro13wall_cylinder12point_insideEddd
libgmsh.so.4.8:_ZN4voro14container_base12point_insideEddd
libgmsh.so.4.8:_ZN4voro14container_base12region_countEv
libgmsh.so.4.8:_ZN4voro14container_base15draw_domain_povEP8_IO_FILE
libgmsh.so.4.8:_ZN4voro14container_base19add_particle_memoryEi
libgmsh.so.4.8:_ZN4voro14container_base19draw_domain_gnuplotEP8_IO_FILE
libgmsh.so.4.8:_ZN4voro14container_baseC1Eddddddiiibbbii
libgmsh.so.4.8:_ZN4voro14container_baseC2Eddddddiiibbbii
libgmsh.so.4.8:_ZN4voro14container_baseD1Ev
libgmsh.so.4.8:_ZN4voro14container_baseD2Ev
libgmsh.so.4.8:_ZN4voro14container_poly12print_customEPKcP8_IO_FILE
libgmsh.so.4.8:_ZN4voro14container_poly12print_customEPKcS2_
libgmsh.so.4.8:_ZN4voro14container_poly16sum_cell_volumesEv
libgmsh.so.4.8:_ZN4voro14container_poly17compute_all_cellsEv
libgmsh.so.4.8:_ZN4voro14container_poly17find_voronoi_cellEdddRdS1_S1_Ri
libgmsh.so.4.8:_ZN4voro14container_poly3putERNS_14particle_orderEidddd
libgmsh.so.4.8:_ZN4voro14container_poly3putEidddd
libgmsh.so.4.8:_ZN4voro14container_poly5clearEv
libgmsh.so.4.8:_ZN4voro14container_poly6importEP8_IO_FILE
libgmsh.so.4.8:_ZN4voro14container_poly6importERNS_14particle_orderEP8_IO_FILE
libgmsh.so.4.8:_ZN4voro14container_polyC1Eddddddiiibbbi
libgmsh.so.4.8:_ZN4voro14container_polyC2Eddddddiiibbbi
libgmsh.so.4.8:_ZN4voro14particle_order19add_ordering_memoryEv
libgmsh.so.4.8:_ZN4voro16voronoicell_base10face_areasERSt6vectorIdSaIdEE
libgmsh.so.4.8:_ZN4voro16voronoicell_base11face_ordersERSt6vectorIiSaIiEE
libgmsh.so.4.8:_ZN4voro16voronoicell_base11print_edgesEv
libgmsh.so.4.8:_ZN4voro16voronoicell_base12draw_gnuplotEdddP8_IO_FILE
libgmsh.so.4.8:_ZN4voro16voronoicell_base12surface_areaEv
libgmsh.so.4.8:_ZN4voro16voronoicell_base13add_memory_dsERPi
libgmsh.so.4.8:_ZN4voro16voronoicell_base13draw_pov_meshEdddP8_IO_FILE
libgmsh.so.4.8:_ZN4voro16voronoicell_base13face_verticesERSt6vectorIiSaIiEE
libgmsh.so.4.8:_ZN4voro16voronoicell_base13output_customEPKciddddP8_IO_FILE
libgmsh.so.4.8:_ZN4voro16voronoicell_base13vertex_ordersERSt6vectorIiSaIiEE
libgmsh.so.4.8:_ZN4voro16voronoicell_base14add_memory_ds2ERPi
libgmsh.so.4.8:_ZN4voro16voronoicell_base14check_marginalEiRd
libgmsh.so.4.8:_ZN4voro16voronoicell_base15check_relationsEv
libgmsh.so.4.8:_ZN4voro16voronoicell_base15face_freq_tableERSt6vectorIiSaIiEE
libgmsh.so.4.8:_ZN4voro16voronoicell_base15face_perimetersERSt6vectorIdSaIdEE
libgmsh.so.4.8:_ZN4voro16voronoicell_base15number_of_edgesEv
libgmsh.so.4.8:_ZN4voro16voronoicell_base15number_of_facesEv
libgmsh.so.4.8:_ZN4voro16voronoicell_base15output_verticesEP8_IO_FILE
libgmsh.so.4.8:_ZN4voro16voronoicell_base15output_verticesEdddP8_IO_FILE
libgmsh.so.4.8:_ZN4voro16voronoicell_base16check_duplicatesEv
libgmsh.so.4.8:_ZN4voro16voronoicell_base16plane_intersectsEdddd
libgmsh.so.4.8:_ZN4voro16voronoicell_base18max_radius_squaredEv
libgmsh.so.4.8:_ZN4voro16voronoicell_base19construct_relationsEv
libgmsh.so.4.8:_ZN4voro16voronoicell_base19total_edge_distanceEv
libgmsh.so.4.8:_ZN4voro16voronoicell_base20init_octahedron_baseEd
libgmsh.so.4.8:_ZN4voro16voronoicell_base20output_vertex_ordersEP8_IO_FILE
libgmsh.so.4.8:_ZN4voro16voronoicell_base21check_memory_for_copyINS_11voronoicellEEEvRT_PS0_
libgmsh.so.4.8:_ZN4voro16voronoicell_base21check_memory_for_copyINS_20voronoicell_neighborEEEvRT_PS0_
libgmsh.so.4.8:_ZN4voro16voronoicell_base21init_tetrahedron_baseEdddddddddddd
libgmsh.so.4.8:_ZN4voro16voronoicell_base22plane_intersects_guessEdddd
libgmsh.so.4.8:_ZN4voro16voronoicell_base4copyEPS0_
libgmsh.so.4.8:_ZN4voro16voronoicell_base6nplaneINS_11voronoicellEEEbRT_ddddi
libgmsh.so.4.8:_ZN4voro16voronoicell_base6nplaneINS_20voronoicell_neighborEEEbRT_ddddi
libgmsh.so.4.8:_ZN4voro16voronoicell_base6volumeEv
libgmsh.so.4.8:_ZN4voro16voronoicell_base7normalsERSt6vectorIdSaIdEE
libgmsh.so.4.8:_ZN4voro16voronoicell_base8centroidERdS1_S1_
libgmsh.so.4.8:_ZN4voro16voronoicell_base8draw_povEdddP8_IO_FILE
libgmsh.so.4.8:_ZN4voro16voronoicell_base8verticesERSt6vectorIdSaIdEE
libgmsh.so.4.8:_ZN4voro16voronoicell_base8verticesEdddRSt6vectorIdSaIdEE
libgmsh.so.4.8:_ZN4voro16voronoicell_base9init_baseEdddddd
libgmsh.so.4.8:_ZN4voro16voronoicell_base9translateEddd
libgmsh.so.4.8:_ZN4voro16voronoicell_baseC1Ev
libgmsh.so.4.8:_ZN4voro16voronoicell_baseC2Ev
libgmsh.so.4.8:_ZN4voro16voronoicell_baseD1Ev
libgmsh.so.4.8:_ZN4voro16voronoicell_baseD2Ev
libgmsh.so.4.8:_ZN4voro17voro_print_vectorERSt6vectorIdSaIdEEP8_IO_FILE
libgmsh.so.4.8:_ZN4voro17voro_print_vectorERSt6vectorIiSaIiEEP8_IO_FILE
libgmsh.so.4.8:_ZN4voro18container_periodic12print_customEPKcP8_IO_FILE
libgmsh.so.4.8:_ZN4voro18container_periodic12print_customEPKcS2_
libgmsh.so.4.8:_ZN4voro18container_periodic16sum_cell_volumesEv
libgmsh.so.4.8:_ZN4voro18container_periodic17compute_all_cellsEv
libgmsh.so.4.8:_ZN4voro18container_periodic17find_voronoi_cellEdddRdS1_S1_Ri
libgmsh.so.4.8:_ZN4voro18container_periodic3putERNS_14particle_orderEiddd
libgmsh.so.4.8:_ZN4voro18container_periodic3putEiddd
libgmsh.so.4.8:_ZN4voro18container_periodic3putEidddRiS1_S1_
libgmsh.so.4.8:_ZN4voro18container_periodic5clearEv
libgmsh.so.4.8:_ZN4voro18container_periodic6importEP8_IO_FILE
libgmsh.so.4.8:_ZN4voro18container_periodic6importERNS_14particle_orderEP8_IO_FILE
libgmsh.so.4.8:_ZN4voro18container_periodicC1Eddddddiiii
libgmsh.so.4.8:_ZN4voro18container_periodicC2Eddddddiiii
libgmsh.so.4.8:_ZN4voro18pre_container_base13guess_optimalERiS1_S1_
libgmsh.so.4.8:_ZN4voro18pre_container_base18extend_chunk_indexEv
libgmsh.so.4.8:_ZN4voro18pre_container_base9new_chunkEv
libgmsh.so.4.8:_ZN4voro18pre_container_baseC1Eddddddbbbi
libgmsh.so.4.8:_ZN4voro18pre_container_baseC2Eddddddbbbi
libgmsh.so.4.8:_ZN4voro18pre_container_baseD1Ev
libgmsh.so.4.8:_ZN4voro18pre_container_baseD2Ev
libgmsh.so.4.8:_ZN4voro18pre_container_poly3putEidddd
libgmsh.so.4.8:_ZN4voro18pre_container_poly5setupERNS_14container_polyE
libgmsh.so.4.8:_ZN4voro18pre_container_poly5setupERNS_14particle_orderERNS_14container_polyE
libgmsh.so.4.8:_ZN4voro18pre_container_poly6importEP8_IO_FILE
libgmsh.so.4.8:_ZN4voro20voronoicell_neighbor12check_facetsEv
libgmsh.so.4.8:_ZN4voro20voronoicell_neighbor15init_octahedronEd
libgmsh.so.4.8:_ZN4voro20voronoicell_neighbor16init_tetrahedronEdddddddddddd
libgmsh.so.4.8:_ZN4voro20voronoicell_neighbor21print_edges_neighborsEi
libgmsh.so.4.8:_ZN4voro20voronoicell_neighbor4initEdddddd
libgmsh.so.4.8:_ZN4voro20voronoicell_neighbor9neighborsERSt6vectorIiSaIiEE
libgmsh.so.4.8:_ZN4voro20voronoicell_neighborC1Ev
libgmsh.so.4.8:_ZN4voro20voronoicell_neighborC2Ev
libgmsh.so.4.8:_ZN4voro20voronoicell_neighborD0Ev
libgmsh.so.4.8:_ZN4voro20voronoicell_neighborD1Ev
libgmsh.so.4.8:_ZN4voro20voronoicell_neighborD2Ev
libgmsh.so.4.8:_ZN4voro20voronoicell_neighboraSERNS_11voronoicellE
libgmsh.so.4.8:_ZN4voro20voronoicell_neighboraSERS0_
libgmsh.so.4.8:_ZN4voro23container_periodic_base12region_countEv
libgmsh.so.4.8:_ZN4voro23container_periodic_base16put_locate_blockERiRdS2_S2_
libgmsh.so.4.8:_ZN4voro23container_periodic_base16put_locate_blockERiRdS2_S2_S1_S1_S1_
libgmsh.so.4.8:_ZN4voro23container_periodic_base17create_all_imagesEv
libgmsh.so.4.8:_ZN4voro23container_periodic_base17create_side_imageEiii
libgmsh.so.4.8:_ZN4voro23container_periodic_base19add_particle_memoryEi
libgmsh.so.4.8:_ZN4voro23container_periodic_base21create_vertical_imageEiii
libgmsh.so.4.8:_ZN4voro23container_periodic_base23check_compartmentalizedEv
libgmsh.so.4.8:_ZN4voro23container_periodic_base9put_imageEiiiddd
libgmsh.so.4.8:_ZN4voro23container_periodic_baseC1Eddddddiiiii
libgmsh.so.4.8:_ZN4voro23container_periodic_baseC2Eddddddiiiii
libgmsh.so.4.8:_ZN4voro23container_periodic_baseD1Ev
libgmsh.so.4.8:_ZN4voro23container_periodic_baseD2Ev
libgmsh.so.4.8:_ZN4voro23container_periodic_poly12print_customEPKcP8_IO_FILE
libgmsh.so.4.8:_ZN4voro23container_periodic_poly12print_customEPKcS2_
libgmsh.so.4.8:_ZN4voro23container_periodic_poly16sum_cell_volumesEv
libgmsh.so.4.8:_ZN4voro23container_periodic_poly17compute_all_cellsEv
libgmsh.so.4.8:_ZN4voro23container_periodic_poly17find_voronoi_cellEdddRdS1_S1_Ri
libgmsh.so.4.8:_ZN4voro23container_periodic_poly3putERNS_14particle_orderEidddd
libgmsh.so.4.8:_ZN4voro23container_periodic_poly3putEidddd
libgmsh.so.4.8:_ZN4voro23container_periodic_poly3putEiddddRiS1_S1_
libgmsh.so.4.8:_ZN4voro23container_periodic_poly5clearEv
libgmsh.so.4.8:_ZN4voro23container_periodic_poly6importEP8_IO_FILE
libgmsh.so.4.8:_ZN4voro23container_periodic_poly6importERNS_14particle_orderEP8_IO_FILE
libgmsh.so.4.8:_ZN4voro23container_periodic_polyC1Eddddddiiii
libgmsh.so.4.8:_ZN4voro23container_periodic_polyC2Eddddddiiii
libgmsh.so.4.8:_ZN4voro24voro_print_face_verticesERSt6vectorIiSaIiEEP8_IO_FILE
libgmsh.so.4.8:_ZN4voro8unitcell15draw_domain_povEP8_IO_FILE
libgmsh.so.4.8:_ZN4voro8unitcell16intersects_imageEdddRd
libgmsh.so.4.8:_ZN4voro8unitcell19draw_domain_gnuplotEP8_IO_FILE
libgmsh.so.4.8:_ZN4voro8unitcell19unit_voro_intersectEi
libgmsh.so.4.8:_ZN4voro8unitcell6imagesERSt6vectorIiSaIiEERS1_IdSaIdEE
libgmsh.so.4.8:_ZN4voro8unitcellC1Edddddd
libgmsh.so.4.8:_ZN4voro8unitcellC2Edddddd
libgmsh.so.4.8:_ZN4voro9container12print_customEPKcP8_IO_FILE
libgmsh.so.4.8:_ZN4voro9container12print_customEPKcS2_
libgmsh.so.4.8:_ZN4voro9container16sum_cell_volumesEv
libgmsh.so.4.8:_ZN4voro9container17compute_all_cellsEv
libgmsh.so.4.8:_ZN4voro9container17find_voronoi_cellEdddRdS1_S1_Ri
libgmsh.so.4.8:_ZN4voro9container3putERNS_14particle_orderEiddd
libgmsh.so.4.8:_ZN4voro9container3putEiddd
libgmsh.so.4.8:_ZN4voro9container5clearEv
libgmsh.so.4.8:_ZN4voro9container6importEP8_IO_FILE
libgmsh.so.4.8:_ZN4voro9container6importERNS_14particle_orderEP8_IO_FILE
libgmsh.so.4.8:_ZN4voro9containerC1Eddddddiiibbbi
libgmsh.so.4.8:_ZN4voro9containerC2Eddddddiiibbbi
libgmsh.so.4.8:_ZN4voro9voro_base15compute_minimumERdS1_S1_S1_S1_S1_S1_iii
libgmsh.so.4.8:_ZN4voro9voro_base17contains_neighborEPKc
libgmsh.so.4.8:_ZN4voro9voro_baseC1Eiiiddd
libgmsh.so.4.8:_ZN4voro9voro_baseC2Eiiiddd
libgmsh.so.4.8:_ZN4voro9wall_cone12point_insideEddd
libgmsh.so.4.8:_ZN4voro9wall_list10deallocateEv
libgmsh.so.4.8:_ZN4voro9wall_list20increase_wall_memoryEv
libgmsh.so.4.8:_ZN4voro9wall_list8add_wallERS0_
libgmsh.so.4.8:_ZN4voro9wall_listC1Ev
libgmsh.so.4.8:_ZN4voro9wall_listC2Ev
libgmsh.so.4.8:_ZN4voro9wall_listD1Ev
libgmsh.so.4.8:_ZN4voro9wall_listD2Ev
libgmsh.so.4.8:_ZN4xyzn5angleEiccc
libgmsh.so.4.8:_ZN4xyzn6updateEcccf
libgmsh.so.4.8:_ZN4xyzv12scale_updateEd
libgmsh.so.4.8:_ZN4xyzv6updateEiPd
libgmsh.so.4.8:_ZN4xyzvC1ERKS_
libgmsh.so.4.8:_ZN4xyzvC2ERKS_
libgmsh.so.4.8:_ZN4xyzvaSERKS_
libgmsh.so.4.8:_ZN5Field12putOnNewViewEi
libgmsh.so.4.8:_ZN5Field9getOptionERKNSt7__cxx1112basic_stringIcSt11char_traitsIcESaIcEEE
libgmsh.so.4.8:_ZN5Field9putOnViewEP5PViewi
libgmsh.so.4.8:_ZN5FieldD0Ev
libgmsh.so.4.8:_ZN5FieldD1Ev
libgmsh.so.4.8:_ZN5FieldD2Ev
libgmsh.so.4.8:_ZN5FlGui10addMessageEPKc
libgmsh.so.4.8:_ZN5FlGui10openModuleERKNSt7__cxx1112basic_stringIcSt11char_traitsIcESaIcEEE
libgmsh.so.4.8:_ZN5FlGui11rebuildTreeEb
libgmsh.so.4.8:_ZN5FlGui11setProgressERKNSt7__cxx1112basic_stringIcSt11char_traitsIcESaIcEEEddd
libgmsh.so.4.8:_ZN5FlGui11updateViewsEbb
libgmsh.so.4.8:_ZN5FlGui12saveMessagesEPKc
libgmsh.so.4.8:_ZN5FlGui12selectEntityEi
libgmsh.so.4.8:_ZN5FlGui12updateFieldsEv
libgmsh.so.4.8:_ZN5FlGui13setLastStatusEi
libgmsh.so.4.8:_ZN5FlGui15resetVisibilityEv
libgmsh.so.4.8:_ZN5FlGui15setGraphicTitleERKNSt7__cxx1112basic_stringIcSt11char_traitsIcESaIcEEE
libgmsh.so.4.8:_ZN5FlGui16applyColorSchemeEb
libgmsh.so.4.8:_ZN5FlGui18testArrowShortcutsEv
libgmsh.so.4.8:_ZN5FlGui19testGlobalShortcutsEi
libgmsh.so.4.8:_ZN5FlGui22getCurrentOpenglWindowEv
libgmsh.so.4.8:_ZN5FlGui22setCurrentOpenglWindowEi
libgmsh.so.4.8:_ZN5FlGui23storeCurrentWindowsInfoEv
libgmsh.so.4.8:_ZN5FlGui24splitCurrentOpenglWindowEcd
libgmsh.so.4.8:_ZN5FlGui25getOpenedThroughMacFinderB5cxx11Ev
libgmsh.so.4.8:_ZN5FlGui25setOpenedThroughMacFinderERKNSt7__cxx1112basic_stringIcSt11char_traitsIcESaIcEEE
libgmsh.so.4.8:_ZN5FlGui32getFinishedProcessingCommandLineEv
libgmsh.so.4.8:_ZN5FlGui32setFinishedProcessingCommandLineEv
libgmsh.so.4.8:_ZN5FlGui34copyCurrentOpenglWindowToClipboardEv
libgmsh.so.4.8:_ZN5FlGui3runEv
libgmsh.so.4.8:_ZN5FlGui4lockEv
libgmsh.so.4.8:_ZN5FlGui4waitEb
libgmsh.so.4.8:_ZN5FlGui4waitEdb
libgmsh.so.4.8:_ZN5FlGui5awakeERKNSt7__cxx1112basic_stringIcSt11char_traitsIcESaIcEEE
libgmsh.so.4.8:_ZN5FlGui5checkEb
libgmsh.so.4.8:_ZN5FlGui6lockedEv
libgmsh.so.4.8:_ZN5FlGui6unlockEv
libgmsh.so.4.8:_ZN5FlGui7destroyEv
libgmsh.so.4.8:_ZN5FlGui8instanceEiPPcbPFvPKczE
libgmsh.so.4.8:_ZN5FlGui9availableEv
libgmsh.so.4.8:_ZN5FlGui9setStatusERKNSt7__cxx1112basic_stringIcSt11char_traitsIcESaIcEEEb
libgmsh.so.4.8:_ZN5FlGuiC1EiPPcbPFvPKczE
libgmsh.so.4.8:_ZN5FlGuiC2EiPPcbPFvPKczE
libgmsh.so.4.8:_ZN5FlGuiD1Ev
libgmsh.so.4.8:_ZN5FlGuiD2Ev
libgmsh.so.4.8:_ZN5GEdge10addElementEiP8MElement
libgmsh.so.4.8:_ZN5GEdge10deleteMeshEv
libgmsh.so.4.8:_ZN5GEdge10discretizeEdRSt6vectorI7SPoint3SaIS1_EERS0_IdSaIdEE
libgmsh.so.4.8:_ZN5GEdge13removeElementEiP8MElement
libgmsh.so.4.8:_ZN5GEdge13setMeshMasterEPS_RKSt6vectorIdSaIdEE
libgmsh.so.4.8:_ZN5GEdge13setMeshMasterEPS_i
libgmsh.so.4.8:_ZN5GEdge13setVisibilityEcb
libgmsh.so.4.8:_ZN5GEdge19closestPointWithTolER7SPoint3d
libgmsh.so.4.8:_ZN5GEdge19resetMeshAttributesEv
libgmsh.so.4.8:_ZN5GEdge20relocateMeshVerticesEv
libgmsh.so.4.8:_ZN5GEdge21setMeshSizeParametricESt6vectorIdSaIdEES2_
libgmsh.so.4.8:_ZN5GEdge23getAdditionalInfoStringB5cxx11Eb
libgmsh.so.4.8:_ZN5GEdge24getNumMeshParentElementsEv
libgmsh.so.4.8:_ZN5GEdge25prescribedMeshSizeAtParamEd
libgmsh.so.4.8:_ZN5GEdge4meshEb
libgmsh.so.4.8:_ZN5GEdge6boundsEb
libgmsh.so.4.8:_ZN5GEdge6getOBBEv
libgmsh.so.4.8:_ZN5GEdge6lengthERKdS1_i
libgmsh.so.4.8:_ZN5GEdge7addFaceEP5GFace
libgmsh.so.4.8:_ZN5GEdge7delFaceEP5GFace
libgmsh.so.4.8:_ZN5GEdge7reorderEiRKSt6vectorImSaImEE
libgmsh.so.4.8:_ZN5GEdge7reverseEv
libgmsh.so.4.8:_ZN5GEdge8setColorEjb
libgmsh.so.4.8:_ZN5GEdge8writeGEOEP8_IO_FILE
libgmsh.so.4.8:_ZN5GEdgeC1EP6GModeli
libgmsh.so.4.8:_ZN5GEdgeC1EP6GModeliP7GVertexS3_
libgmsh.so.4.8:_ZN5GEdgeC2EP6GModeli
libgmsh.so.4.8:_ZN5GEdgeC2EP6GModeliP7GVertexS3_
libgmsh.so.4.8:_ZN5GEdgeD0Ev
libgmsh.so.4.8:_ZN5GEdgeD1Ev
libgmsh.so.4.8:_ZN5GEdgeD2Ev
libgmsh.so.4.8:_ZN5GFace10addElementEiP8MElement
libgmsh.so.4.8:_ZN5GFace10deleteMeshEv
libgmsh.so.4.8:_ZN5GFace13containsParamERK7SPoint2
libgmsh.so.4.8:_ZN5GFace13removeElementEiP8MElement
libgmsh.so.4.8:_ZN5GFace13setBoundEdgesERKSt6vectorIiSaIiEE
libgmsh.so.4.8:_ZN5GFace13setBoundEdgesERKSt6vectorIiSaIiEES4_
libgmsh.so.4.8:_ZN5GFace13setMeshMasterEPS_RKSt3mapIiiSt4lessIiESaISt4pairIKiiEEE
libgmsh.so.4.8:_ZN5GFace13setMeshMasterEPS_RKSt6vectorIdSaIdEE
libgmsh.so.4.8:_ZN5GFace13setVisibilityEcb
libgmsh.so.4.8:_ZN5GFace14fillPointCloudEdPSt6vectorI7SPoint3SaIS1_EEPS0_I7SPoint2SaIS5_EEPS0_I8SVector3SaIS9_EE
libgmsh.so.4.8:_ZN5GFace15fillVertexArrayEb
libgmsh.so.4.8:_ZN5GFace15isFullyDiscreteEv
libgmsh.so.4.8:_ZN5GFace16computeMeanPlaneERKSt6vectorI7SPoint3SaIS1_EE
libgmsh.so.4.8:_ZN5GFace16computeMeanPlaneERKSt6vectorIP7MVertexSaIS2_EE
libgmsh.so.4.8:_ZN5GFace16computeMeanPlaneEv
libgmsh.so.4.8:_ZN5GFace19getMetricEigenvalueERK7SPoint2
libgmsh.so.4.8:_ZN5GFace19resetMeshAttributesEv
libgmsh.so.4.8:_ZN5GFace20relocateMeshVerticesEv
libgmsh.so.4.8:_ZN5GFace21buildSTLTriangulationEb
libgmsh.so.4.8:_ZN5GFace23alignElementsWithMasterEv
libgmsh.so.4.8:_ZN5GFace23getAdditionalInfoStringB5cxx11Eb
libgmsh.so.4.8:_ZN5GFace24buildRepresentationCrossEb
libgmsh.so.4.8:_ZN5GFace24getNumMeshParentElementsEv
libgmsh.so.4.8:_ZN5GFace28computeMeshSizeFieldAccuracyERdS0_S0_RiS1_
libgmsh.so.4.8:_ZN5GFace4meshEb
libgmsh.so.4.8:_ZN5GFace6boundsEb
libgmsh.so.4.8:_ZN5GFace6getOBBEv
libgmsh.so.4.8:_ZN5GFace7delEdgeEP5GEdge
libgmsh.so.4.8:_ZN5GFace7reorderEiRKSt6vectorImSaImEE
libgmsh.so.4.8:_ZN5GFace8setColorEjb
libgmsh.so.4.8:_ZN5GFace8writeGEOEP8_IO_FILE
libgmsh.so.4.8:_ZN5GFaceC1EP6GModeli
libgmsh.so.4.8:_ZN5GFaceC2EP6GModeli
libgmsh.so.4.8:_ZN5GFaceD0Ev
libgmsh.so.4.8:_ZN5GFaceD1Ev
libgmsh.so.4.8:_ZN5GFaceD2Ev
libgmsh.so.4.8:_ZN5MFace25getOrientationFlagForFaceERSt6vectorIiSaIiEE
libgmsh.so.4.8:_ZN5MFaceC1EP7MVertexS1_S1_S1_
libgmsh.so.4.8:_ZN5MFaceC1ERKSt6vectorIP7MVertexSaIS2_EE
libgmsh.so.4.8:_ZN5MFaceC2EP7MVertexS1_S1_S1_
libgmsh.so.4.8:_ZN5MFaceC2ERKSt6vectorIP7MVertexSaIS2_EE
libgmsh.so.4.8:_ZN5MLine10discretizeEdRSt6vectorI7SPoint3SaIS1_EERS0_IdSaIdEE
libgmsh.so.4.8:_ZN5MLine14getInnerRadiusEv
libgmsh.so.4.8:_ZN5MLine20getIntegrationPointsEiPiPP5IntPt
libgmsh.so.4.8:_ZN5MLine9getLengthEv
libgmsh.so.4.8:_ZN5MLine9getVolumeEv
libgmsh.so.4.8:_ZN5MTri3C1EP9MTriangledP8SMetric3P13bidimMeshDataP5GFace
libgmsh.so.4.8:_ZN5MTri3C2EP9MTriangledP8SMetric3P13bidimMeshDataP5GFace
libgmsh.so.4.8:_ZN5Mesh2C1EPKc
libgmsh.so.4.8:_ZN5Mesh2C2EPKc
libgmsh.so.4.8:_ZN5OLMsg10SetVisibleENSt7__cxx1112basic_stringIcSt11char_traitsIcESaIcEEEb
libgmsh.so.4.8:_ZN5OLMsg14FinalizeOnelabEv
libgmsh.so.4.8:_ZN5OLMsg14obtainFullNameERKNSt7__cxx1112basic_stringIcSt11char_traitsIcESaIcEEE
libgmsh.so.4.8:_ZN5OLMsg14recordFullNameERKNSt7__cxx1112basic_stringIcSt11char_traitsIcESaIcEEE
libgmsh.so.4.8:_ZN5OLMsg15GetOnelabNumberENSt7__cxx1112basic_stringIcSt11char_traitsIcESaIcEEE
libgmsh.so.4.8:_ZN5OLMsg15GetOnelabNumberENSt7__cxx1112basic_stringIcSt11char_traitsIcESaIcEEEPd
libgmsh.so.4.8:_ZN5OLMsg15GetOnelabStringENSt7__cxx1112basic_stringIcSt11char_traitsIcESaIcEEE
libgmsh.so.4.8:_ZN5OLMsg15SetOnelabNumberENSt7__cxx1112basic_stringIcSt11char_traitsIcESaIcEEEdb
libgmsh.so.4.8:_ZN5OLMsg15SetOnelabStringENSt7__cxx1112basic_stringIcSt11char_traitsIcESaIcEEES5_b
libgmsh.so.4.8:_ZN5OLMsg16GetOnelabChoicesENSt7__cxx1112basic_stringIcSt11char_traitsIcESaIcEEERSt6vectorIS5_SaIS5_EE
libgmsh.so.4.8:_ZN5OLMsg16InitializeOnelabERKNSt7__cxx1112basic_stringIcSt11char_traitsIcESaIcEEE
libgmsh.so.4.8:_ZN5OLMsg18GetGuiWaitFunctionEv
libgmsh.so.4.8:_ZN5OLMsg18SetGuiWaitFunctionEPFvdE
libgmsh.so.4.8:_ZN5OLMsg24GetOnelabAttributeNumberENSt7__cxx1112basic_stringIcSt11char_traitsIcESaIcEEES5_
libgmsh.so.4.8:_ZN5OLMsg24GetOnelabAttributeStringENSt7__cxx1112basic_stringIcSt11char_traitsIcESaIcEEES5_
libgmsh.so.4.8:_ZN5OLMsg24SetOnelabAttributeStringENSt7__cxx1112basic_stringIcSt11char_traitsIcESaIcEEES5_S5_
libgmsh.so.4.8:_ZN5OLMsg4ExitEi
libgmsh.so.4.8:_ZN5OLMsg4InfoEPKcz
libgmsh.so.4.8:_ZN5OLMsg4InitEiPPc
libgmsh.so.4.8:_ZN5OLMsg5ErrorEPKcz
libgmsh.so.4.8:_ZN5OLMsg5FatalEPKcz
libgmsh.so.4.8:_ZN5OLMsg6DirectEPKcz
libgmsh.so.4.8:_ZN5OLMsg6DirectEiPKcz
libgmsh.so.4.8:_ZN5OLMsg7WarningEPKcz
libgmsh.so.4.8:_ZN5OLMsg9MergeFileERKNSt7__cxx1112basic_stringIcSt11char_traitsIcESaIcEEE
libgmsh.so.4.8:_ZN5OLMsg9StatusBarEibPKcz
libgmsh.so.4.8:_ZN5PView10setChangedEb
libgmsh.so.4.8:_ZN5PView10setOptionsEP12PViewOptions
libgmsh.so.4.8:_ZN5PView10sortByNameEv
libgmsh.so.4.8:_ZN5PView10writeAdaptERKNSt7__cxx1112basic_stringIcSt11char_traitsIcESaIcEEEibidib
libgmsh.so.4.8:_ZN5PView12getGlobalTagEv
libgmsh.so.4.8:_ZN5PView12getViewByTagEiii
libgmsh.so.4.8:_ZN5PView12sendToServerERKNSt7__cxx1112basic_stringIcSt11char_traitsIcESaIcEEE
libgmsh.so.4.8:_ZN5PView12setGlobalTagEi
libgmsh.so.4.8:_ZN5PView13getMemoryInMbEv
libgmsh.so.4.8:_ZN5PView13getViewByNameERKNSt7__cxx1112basic_stringIcSt11char_traitsIcESaIcEEEiiS7_
libgmsh.so.4.8:_ZN5PView15fillVertexArrayEPN6onelab18localNetworkClientEiPKci
libgmsh.so.4.8:_ZN5PView16fillVertexArraysEv
libgmsh.so.4.8:_ZN5PView17getViewByFileNameERKNSt7__cxx1112basic_stringIcSt11char_traitsIcESaIcEEEii
libgmsh.so.4.8:_ZN5PView18deleteVertexArraysEv
libgmsh.so.4.8:_ZN5PView5_initEi
libgmsh.so.4.8:_ZN5PView5writeERKNSt7__cxx1112basic_stringIcSt11char_traitsIcESaIcEEEib
libgmsh.so.4.8:_ZN5PView7addStepEP6GModelRKSt3mapIiSt6vectorIdSaIdEESt4lessIiESaISt4pairIKiS5_EEEdi
libgmsh.so.4.8:_ZN5PView7addStepERSt6vectorIdSaIdEE
libgmsh.so.4.8:_ZN5PView7combineEbibb
libgmsh.so.4.8:_ZN5PView7getDataEb
libgmsh.so.4.8:_ZN5PView7readMEDERKNSt7__cxx1112basic_stringIcSt11char_traitsIcESaIcEEEi
libgmsh.so.4.8:_ZN5PView7readMSHERKNSt7__cxx1112basic_stringIcSt11char_traitsIcESaIcEEEii
libgmsh.so.4.8:_ZN5PView7readPCHERKNSt7__cxx1112basic_stringIcSt11char_traitsIcESaIcEEEi
libgmsh.so.4.8:_ZN5PView7readPOSERKNSt7__cxx1112basic_stringIcSt11char_traitsIcESaIcEEEi
libgmsh.so.4.8:_ZN5PView8readCGNSERKSt6vectorIS0_IP7MVertexSaIS2_EESaIS4_EERKS0_IS0_IP8MElementSaISA_EESaISC_EERKNSt7__cxx1112basic_stringIcSt11char_traitsIcESaIcEEE
libgmsh.so.4.8:_ZN5PView8writeX3DERKNSt7__cxx1112basic_stringIcSt11char_traitsIcESaIcEEE
libgmsh.so.4.8:_ZN5PViewC1EP9PViewDatai
libgmsh.so.4.8:_ZN5PViewC1EPS_bi
libgmsh.so.4.8:_ZN5PViewC1ERKNSt7__cxx1112basic_stringIcSt11char_traitsIcESaIcEEERSt6vectorIdSaIdEESB_SB_SB_
libgmsh.so.4.8:_ZN5PViewC1ERKNSt7__cxx1112basic_stringIcSt11char_traitsIcESaIcEEES7_P6GModelRSt3mapIiSt6vectorIdSaIdEESt4lessIiESaISt4pairIKiSD_EEEdii
libgmsh.so.4.8:_ZN5PViewC1ERKNSt7__cxx1112basic_stringIcSt11char_traitsIcESaIcEEES7_RSt6vectorIdSaIdEESB_
libgmsh.so.4.8:_ZN5PViewC1Ei
libgmsh.so.4.8:_ZN5PViewC2EP9PViewDatai
libgmsh.so.4.8:_ZN5PViewC2EPS_bi
libgmsh.so.4.8:_ZN5PViewC2ERKNSt7__cxx1112basic_stringIcSt11char_traitsIcESaIcEEERSt6vectorIdSaIdEESB_SB_SB_
libgmsh.so.4.8:_ZN5PViewC2ERKNSt7__cxx1112basic_stringIcSt11char_traitsIcESaIcEEES7_P6GModelRSt3mapIiSt6vectorIdSaIdEESt4lessIiESaISt4pairIKiSD_EEEdii
libgmsh.so.4.8:_ZN5PViewC2ERKNSt7__cxx1112basic_stringIcSt11char_traitsIcESaIcEEES7_RSt6vectorIdSaIdEESB_
libgmsh.so.4.8:_ZN5PViewC2Ei
libgmsh.so.4.8:_ZN5PViewD1Ev
libgmsh.so.4.8:_ZN5PViewD2Ev
libgmsh.so.4.8:_ZN5Patch10updateMeshEPKd
libgmsh.so.4.8:_ZN5Patch11addFreeVertEP7MVertexiiP11VertexCoordRSt3setIS1_St4lessIS1_ESaIS1_EE
libgmsh.so.4.8:_ZN5Patch12initIdealJacEv
libgmsh.so.4.8:_ZN5Patch13initMetricMinEv
libgmsh.so.4.8:_ZN5Patch13initScaledJacEv
libgmsh.so.4.8:_ZN5Patch14calcNormalEl2DEiNS_13NormalScalingER10fullMatrixIdEb
libgmsh.so.4.8:_ZN5Patch14initInvCondNumEv
libgmsh.so.4.8:_ZN5Patch16scaledNodeDispSqEi
libgmsh.so.4.8:_ZN5Patch19bndDistAndGradientsEiRdRSt6vectorIdSaIdEEd
libgmsh.so.4.8:_ZN5Patch19initScaledCADDistSqEd
libgmsh.so.4.8:_ZN5Patch20gradScaledNodeDispSqEiRSt6vectorIdSaIdEE
libgmsh.so.4.8:_ZN5Patch20idealJacAndGradientsEiRSt6vectorIdSaIdEES3_
libgmsh.so.4.8:_ZN5Patch20initScaledNodeDispSqENS_13LengthScalingE
libgmsh.so.4.8:_ZN5Patch21metricMinAndGradientsEiRSt6vectorIdSaIdEES3_
libgmsh.so.4.8:_ZN5Patch21scaledJacAndGradientsEiRSt6vectorIdSaIdEES3_
libgmsh.so.4.8:_ZN5Patch22invCondNumAndGradientsEiRSt6vectorIdSaIdEES3_
libgmsh.so.4.8:_ZN5Patch22updateGEntityPositionsEv
libgmsh.so.4.8:_ZN5Patch27scaledCADDistSqAndGradientsEiRdRSt6vectorIdSaIdEE
libgmsh.so.4.8:_ZN5Patch6getUvwEPd
libgmsh.so.4.8:_ZN5Patch7addVertEP7MVertex
libgmsh.so.4.8:_ZN5Patch7pcScaleEiRSt6vectorIdSaIdEE
libgmsh.so.4.8:_ZN5Patch8writeMSHEPKc
libgmsh.so.4.8:_ZN5PatchC1ERKSt3mapIP8MElementP7GEntitySt4lessIS2_ESaISt4pairIKS2_S4_EEESD_RKSt3setIS2_S6_SaIS2_EERSE_IP7MVertexS5_ISK_ESaISK_EESI_b
libgmsh.so.4.8:_ZN5PatchC2ERKSt3mapIP8MElementP7GEntitySt4lessIS2_ESaISt4pairIKS2_S4_EEESD_RKSt3setIS2_S6_SaIS2_EERSE_IP7MVertexS5_ISK_ESaISK_EESI_b
libgmsh.so.4.8:_ZN5Prism11set_qualityEd
libgmsh.so.4.8:_ZN5Prism12set_verticesEP7MVertexS1_S1_S1_S1_S1_
libgmsh.so.4.8:_ZN5Prism5get_aEv
libgmsh.so.4.8:_ZN5Prism5get_bEv
libgmsh.so.4.8:_ZN5Prism5get_cEv
libgmsh.so.4.8:_ZN5Prism5get_dEv
libgmsh.so.4.8:_ZN5Prism5get_eEv
libgmsh.so.4.8:_ZN5Prism5get_fEv
libgmsh.so.4.8:_ZN5PrismC1EP7MVertexS1_S1_S1_S1_S1_
libgmsh.so.4.8:_ZN5PrismC1Ev
libgmsh.so.4.8:_ZN5PrismC2EP7MVertexS1_S1_S1_S1_S1_
libgmsh.so.4.8:_ZN5PrismC2Ev
libgmsh.so.4.8:_ZN5PrismD1Ev
libgmsh.so.4.8:_ZN5PrismD2Ev
libgmsh.so.4.8:_ZN5nglib10Ng_NewMeshEv
libgmsh.so.4.8:_ZN5nglib11Ng_AddPointEPPvPd
libgmsh.so.4.8:_ZN5nglib11Ng_GetPointEPPviPd
libgmsh.so.4.8:_ZN5nglib13Ng_DeleteMeshEPPv
libgmsh.so.4.8:_ZN5nglib19Ng_AddVolumeElementEPPvNS_22Ng_Volume_Element_TypeEPi
libgmsh.so.4.8:_ZN5nglib19Ng_GetVolumeElementEPPviPi
libgmsh.so.4.8:_ZN5nglib20Ng_AddSurfaceElementEPPvNS_23Ng_Surface_Element_TypeEPi
libgmsh.so.4.8:_ZN5nglib21Ng_GenerateVolumeMeshEPPvPNS_21Ng_Meshing_ParametersE
libgmsh.so.4.8:_ZN5nglib21Ng_GenerateVolumeMeshEPPvd
libgmsh.so.4.8:_ZN5nglib21Ng_Meshing_Parameters16Reset_ParametersEv
libgmsh.so.4.8:_ZN5nglib21Ng_Meshing_Parameters19Transfer_ParametersEv
libgmsh.so.4.8:_ZN5nglib21Ng_Meshing_ParametersC1Ev
libgmsh.so.4.8:_ZN5nglib21Ng_Meshing_ParametersC2Ev
libgmsh.so.4.8:_ZN5nglib21Ng_OptimizeVolumeMeshEPPvd
libgmsh.so.4.8:_ZN5nglib7Ng_ExitEv
libgmsh.so.4.8:_ZN5nglib7Ng_InitEv
libgmsh.so.4.8:_ZN5nglib8Ng_GetNEEPPv
libgmsh.so.4.8:_ZN5nglib8Ng_GetNPEPPv
libgmsh.so.4.8:_ZN5smlib6mathex10addstdfuncEv
libgmsh.so.4.8:_ZN5smlib6mathex10getunaryopERKNSt7__cxx1112basic_stringIcSt11char_traitsIcESaIcEEE
libgmsh.so.4.8:_ZN5smlib6mathex11getuserfuncERKNSt7__cxx1112basic_stringIcSt11char_traitsIcESaIcEEE
libgmsh.so.4.8:_ZN5smlib6mathex13getidentifierERNSt7__cxx1112basic_stringIcSt11char_traitsIcESaIcEEE
libgmsh.so.4.8:_ZN5smlib6mathex14isnewvalidnameERKNSt7__cxx1112basic_stringIcSt11char_traitsIcESaIcEEE
libgmsh.so.4.8:_ZN5smlib6mathex16parsearithmetic1Ev
libgmsh.so.4.8:_ZN5smlib6mathex16parsearithmetic2Ev
libgmsh.so.4.8:_ZN5smlib6mathex16parsearithmetic3Ev
libgmsh.so.4.8:_ZN5smlib6mathex16parsearithmetic4Ev
libgmsh.so.4.8:_ZN5smlib6mathex4evalEv
libgmsh.so.4.8:_ZN5smlib6mathex5parseEv
libgmsh.so.4.8:_ZN5smlib6mathex5resetEv
libgmsh.so.4.8:_ZN5smlib6mathex6addvarERKNSt7__cxx1112basic_stringIcSt11char_traitsIcESaIcEEEPd
libgmsh.so.4.8:_ZN5smlib6mathex6delvarERKNSt7__cxx1112basic_stringIcSt11char_traitsIcESaIcEEE
libgmsh.so.4.8:_ZN5smlib6mathex6getvarERKNSt7__cxx1112basic_stringIcSt11char_traitsIcESaIcEEE
libgmsh.so.4.8:_ZN5smlib6mathex7addfuncERKNSt7__cxx1112basic_stringIcSt11char_traitsIcESaIcEEEPFdRKSt6vectorIdSaIdEEEi
libgmsh.so.4.8:_ZN5smlib6mathex7delfuncERKNSt7__cxx1112basic_stringIcSt11char_traitsIcESaIcEEE
libgmsh.so.4.8:_ZN5smlib6mathex8getbinopEc
libgmsh.so.4.8:_ZN5smlib6mathex8getcfuncERKNSt7__cxx1112basic_stringIcSt11char_traitsIcESaIcEEE
libgmsh.so.4.8:_ZN5smlib6mathex8getconstERKNSt7__cxx1112basic_stringIcSt11char_traitsIcESaIcEEE
libgmsh.so.4.8:_ZN5smlib6mathex9getnumberERd
libgmsh.so.4.8:_ZN5smlib6mathex9nexttokenEv
libgmsh.so.4.8:_ZN5smlib6mathex9parseatomEv
libgmsh.so.4.8:_ZN6Camera12tiltHeadLeftEv
libgmsh.so.4.8:_ZN6Camera13move_and_lookEdddddddd
libgmsh.so.4.8:_ZN6Camera13tiltHeadRightEv
libgmsh.so.4.8:_ZN6Camera21giveViewportDimensionERKiS1_
libgmsh.so.4.8:_ZN6Camera3upXEv
libgmsh.so.4.8:_ZN6Camera3upYEv
libgmsh.so.4.8:_ZN6Camera3upZEv
libgmsh.so.4.8:_ZN6Camera4initEv
libgmsh.so.4.8:_ZN6Camera4zoomERd
libgmsh.so.4.8:_ZN6Camera6alongXEv
libgmsh.so.4.8:_ZN6Camera6alongYEv
libgmsh.so.4.8:_ZN6Camera6alongZEv
libgmsh.so.4.8:_ZN6Camera6moveUpERd
libgmsh.so.4.8:_ZN6Camera6rotateEPd
libgmsh.so.4.8:_ZN6Camera6updateEv
libgmsh.so.4.8:_ZN6Camera7afficheEv
libgmsh.so.4.8:_ZN6Camera8lookAtCgEv
libgmsh.so.4.8:_ZN6Camera9moveRightERd
libgmsh.so.4.8:_ZN6CameraC1Ev
libgmsh.so.4.8:_ZN6CameraC2Ev
libgmsh.so.4.8:_ZN6CameraD1Ev
libgmsh.so.4.8:_ZN6CameraD2Ev
libgmsh.so.4.8:_ZN6Filler10get_metricEddd
libgmsh.so.4.8:_ZN6Filler10get_metricEdddP7GEntity
libgmsh.so.4.8:_ZN6Filler10print_nodeEP4NodeRSt14basic_ofstreamIcSt11char_traitsIcEE
libgmsh.so.4.8:_ZN6Filler11improvementEP7GEntityP14MElementOctreeRK7SPoint3dRK8SVector3
libgmsh.so.4.8:_ZN6Filler11treat_modelEv
libgmsh.so.4.8:_ZN6Filler12treat_regionEP7GRegion
libgmsh.so.4.8:_ZN6Filler13create_spawnsEP7GEntityP14MElementOctreeP4NodeRSt6vectorIS5_SaIS5_EE
libgmsh.so.4.8:_ZN6Filler13inside_domainEP14MElementOctreeddd
libgmsh.so.4.8:_ZN6Filler13print_segmentERK7SPoint3S2_RSt14basic_ofstreamIcSt11char_traitsIcEE
libgmsh.so.4.8:_ZN6Filler14get_new_vertexEi
libgmsh.so.4.8:_ZN6Filler17far_from_boundaryEP14MElementOctreeP4Node
libgmsh.so.4.8:_ZN6Filler18compute_parametersEP4NodeP7GEntity
libgmsh.so.4.8:_ZN6Filler20get_nbr_new_verticesEv
libgmsh.so.4.8:_ZN6Filler4codeEi
libgmsh.so.4.8:_ZN6Filler8get_sizeEddd
libgmsh.so.4.8:_ZN6Filler8get_sizeEdddP7GEntity
libgmsh.so.4.8:_ZN6FillerC1Ev
libgmsh.so.4.8:_ZN6FillerC2Ev
libgmsh.so.4.8:_ZN6FillerD1Ev
libgmsh.so.4.8:_ZN6FillerD2Ev
libgmsh.so.4.8:_ZN6GModel10_writeMSH2ERKNSt7__cxx1112basic_stringIcSt11char_traitsIcESaIcEEEdbbbdiibb
libgmsh.so.4.8:_ZN6GModel10_writeMSH3ERKNSt7__cxx1112basic_stringIcSt11char_traitsIcESaIcEEEdbbbdiib
libgmsh.so.4.8:_ZN6GModel10_writeMSH4ERKNSt7__cxx1112basic_stringIcSt11char_traitsIcESaIcEEEdbbbdb
libgmsh.so.4.8:_ZN6GModel10deleteMeshERKSt6vectorIP7GEntitySaIS2_EE
libgmsh.so.4.8:_ZN6GModel10deleteMeshEv
libgmsh.so.4.8:_ZN6GModel10findByNameERKNSt7__cxx1112basic_stringIcSt11char_traitsIcESaIcEEES7_
libgmsh.so.4.8:_ZN6GModel10readACTRANERKNSt7__cxx1112basic_stringIcSt11char_traitsIcESaIcEEE
libgmsh.so.4.8:_ZN6GModel10readSAMCEFERKNSt7__cxx1112basic_stringIcSt11char_traitsIcESaIcEEE
libgmsh.so.4.8:_ZN6GModel10refineMeshEibbb
libgmsh.so.4.8:_ZN6GModel10setCurrentEPS_
libgmsh.so.4.8:_ZN6GModel10storeChainEiRSt3mapIiSt6vectorIP8MElementSaIS3_EESt4lessIiESaISt4pairIKiS5_EEERS0_IiS0_IiNSt7__cxx1112basic_stringIcSt11char_traitsIcESaIcEEES7_SaIS8_IS9_SJ_EEES7_SaIS8_IS9_SM_EEE
libgmsh.so.4.8:_ZN6GModel10writeCELUMERKNSt7__cxx1112basic_stringIcSt11char_traitsIcESaIcEEEbd
libgmsh.so.4.8:_ZN6GModel11readACISSATERKNSt7__cxx1112basic_stringIcSt11char_traitsIcESaIcEEE
libgmsh.so.4.8:_ZN6GModel11readOCCBREPERKNSt7__cxx1112basic_stringIcSt11char_traitsIcESaIcEEE
libgmsh.so.4.8:_ZN6GModel11readOCCIGESERKNSt7__cxx1112basic_stringIcSt11char_traitsIcESaIcEEE
libgmsh.so.4.8:_ZN6GModel11readOCCSTEPERKNSt7__cxx1112basic_stringIcSt11char_traitsIcESaIcEEE
libgmsh.so.4.8:_ZN6GModel11setFileNameERKNSt7__cxx1112basic_stringIcSt11char_traitsIcESaIcEEE
libgmsh.so.4.8:_ZN6GModel11writeMATLABERKNSt7__cxx1112basic_stringIcSt11char_traitsIcESaIcEEEbbdi
libgmsh.so.4.8:_ZN6GModel12optimizeMeshERKNSt7__cxx1112basic_stringIcSt11char_traitsIcESaIcEEEbi
libgmsh.so.4.8:_ZN6GModel12setSelectionEi
libgmsh.so.4.8:_ZN6GModel12snapVerticesEv
libgmsh.so.4.8:_ZN6GModel12writeOCCBREPERKNSt7__cxx1112basic_stringIcSt11char_traitsIcESaIcEEE
libgmsh.so.4.8:_ZN6GModel12writeOCCSTEPERKNSt7__cxx1112basic_stringIcSt11char_traitsIcESaIcEEE
libgmsh.so.4.8:_ZN6GModel12writeTOCHNOGERKNSt7__cxx1112basic_stringIcSt11char_traitsIcESaIcEEEbbd
libgmsh.so.4.8:_ZN6GModel13getMeshStatusEb
libgmsh.so.4.8:_ZN6GModel13partitionMeshEi
libgmsh.so.4.8:_ZN6GModel13recombineMeshEv
libgmsh.so.4.8:_ZN6GModel14buildCutGModelEP9gLevelsetbb
libgmsh.so.4.8:_ZN6GModel14importOCCShapeEPKv
libgmsh.so.4.8:_ZN6GModel15computeHomologyEv
libgmsh.so.4.8:_ZN6GModel15getBoundaryTagsERKSt6vectorISt4pairIiiESaIS2_EERS4_bbb
libgmsh.so.4.8:_ZN6GModel15setPhysicalNameERKNSt7__cxx1112basic_stringIcSt11char_traitsIcESaIcEEEii
libgmsh.so.4.8:_ZN6GModel15setPhysicalNameESt17_Rb_tree_iteratorISt4pairIKS1_IiiENSt7__cxx1112basic_stringIcSt11char_traitsIcESaIcEEEEERKS9_ii
libgmsh.so.4.8:_ZN6GModel15unpartitionMeshEv
libgmsh.so.4.8:_ZN6GModel16addPhysicalGroupEiiRKSt6vectorIiSaIiEE
libgmsh.so.4.8:_ZN6GModel16classifySurfacesEdbbd
libgmsh.so.4.8:_ZN6GModel16computeSizeFieldEv
libgmsh.so.4.8:_ZN6GModel16fillVertexArraysEv
libgmsh.so.4.8:_ZN6GModel16noPhysicalGroupsEv
libgmsh.so.4.8:_ZN6GModel16readParasolidXMTERKNSt7__cxx1112basic_stringIcSt11char_traitsIcESaIcEEE
libgmsh.so.4.8:_ZN6GModel17destroyMeshCachesEv
libgmsh.so.4.8:_ZN6GModel17getElementaryNameB5cxx11Eii
libgmsh.so.4.8:_ZN6GModel17getPhysicalNumberERKiRKNSt7__cxx1112basic_stringIcSt11char_traitsIcESaIcEEE
libgmsh.so.4.8:_ZN6GModel17indexMeshVerticesEbib
libgmsh.so.4.8:_ZN6GModel17readParasolidSTEPERKNSt7__cxx1112basic_stringIcSt11char_traitsIcESaIcEEE
libgmsh.so.4.8:_ZN6GModel17resetOCCInternalsEv
libgmsh.so.4.8:_ZN6GModel17writeParasolidXMTERKNSt7__cxx1112basic_stringIcSt11char_traitsIcESaIcEEE
libgmsh.so.4.8:_ZN6GModel18addHomologyRequestERKNSt7__cxx1112basic_stringIcSt11char_traitsIcESaIcEEERKSt6vectorIiSaIiEESC_SC_
libgmsh.so.4.8:_ZN6GModel18checkMeshCoherenceEd
libgmsh.so.4.8:_ZN6GModel18createGEOInternalsEv
libgmsh.so.4.8:_ZN6GModel18createOCCInternalsEv
libgmsh.so.4.8:_ZN6GModel18deleteGEOInternalsEv
libgmsh.so.4.8:_ZN6GModel18deleteOCCInternalsEv
libgmsh.so.4.8:_ZN6GModel18deleteVertexArraysEv
libgmsh.so.4.8:_ZN6GModel18getEdgeForOCCShapeEPKv
libgmsh.so.4.8:_ZN6GModel18getFaceForOCCShapeEPKv
libgmsh.so.4.8:_ZN6GModel18getMeshVertexByTagEi
libgmsh.so.4.8:_ZN6GModel18getNumMeshElementsEPj
libgmsh.so.4.8:_ZN6GModel18removePhysicalNameERKNSt7__cxx1112basic_stringIcSt11char_traitsIcESaIcEEE
libgmsh.so.4.8:_ZN6GModel18writeParasolidSTEPERKNSt7__cxx1112basic_stringIcSt11char_traitsIcESaIcEEE
libgmsh.so.4.8:_ZN6GModel19createACISInternalsEv
libgmsh.so.4.8:_ZN6GModel19deleteACISInternalsEv
libgmsh.so.4.8:_ZN6GModel19getMeshElementByTagEi
libgmsh.so.4.8:_ZN6GModel19getMeshElementIndexEP8MElement
libgmsh.so.4.8:_ZN6GModel19removePhysicalGroupEii
libgmsh.so.4.8:_ZN6GModel19setMeshElementIndexEP8MElementi
libgmsh.so.4.8:_ZN6GModel19writePartitionedMSHERKNSt7__cxx1112basic_stringIcSt11char_traitsIcESaIcEEEdbbbd
libgmsh.so.4.8:_ZN6GModel20getMaxPhysicalNumberEi
libgmsh.so.4.8:_ZN6GModel20getRegionForOCCShapeEPKv
libgmsh.so.4.8:_ZN6GModel20getVertexForOCCShapeEPKv
libgmsh.so.4.8:_ZN6GModel20removeElementaryNameERKNSt7__cxx1112basic_stringIcSt11char_traitsIcESaIcEEE
libgmsh.so.4.8:_ZN6GModel20removePhysicalGroupsEv
libgmsh.so.4.8:_ZN6GModel20renumberMeshElementsEv
libgmsh.so.4.8:_ZN6GModel20renumberMeshVerticesEv
libgmsh.so.4.8:_ZN6GModel20setCurrentMeshEntityEP7GEntity
libgmsh.so.4.8:_ZN6GModel21_writePartitionedMSH2ERKNSt7__cxx1112basic_stringIcSt11char_traitsIcESaIcEEEbbbd
libgmsh.so.4.8:_ZN6GModel21_writePartitionedMSH3ERKNSt7__cxx1112basic_stringIcSt11char_traitsIcESaIcEEEdbbbd
libgmsh.so.4.8:_ZN6GModel21_writePartitionedMSH4ERKNSt7__cxx1112basic_stringIcSt11char_traitsIcESaIcEEEdbbbd
libgmsh.so.4.8:_ZN6GModel21getMeshElementByCoordER7SPoint3S1_ib
libgmsh.so.4.8:_ZN6GModel21setAllVolumesPositiveEv
libgmsh.so.4.8:_ZN6GModel22createTopologyFromMeshEv
libgmsh.so.4.8:_ZN6GModel22getMaxElementaryNumberEi
libgmsh.so.4.8:_ZN6GModel22getMeshElementsByCoordER7SPoint3ib
libgmsh.so.4.8:_ZN6GModel22getTagsForPhysicalNameEiRKNSt7__cxx1112basic_stringIcSt11char_traitsIcESaIcEEE
libgmsh.so.4.8:_ZN6GModel22rebuildMeshVertexCacheEb
libgmsh.so.4.8:_ZN6GModel23alignPeriodicBoundariesEv
libgmsh.so.4.8:_ZN6GModel23rebuildMeshElementCacheEb
libgmsh.so.4.8:_ZN6GModel23removeInvisibleElementsEv
libgmsh.so.4.8:_ZN6GModel24_storeElementsInEntitiesERSt3mapIiSt6vectorIP8MElementSaIS3_EESt4lessIiESaISt4pairIKiS5_EEE
libgmsh.so.4.8:_ZN6GModel24_storeVerticesInEntitiesERSt3mapIiP7MVertexSt4lessIiESaISt4pairIKiS2_EEE
libgmsh.so.4.8:_ZN6GModel24_storeVerticesInEntitiesERSt6vectorIP7MVertexSaIS2_EE
libgmsh.so.4.8:_ZN6GModel24createParasolidInternalsEv
libgmsh.so.4.8:_ZN6GModel24deleteParasolidInternalsEv
libgmsh.so.4.8:_ZN6GModel24reverseInvisibleElementsEv
libgmsh.so.4.8:_ZN6GModel24writePartitionedTopologyERNSt7__cxx1112basic_stringIcSt11char_traitsIcESaIcEEE
libgmsh.so.4.8:_ZN6GModel26_storeParentsInSubElementsERSt3mapIiSt6vectorIP8MElementSaIS3_EESt4lessIiESaISt4pairIKiS5_EEE
libgmsh.so.4.8:_ZN6GModel26exportDiscreteGEOInternalsEv
libgmsh.so.4.8:_ZN6GModel27pruneMeshVertexAssociationsEv
libgmsh.so.4.8:_ZN6GModel27removeDuplicateMeshVerticesEd
libgmsh.so.4.8:_ZN6GModel28_storePhysicalTagsInEntitiesEiRSt3mapIiS0_IiNSt7__cxx1112basic_stringIcSt11char_traitsIcESaIcEEESt4lessIiESaISt4pairIKiS6_EEES8_SaIS9_ISA_SD_EEE
libgmsh.so.4.8:_ZN6GModel29setAllVolumesPositiveTopologyEv
libgmsh.so.4.8:_ZN6GModel29setPhysicalNumToEntitiesInBoxEiiRK14SBoundingBox3d
libgmsh.so.4.8:_ZN6GModel29setPhysicalNumToEntitiesInBoxEiiSt6vectorIdSaIdEES2_
libgmsh.so.4.8:_ZN6GModel30convertOldPartitioningToNewOneEv
libgmsh.so.4.8:_ZN6GModel30getInnerPhysicalNamesIteratorsERSt6vectorISt17_Rb_tree_iteratorISt4pairIKS2_IiiENSt7__cxx1112basic_stringIcSt11char_traitsIcESaIcEEEEESaISC_EE
libgmsh.so.4.8:_ZN6GModel31getMeshVerticesForPhysicalGroupEiiRSt6vectorIP7MVertexSaIS2_EE
libgmsh.so.4.8:_ZN6GModel32_associateEntityWithMeshVerticesEv
libgmsh.so.4.8:_ZN6GModel32createGeometryOfDiscreteEntitiesERKSt6vectorISt4pairIiiESaIS2_EE
libgmsh.so.4.8:_ZN6GModel32makeDiscreteFacesSimplyConnectedEv
libgmsh.so.4.8:_ZN6GModel34makeDiscreteRegionsSimplyConnectedEv
libgmsh.so.4.8:_ZN6GModel4loadERKNSt7__cxx1112basic_stringIcSt11char_traitsIcESaIcEEE
libgmsh.so.4.8:_ZN6GModel4meshEi
libgmsh.so.4.8:_ZN6GModel4saveERKNSt7__cxx1112basic_stringIcSt11char_traitsIcESaIcEEE
libgmsh.so.4.8:_ZN6GModel6boundsEb
libgmsh.so.4.8:_ZN6GModel6removeEP5GEdge
libgmsh.so.4.8:_ZN6GModel6removeEP5GFace
libgmsh.so.4.8:_ZN6GModel6removeEP7GRegion
libgmsh.so.4.8:_ZN6GModel6removeEP7GVertex
libgmsh.so.4.8:_ZN6GModel6removeERKSt6vectorISt4pairIiiESaIS2_EEb
libgmsh.so.4.8:_ZN6GModel6removeEiib
libgmsh.so.4.8:_ZN6GModel6removeEv
libgmsh.so.4.8:_ZN6GModel7currentEi
libgmsh.so.4.8:_ZN6GModel7destroyEb
libgmsh.so.4.8:_ZN6GModel7readBDFERKNSt7__cxx1112basic_stringIcSt11char_traitsIcESaIcEEE
libgmsh.so.4.8:_ZN6GModel7readGEOERKNSt7__cxx1112basic_stringIcSt11char_traitsIcESaIcEEE
libgmsh.so.4.8:_ZN6GModel7readMEDERKNSt7__cxx1112basic_stringIcSt11char_traitsIcESaIcEEE
libgmsh.so.4.8:_ZN6GModel7readMEDERKNSt7__cxx1112basic_stringIcSt11char_traitsIcESaIcEEEi
libgmsh.so.4.8:_ZN6GModel7readMSHERKNSt7__cxx1112basic_stringIcSt11char_traitsIcESaIcEEE
libgmsh.so.4.8:_ZN6GModel7readP3DERKNSt7__cxx1112basic_stringIcSt11char_traitsIcESaIcEEE
libgmsh.so.4.8:_ZN6GModel7readPLYERKNSt7__cxx1112basic_stringIcSt11char_traitsIcESaIcEEE
libgmsh.so.4.8:_ZN6GModel7readSTLERKNSt7__cxx1112basic_stringIcSt11char_traitsIcESaIcEEEd
libgmsh.so.4.8:_ZN6GModel7readUNVERKNSt7__cxx1112basic_stringIcSt11char_traitsIcESaIcEEEb
libgmsh.so.4.8:_ZN6GModel7readVTKERKNSt7__cxx1112basic_stringIcSt11char_traitsIcESaIcEEEb
libgmsh.so.4.8:_ZN6GModel8addMEdgeERK5MEdge
libgmsh.so.4.8:_ZN6GModel8addMFaceERK5MFace
libgmsh.so.4.8:_ZN6GModel8getMEdgeEP7MVertexS1_R5MEdge
libgmsh.so.4.8:_ZN6GModel8getMFaceEP7MVertexS1_S1_S1_R5MFace
libgmsh.so.4.8:_ZN6GModel8readCGNSERKNSt7__cxx1112basic_stringIcSt11char_traitsIcESaIcEEERSt6vectorIS8_IP7MVertexSaISA_EESaISC_EERS8_IS8_IP8MElementSaISH_EESaISJ_EE
libgmsh.so.4.8:_ZN6GModel8readDIFFERKNSt7__cxx1112basic_stringIcSt11char_traitsIcESaIcEEE
libgmsh.so.4.8:_ZN6GModel8readGEOMERKNSt7__cxx1112basic_stringIcSt11char_traitsIcESaIcEEE
libgmsh.so.4.8:_ZN6GModel8readMESHERKNSt7__cxx1112basic_stringIcSt11char_traitsIcESaIcEEE
libgmsh.so.4.8:_ZN6GModel8readPLY2ERKNSt7__cxx1112basic_stringIcSt11char_traitsIcESaIcEEE
libgmsh.so.4.8:_ZN6GModel8readVRMLERKNSt7__cxx1112basic_stringIcSt11char_traitsIcESaIcEEE
libgmsh.so.4.8:_ZN6GModel8writeBDFERKNSt7__cxx1112basic_stringIcSt11char_traitsIcESaIcEEEiibd
libgmsh.so.4.8:_ZN6GModel8writeGEOERKNSt7__cxx1112basic_stringIcSt11char_traitsIcESaIcEEEbb
libgmsh.so.4.8:_ZN6GModel8writeINPERKNSt7__cxx1112basic_stringIcSt11char_traitsIcESaIcEEEbiid
libgmsh.so.4.8:_ZN6GModel8writeIR3ERKNSt7__cxx1112basic_stringIcSt11char_traitsIcESaIcEEEibd
libgmsh.so.4.8:_ZN6GModel8writeKEYERKNSt7__cxx1112basic_stringIcSt11char_traitsIcESaIcEEEiid
libgmsh.so.4.8:_ZN6GModel8writeMEDERKNSt7__cxx1112basic_stringIcSt11char_traitsIcESaIcEEEbd
libgmsh.so.4.8:_ZN6GModel8writeMSHERKNSt7__cxx1112basic_stringIcSt11char_traitsIcESaIcEEEdbbbdiib
libgmsh.so.4.8:_ZN6GModel8writeNEUERKNSt7__cxx1112basic_stringIcSt11char_traitsIcESaIcEEEbd
libgmsh.so.4.8:_ZN6GModel8writeP3DERKNSt7__cxx1112basic_stringIcSt11char_traitsIcESaIcEEEbd
libgmsh.so.4.8:_ZN6GModel8writePOSERKNSt7__cxx1112basic_stringIcSt11char_traitsIcESaIcEEEbbbbbbbd
libgmsh.so.4.8:_ZN6GModel8writeSTLERKNSt7__cxx1112basic_stringIcSt11char_traitsIcESaIcEEEbbdi
libgmsh.so.4.8:_ZN6GModel8writeSU2ERKNSt7__cxx1112basic_stringIcSt11char_traitsIcESaIcEEEbd
libgmsh.so.4.8:_ZN6GModel8writeUNVERKNSt7__cxx1112basic_stringIcSt11char_traitsIcESaIcEEEbbbd
libgmsh.so.4.8:_ZN6GModel8writeVTKERKNSt7__cxx1112basic_stringIcSt11char_traitsIcESaIcEEEbbdb
libgmsh.so.4.8:_ZN6GModel8writeX3DERKNSt7__cxx1112basic_stringIcSt11char_traitsIcESaIcEEEbdiii
libgmsh.so.4.8:_ZN6GModel9_readMSH2ERKNSt7__cxx1112basic_stringIcSt11char_traitsIcESaIcEEE
libgmsh.so.4.8:_ZN6GModel9_readMSH3ERKNSt7__cxx1112basic_stringIcSt11char_traitsIcESaIcEEE
libgmsh.so.4.8:_ZN6GModel9_readMSH4ERKNSt7__cxx1112basic_stringIcSt11char_traitsIcESaIcEEE
libgmsh.so.4.8:_ZN6GModel9adaptMeshESt6vectorIiSaIiEES0_IP14simpleFunctionIdESaIS5_EES0_IS0_IdSaIdEESaIS9_EEib
libgmsh.so.4.8:_ZN6GModel9adaptMeshEv
libgmsh.so.4.8:_ZN6GModel9scaleMeshEd
libgmsh.so.4.8:_ZN6GModel9setOrderNEiii
libgmsh.so.4.8:_ZN6GModel9writeCGNSERKNSt7__cxx1112basic_stringIcSt11char_traitsIcESaIcEEEbdb
libgmsh.so.4.8:_ZN6GModel9writeDIFFERKNSt7__cxx1112basic_stringIcSt11char_traitsIcESaIcEEEbbd
libgmsh.so.4.8:_ZN6GModel9writeMAILERKNSt7__cxx1112basic_stringIcSt11char_traitsIcESaIcEEEbd
libgmsh.so.4.8:_ZN6GModel9writeMESHERKNSt7__cxx1112basic_stringIcSt11char_traitsIcESaIcEEEibd
libgmsh.so.4.8:_ZN6GModel9writePLY2ERKNSt7__cxx1112basic_stringIcSt11char_traitsIcESaIcEEE
libgmsh.so.4.8:_ZN6GModel9writeVRMLERKNSt7__cxx1112basic_stringIcSt11char_traitsIcESaIcEEEbd
libgmsh.so.4.8:_ZN6GModelC1ERKNSt7__cxx1112basic_stringIcSt11char_traitsIcESaIcEEE
libgmsh.so.4.8:_ZN6GModelC2ERKNSt7__cxx1112basic_stringIcSt11char_traitsIcESaIcEEE
libgmsh.so.4.8:_ZN6GModelD0Ev
libgmsh.so.4.8:_ZN6GModelD1Ev
libgmsh.so.4.8:_ZN6GModelD2Ev
libgmsh.so.4.8:_ZN6MEdgeNC1ERKSt6vectorIP7MVertexSaIS2_EE
libgmsh.so.4.8:_ZN6MEdgeNC2ERKSt6vectorIP7MVertexSaIS2_EE
libgmsh.so.4.8:_ZN6MFaceNC1EiiRKSt6vectorIP7MVertexSaIS2_EE
libgmsh.so.4.8:_ZN6MFaceNC2EiiRKSt6vectorIP7MVertexSaIS2_EE
libgmsh.so.4.8:_ZN6MLine310discretizeEdRSt6vectorI7SPoint3SaIS1_EERS0_IdSaIdEE
libgmsh.so.4.8:_ZN6MLine310getEdgeRepEbiPdS0_S0_P8SVector3
libgmsh.so.4.8:_ZN6MLine314getNumEdgesRepEb
libgmsh.so.4.8:_ZN6MLineN10discretizeEdRSt6vectorI7SPoint3SaIS1_EERS0_IdSaIdEE
libgmsh.so.4.8:_ZN6MLineN10getEdgeRepEbiPdS0_S0_P8SVector3
libgmsh.so.4.8:_ZN6MLineN14getNumEdgesRepEb
libgmsh.so.4.8:_ZN6MPrism10getEdgeRepEbiPdS0_S0_P8SVector3
libgmsh.so.4.8:_ZN6MPrism10getFaceRepEbiPdS0_S0_P8SVector3
libgmsh.so.4.8:_ZN6MPrism13getVolumeSignEv
libgmsh.so.4.8:_ZN6MPrism14getInnerRadiusEv
libgmsh.so.4.8:_ZN6MPrism14getNumFacesRepEb
libgmsh.so.4.8:_ZN6MPrism17gammaShapeMeasureEv
libgmsh.so.4.8:_ZN6MPrism20getIntegrationPointsEiPiPP5IntPt
libgmsh.so.4.8:_ZN6MetaEl10setFlatTopEv
libgmsh.so.4.8:_ZN6MetaEl11getMetaInfoEii
libgmsh.so.4.8:_ZN6MetaEl12metaInfoTypeC1Eii
libgmsh.so.4.8:_ZN6MetaEl12metaInfoTypeC2Eii
libgmsh.so.4.8:_ZN6MetaEl12setCurvedTopEd
libgmsh.so.4.8:_ZN6MetaEl15computeBaseNormERK8SVector3RKSt6vectorIP7MVertexSaIS5_EES9_RS3_IS0_SaIS0_EE
libgmsh.so.4.8:_ZN6MetaEl15placeOtherNodesEv
libgmsh.so.4.8:_ZN6MetaEl8printPOSB5cxx11Ev
libgmsh.so.4.8:_ZN6MetaElC1EiiRKSt6vectorIP7MVertexSaIS2_EES6_
libgmsh.so.4.8:_ZN6MetaElC2EiiRKSt6vectorIP7MVertexSaIS2_EES6_
libgmsh.so.4.8:_ZN6MetaElD1Ev
libgmsh.so.4.8:_ZN6MetaElD2Ev
libgmsh.so.4.8:_ZN6Metric7get_m11Ev
libgmsh.so.4.8:_ZN6Metric7get_m12Ev
libgmsh.so.4.8:_ZN6Metric7get_m13Ev
libgmsh.so.4.8:_ZN6Metric7get_m21Ev
libgmsh.so.4.8:_ZN6Metric7get_m22Ev
libgmsh.so.4.8:_ZN6Metric7get_m23Ev
libgmsh.so.4.8:_ZN6Metric7get_m31Ev
libgmsh.so.4.8:_ZN6Metric7get_m32Ev
libgmsh.so.4.8:_ZN6Metric7get_m33Ev
libgmsh.so.4.8:_ZN6Metric7set_m11Ed
libgmsh.so.4.8:_ZN6Metric7set_m12Ed
libgmsh.so.4.8:_ZN6Metric7set_m13Ed
libgmsh.so.4.8:_ZN6Metric7set_m21Ed
libgmsh.so.4.8:_ZN6Metric7set_m22Ed
libgmsh.so.4.8:_ZN6Metric7set_m23Ed
libgmsh.so.4.8:_ZN6Metric7set_m31Ed
libgmsh.so.4.8:_ZN6Metric7set_m32Ed
libgmsh.so.4.8:_ZN6Metric7set_m33Ed
libgmsh.so.4.8:_ZN6MetricC1Ev
libgmsh.so.4.8:_ZN6MetricC2Ev
libgmsh.so.4.8:_ZN6MetricD1Ev
libgmsh.so.4.8:_ZN6MetricD2Ev
libgmsh.so.4.8:_ZN6PELineC1ERKSt6vectorIP7MVertexSaIS2_EE
libgmsh.so.4.8:_ZN6PELineC2ERKSt6vectorIP7MVertexSaIS2_EE
libgmsh.so.4.8:_ZN6PELineD0Ev
libgmsh.so.4.8:_ZN6PELineD1Ev
libgmsh.so.4.8:_ZN6PELineD2Ev
libgmsh.so.4.8:_ZN6PostOp10executeNewEP7GRegion
libgmsh.so.4.8:_ZN6PostOp10statisticsEP7GRegion
libgmsh.so.4.8:_ZN6PostOp10workaroundEP8MElement
libgmsh.so.4.8:_ZN6PostOp12build_tuplesEP7GRegion
libgmsh.so.4.8:_ZN6PostOp12intersectionERKSt3setIP8MElementSt4lessIS2_ESaIS2_EES8_RS6_
libgmsh.so.4.8:_ZN6PostOp12split_prismsEP7GRegion
libgmsh.so.4.8:_ZN6PostOp13findInTriFaceEP7MVertexS1_S1_S1_P8MElement
libgmsh.so.4.8:_ZN6PostOp13find_pyramidsEP7MVertexS1_RSt3setIP8MElementSt4lessIS4_ESaIS4_EE
libgmsh.so.4.8:_ZN6PostOp13find_quadFaceEP7MVertexS1_S1_
libgmsh.so.4.8:_ZN6PostOp13init_markingsEP7GRegion
libgmsh.so.4.8:_ZN6PostOp13matchQuadFaceER5MFaceP7MVertexS3_S3_
libgmsh.so.4.8:_ZN6PostOp13removeElseAddERSt3setI5FacetSt4lessIS1_ESaIS1_EEP7MVertexS8_S8_
libgmsh.so.4.8:_ZN6PostOp14nonConformDiagEP7MVertexS1_S1_S1_P7GRegion
libgmsh.so.4.8:_ZN6PostOp14split_pyramidsEP7GRegion
libgmsh.so.4.8:_ZN6PostOp15find_tetrahedraEP7MVertexS1_RSt3setIP8MElementSt4lessIS4_ESaIS4_EE
libgmsh.so.4.8:_ZN6PostOp15find_tetrahedraEP7MVertexS1_S1_RSt3setIP8MElementSt4lessIS4_ESaIS4_EE
libgmsh.so.4.8:_ZN6PostOp15split_hexahedraEP7GRegion
libgmsh.so.4.8:_ZN6PostOp17init_markings_hexEP7GRegion
libgmsh.so.4.8:_ZN6PostOp17init_markings_priEP7GRegion
libgmsh.so.4.8:_ZN6PostOp17init_markings_pyrEP7GRegion
libgmsh.so.4.8:_ZN6PostOp19otherVertexQuadFaceER5MFaceP7MVertexS3_S3_
libgmsh.so.4.8:_ZN6PostOp22find_pyramids_from_triEP7MVertexS1_S1_RSt3setIP8MElementSt4lessIS4_ESaIS4_EE
libgmsh.so.4.8:_ZN6PostOp23find_pyramids_from_quadEP7MVertexS1_S1_S1_RSt3setIP8MElementSt4lessIS4_ESaIS4_EE
libgmsh.so.4.8:_ZN6PostOp24build_vertex_to_hexPrismEP7GRegion
libgmsh.so.4.8:_ZN6PostOp24build_vertex_to_hexPrismEP8MElement
libgmsh.so.4.8:_ZN6PostOp24build_vertex_to_pyramidsEP7GRegion
libgmsh.so.4.8:_ZN6PostOp24build_vertex_to_pyramidsEP8MElement
libgmsh.so.4.8:_ZN6PostOp24create_quads_on_boundaryEP7GRegion
libgmsh.so.4.8:_ZN6PostOp24create_quads_on_boundaryEP7MVertexS1_S1_S1_
libgmsh.so.4.8:_ZN6PostOp24erase_vertex_to_hexPrismEP8MElement
libgmsh.so.4.8:_ZN6PostOp24erase_vertex_to_pyramidsEP8MElement
libgmsh.so.4.8:_ZN6PostOp26build_vertex_to_tetrahedraEP7GRegion
libgmsh.so.4.8:_ZN6PostOp26build_vertex_to_tetrahedraEP8MElement
libgmsh.so.4.8:_ZN6PostOp26erase_vertex_to_tetrahedraEP8MElement
libgmsh.so.4.8:_ZN6PostOp3sixEP8MElement
libgmsh.so.4.8:_ZN6PostOp4findEP7MVertexS1_S1_S1_P8MElement
libgmsh.so.4.8:_ZN6PostOp4fiveEP8MElement
libgmsh.so.4.8:_ZN6PostOp4fourEP8MElement
libgmsh.so.4.8:_ZN6PostOp4meanERKSt3setIP7MVertexSt4lessIS2_ESaIS2_EES2_RKSt6vectorIP8MElementSaISB_EE
libgmsh.so.4.8:_ZN6PostOp5eightEP8MElement
libgmsh.so.4.8:_ZN6PostOp5equalEP7MVertexS1_S1_S1_
libgmsh.so.4.8:_ZN6PostOp5equalEP7MVertexS1_S1_S1_S1_S1_S1_S1_
libgmsh.so.4.8:_ZN6PostOp5otherEP8MElementP7MVertexS3_
libgmsh.so.4.8:_ZN6PostOp5otherEP8MElementP7MVertexS3_S3_
libgmsh.so.4.8:_ZN6PostOp5validEP8MPyramid
libgmsh.so.4.8:_ZN6PostOp7executeEP7GRegionii
libgmsh.so.4.8:_ZN6PostOp7executeEii
libgmsh.so.4.8:_ZN6PostOp8fourTrihEP8MElement
libgmsh.so.4.8:_ZN6PostOp8trihedraEP7GRegion
libgmsh.so.4.8:_ZN6PostOp8trihedraEP7MVertexS1_S1_S1_P7GRegion
libgmsh.so.4.8:_ZN6PostOp8writeMSHEPKcRSt6vectorIP8MElementSaIS4_EE
libgmsh.so.4.8:_ZN6PostOp9differentEP7MVertexS1_S1_S1_
libgmsh.so.4.8:_ZN6PostOp9pyramids1EP7GRegion
libgmsh.so.4.8:_ZN6PostOp9pyramids1EP7MVertexS1_S1_S1_P7GRegion
libgmsh.so.4.8:_ZN6PostOp9pyramids2EP7GRegionb
libgmsh.so.4.8:_ZN6PostOp9pyramids2EP7MVertexS1_S1_S1_P7GRegionb
libgmsh.so.4.8:_ZN6PostOp9rearrangeEP7GRegion
libgmsh.so.4.8:_ZN6PostOpC1Ev
libgmsh.so.4.8:_ZN6PostOpC2Ev
libgmsh.so.4.8:_ZN6PostOpD1Ev
libgmsh.so.4.8:_ZN6PostOpD2Ev
libgmsh.so.4.8:_ZN6alglib10abscomplexERKNS_7complexE
libgmsh.so.4.8:_ZN6alglib10cmatrixdetERKNS_16complex_2d_arrayE
libgmsh.so.4.8:_ZN6alglib10cmatrixdetERKNS_16complex_2d_arrayEl
libgmsh.so.4.8:_ZN6alglib10fp_greaterEdd
libgmsh.so.4.8:_ZN6alglib10fp_less_eqEdd
libgmsh.so.4.8:_ZN6alglib10hmatrixevdERKNS_16complex_2d_arrayEllbRNS_13real_1d_arrayERS0_
libgmsh.so.4.8:_ZN6alglib10hqrndstateC1ERKS0_
libgmsh.so.4.8:_ZN6alglib10hqrndstateC1Ev
libgmsh.so.4.8:_ZN6alglib10hqrndstateC2ERKS0_
libgmsh.so.4.8:_ZN6alglib10hqrndstateC2Ev
libgmsh.so.4.8:_ZN6alglib10hqrndstateD0Ev
libgmsh.so.4.8:_ZN6alglib10hqrndstateD1Ev
libgmsh.so.4.8:_ZN6alglib10hqrndstateD2Ev
libgmsh.so.4.8:_ZN6alglib10hqrndstateaSERKS0_
libgmsh.so.4.8:_ZN6alglib10hqrndunit2ERKNS_10hqrndstateERdS3_
libgmsh.so.4.8:_ZN6alglib10mincgstateC1ERKS0_
libgmsh.so.4.8:_ZN6alglib10mincgstateC1Ev
libgmsh.so.4.8:_ZN6alglib10mincgstateC2ERKS0_
libgmsh.so.4.8:_ZN6alglib10mincgstateC2Ev
libgmsh.so.4.8:_ZN6alglib10mincgstateD0Ev
libgmsh.so.4.8:_ZN6alglib10mincgstateD1Ev
libgmsh.so.4.8:_ZN6alglib10mincgstateD2Ev
libgmsh.so.4.8:_ZN6alglib10mincgstateaSERKS0_
libgmsh.so.4.8:_ZN6alglib10minlmsetbcERKNS_10minlmstateERKNS_13real_1d_arrayES5_
libgmsh.so.4.8:_ZN6alglib10minlmstateC1ERKS0_
libgmsh.so.4.8:_ZN6alglib10minlmstateC1Ev
libgmsh.so.4.8:_ZN6alglib10minlmstateC2ERKS0_
libgmsh.so.4.8:_ZN6alglib10minlmstateC2Ev
libgmsh.so.4.8:_ZN6alglib10minlmstateD0Ev
libgmsh.so.4.8:_ZN6alglib10minlmstateD1Ev
libgmsh.so.4.8:_ZN6alglib10minlmstateD2Ev
libgmsh.so.4.8:_ZN6alglib10minlmstateaSERKS0_
libgmsh.so.4.8:_ZN6alglib10minqpsetbcERKNS_10minqpstateERKNS_13real_1d_arrayES5_
libgmsh.so.4.8:_ZN6alglib10minqpstateC1ERKS0_
libgmsh.so.4.8:_ZN6alglib10minqpstateC1Ev
libgmsh.so.4.8:_ZN6alglib10minqpstateC2ERKS0_
libgmsh.so.4.8:_ZN6alglib10minqpstateC2Ev
libgmsh.so.4.8:_ZN6alglib10minqpstateD0Ev
libgmsh.so.4.8:_ZN6alglib10minqpstateD1Ev
libgmsh.so.4.8:_ZN6alglib10minqpstateD2Ev
libgmsh.so.4.8:_ZN6alglib10minqpstateaSERKS0_
libgmsh.so.4.8:_ZN6alglib10my_stricmpEPKcS1_
libgmsh.so.4.8:_ZN6alglib10nleqreportC1ERKS0_
libgmsh.so.4.8:_ZN6alglib10nleqreportC1Ev
libgmsh.so.4.8:_ZN6alglib10nleqreportC2ERKS0_
libgmsh.so.4.8:_ZN6alglib10nleqreportC2Ev
libgmsh.so.4.8:_ZN6alglib10nleqreportD0Ev
libgmsh.so.4.8:_ZN6alglib10nleqreportD1Ev
libgmsh.so.4.8:_ZN6alglib10nleqreportD2Ev
libgmsh.so.4.8:_ZN6alglib10nleqreportaSERKS0_
libgmsh.so.4.8:_ZN6alglib10randomrealEv
libgmsh.so.4.8:_ZN6alglib10rmatrixdetERKNS_13real_2d_arrayE
libgmsh.so.4.8:_ZN6alglib10rmatrixdetERKNS_13real_2d_arrayEl
libgmsh.so.4.8:_ZN6alglib10rmatrixevdERKNS_13real_2d_arrayEllRNS_13real_1d_arrayES4_RS0_S5_
libgmsh.so.4.8:_ZN6alglib10rmatrixsvdERKNS_13real_2d_arrayElllllRNS_13real_1d_arrayERS0_S5_
libgmsh.so.4.8:_ZN6alglib10smatrixevdERKNS_13real_2d_arrayEllbRNS_13real_1d_arrayERS0_
libgmsh.so.4.8:_ZN6alglib11cmatrixcopyEllRKNS_16complex_2d_arrayEllRS0_ll
libgmsh.so.4.8:_ZN6alglib11cmatrixgemmElllNS_7complexERKNS_16complex_2d_arrayElllS3_lllS0_RS1_ll
libgmsh.so.4.8:_ZN6alglib11cmatrixsyrkElldRKNS_16complex_2d_arrayEllldRS0_llb
libgmsh.so.4.8:_ZN6alglib11fp_isfiniteEd
libgmsh.so.4.8:_ZN6alglib11fp_isneginfEd
libgmsh.so.4.8:_ZN6alglib11fp_isposinfEd
libgmsh.so.4.8:_ZN6alglib11hmatrixevdiERKNS_16complex_2d_arrayEllbllRNS_13real_1d_arrayERS0_
libgmsh.so.4.8:_ZN6alglib11hmatrixevdrERKNS_16complex_2d_arrayEllbddRlRNS_13real_1d_arrayERS0_
libgmsh.so.4.8:_ZN6alglib11hqrndnormalERKNS_10hqrndstateE
libgmsh.so.4.8:_ZN6alglib11kdtreebuildERKNS_13real_2d_arrayElllRNS_6kdtreeE
libgmsh.so.4.8:_ZN6alglib11kdtreebuildERKNS_13real_2d_arrayEllllRNS_6kdtreeE
libgmsh.so.4.8:_ZN6alglib11minasastateC1ERKS0_
libgmsh.so.4.8:_ZN6alglib11minasastateC1Ev
libgmsh.so.4.8:_ZN6alglib11minasastateC2ERKS0_
libgmsh.so.4.8:_ZN6alglib11minasastateC2Ev
libgmsh.so.4.8:_ZN6alglib11minasastateD0Ev
libgmsh.so.4.8:_ZN6alglib11minasastateD1Ev
libgmsh.so.4.8:_ZN6alglib11minasastateD2Ev
libgmsh.so.4.8:_ZN6alglib11minasastateaSERKS0_
libgmsh.so.4.8:_ZN6alglib11mincgcreateERKNS_13real_1d_arrayERNS_10mincgstateE
libgmsh.so.4.8:_ZN6alglib11mincgcreateElRKNS_13real_1d_arrayERNS_10mincgstateE
libgmsh.so.4.8:_ZN6alglib11mincgreportC1ERKS0_
libgmsh.so.4.8:_ZN6alglib11mincgreportC1Ev
libgmsh.so.4.8:_ZN6alglib11mincgreportC2ERKS0_
libgmsh.so.4.8:_ZN6alglib11mincgreportC2Ev
libgmsh.so.4.8:_ZN6alglib11mincgreportD0Ev
libgmsh.so.4.8:_ZN6alglib11mincgreportD1Ev
libgmsh.so.4.8:_ZN6alglib11mincgreportD2Ev
libgmsh.so.4.8:_ZN6alglib11mincgreportaSERKS0_
libgmsh.so.4.8:_ZN6alglib11minlmreportC1ERKS0_
libgmsh.so.4.8:_ZN6alglib11minlmreportC1Ev
libgmsh.so.4.8:_ZN6alglib11minlmreportC2ERKS0_
libgmsh.so.4.8:_ZN6alglib11minlmreportC2Ev
libgmsh.so.4.8:_ZN6alglib11minlmreportD0Ev
libgmsh.so.4.8:_ZN6alglib11minlmreportD1Ev
libgmsh.so.4.8:_ZN6alglib11minlmreportD2Ev
libgmsh.so.4.8:_ZN6alglib11minlmreportaSERKS0_
libgmsh.so.4.8:_ZN6alglib11minqpcreateElRNS_10minqpstateE
libgmsh.so.4.8:_ZN6alglib11minqpreportC1ERKS0_
libgmsh.so.4.8:_ZN6alglib11minqpreportC1Ev
libgmsh.so.4.8:_ZN6alglib11minqpreportC2ERKS0_
libgmsh.so.4.8:_ZN6alglib11minqpreportC2Ev
libgmsh.so.4.8:_ZN6alglib11minqpreportD0Ev
libgmsh.so.4.8:_ZN6alglib11minqpreportD1Ev
libgmsh.so.4.8:_ZN6alglib11minqpreportD2Ev
libgmsh.so.4.8:_ZN6alglib11minqpreportaSERKS0_
libgmsh.so.4.8:_ZN6alglib11nleqresultsERKNS_9nleqstateERNS_13real_1d_arrayERNS_10nleqreportE
libgmsh.so.4.8:_ZN6alglib11nleqsetcondERKNS_9nleqstateEdl
libgmsh.so.4.8:_ZN6alglib11nleqsetxrepERKNS_9nleqstateEb
libgmsh.so.4.8:_ZN6alglib11rmatrixcopyEllRKNS_13real_2d_arrayEllRS0_ll
libgmsh.so.4.8:_ZN6alglib11rmatrixgemmEllldRKNS_13real_2d_arrayElllS2_llldRS0_ll
libgmsh.so.4.8:_ZN6alglib11rmatrixsyrkElldRKNS_13real_2d_arrayEllldRS0_llb
libgmsh.so.4.8:_ZN6alglib11smatrixevdiERKNS_13real_2d_arrayEllbllRNS_13real_1d_arrayERS0_
libgmsh.so.4.8:_ZN6alglib11smatrixevdrERKNS_13real_2d_arrayEllbddRlRNS_13real_1d_arrayERS0_
libgmsh.so.4.8:_ZN6alglib11smatrixgevdERKNS_13real_2d_arrayElbS2_bllRNS_13real_1d_arrayERS0_
libgmsh.so.4.8:_ZN6alglib11vdotproductEPKNS_7complexES2_l
libgmsh.so.4.8:_ZN6alglib11vdotproductEPKNS_7complexElPKcS2_lS4_l
libgmsh.so.4.8:_ZN6alglib11vdotproductEPKdS1_l
libgmsh.so.4.8:_ZN6alglib11vdotproductEPKdlS1_ll
libgmsh.so.4.8:_ZN6alglib12cmatrixludetERKNS_16complex_2d_arrayERKNS_16integer_1d_arrayE
libgmsh.so.4.8:_ZN6alglib12cmatrixludetERKNS_16complex_2d_arrayERKNS_16integer_1d_arrayEl
libgmsh.so.4.8:_ZN6alglib12cmatrixrank1EllRNS_16complex_2d_arrayEllRNS_16complex_1d_arrayElS3_l
libgmsh.so.4.8:_ZN6alglib12cmatrixsolveERKNS_16complex_2d_arrayElRKNS_16complex_1d_arrayERlRNS_17densesolverreportERS3_
libgmsh.so.4.8:_ZN6alglib12get_aenv_nanEv
libgmsh.so.4.8:_ZN6alglib12hqrndnormal2ERKNS_10hqrndstateERdS3_
libgmsh.so.4.8:_ZN6alglib12matinvreportC1ERKS0_
libgmsh.so.4.8:_ZN6alglib12matinvreportC1Ev
libgmsh.so.4.8:_ZN6alglib12matinvreportC2ERKS0_
libgmsh.so.4.8:_ZN6alglib12matinvreportC2Ev
libgmsh.so.4.8:_ZN6alglib12matinvreportD0Ev
libgmsh.so.4.8:_ZN6alglib12matinvreportD1Ev
libgmsh.so.4.8:_ZN6alglib12matinvreportD2Ev
libgmsh.so.4.8:_ZN6alglib12matinvreportaSERKS0_
libgmsh.so.4.8:_ZN6alglib12minasacreateERKNS_13real_1d_arrayES2_S2_RNS_11minasastateE
libgmsh.so.4.8:_ZN6alglib12minasacreateElRKNS_13real_1d_arrayES2_S2_RNS_11minasastateE
libgmsh.so.4.8:_ZN6alglib12minasareportC1ERKS0_
libgmsh.so.4.8:_ZN6alglib12minasareportC1Ev
libgmsh.so.4.8:_ZN6alglib12minasareportC2ERKS0_
libgmsh.so.4.8:_ZN6alglib12minasareportC2Ev
libgmsh.so.4.8:_ZN6alglib12minasareportD0Ev
libgmsh.so.4.8:_ZN6alglib12minasareportD1Ev
libgmsh.so.4.8:_ZN6alglib12minasareportD2Ev
libgmsh.so.4.8:_ZN6alglib12minasareportaSERKS0_
libgmsh.so.4.8:_ZN6alglib12mincgcreatefERKNS_13real_1d_arrayEdRNS_10mincgstateE
libgmsh.so.4.8:_ZN6alglib12mincgcreatefElRKNS_13real_1d_arrayEdRNS_10mincgstateE
libgmsh.so.4.8:_ZN6alglib12mincgresultsERKNS_10mincgstateERNS_13real_1d_arrayERNS_11mincgreportE
libgmsh.so.4.8:_ZN6alglib12mincgsetcondERKNS_10mincgstateEdddl
libgmsh.so.4.8:_ZN6alglib12mincgsetxrepERKNS_10mincgstateEb
libgmsh.so.4.8:_ZN6alglib12minlmcreatevElRKNS_13real_1d_arrayEdRNS_10minlmstateE
libgmsh.so.4.8:_ZN6alglib12minlmcreatevEllRKNS_13real_1d_arrayEdRNS_10minlmstateE
libgmsh.so.4.8:_ZN6alglib12minlmresultsERKNS_10minlmstateERNS_13real_1d_arrayERNS_11minlmreportE
libgmsh.so.4.8:_ZN6alglib12minlmsetcondERKNS_10minlmstateEdddl
libgmsh.so.4.8:_ZN6alglib12minlmsetxrepERKNS_10minlmstateEb
libgmsh.so.4.8:_ZN6alglib12minqpresultsERKNS_10minqpstateERNS_13real_1d_arrayERNS_11minqpreportE
libgmsh.so.4.8:_ZN6alglib12nleqcreatelmElRKNS_13real_1d_arrayERNS_9nleqstateE
libgmsh.so.4.8:_ZN6alglib12nleqcreatelmEllRKNS_13real_1d_arrayERNS_9nleqstateE
libgmsh.so.4.8:_ZN6alglib12rmatrixbdsvdERNS_13real_1d_arrayERKS0_lbbRNS_13real_2d_arrayElS5_lS5_l
libgmsh.so.4.8:_ZN6alglib12rmatrixludetERKNS_13real_2d_arrayERKNS_16integer_1d_arrayE
libgmsh.so.4.8:_ZN6alglib12rmatrixludetERKNS_13real_2d_arrayERKNS_16integer_1d_arrayEl
libgmsh.so.4.8:_ZN6alglib12rmatrixrank1EllRNS_13real_2d_arrayEllRNS_13real_1d_arrayElS3_l
libgmsh.so.4.8:_ZN6alglib12rmatrixschurERNS_13real_2d_arrayElS1_
libgmsh.so.4.8:_ZN6alglib12rmatrixsolveERKNS_13real_2d_arrayElRKNS_13real_1d_arrayERlRNS_17densesolverreportERS3_
libgmsh.so.4.8:_ZN6alglib12smatrixtdevdERNS_13real_1d_arrayERKS0_llRNS_13real_2d_arrayE
libgmsh.so.4.8:_ZN6alglib12spdmatrixdetERKNS_13real_2d_arrayE
libgmsh.so.4.8:_ZN6alglib12spdmatrixdetERKNS_13real_2d_arrayElb
libgmsh.so.4.8:_ZN6alglib13_kdtree_owner5c_ptrEv
libgmsh.so.4.8:_ZN6alglib13_kdtree_ownerC1ERKS0_
libgmsh.so.4.8:_ZN6alglib13_kdtree_ownerC1Ev
libgmsh.so.4.8:_ZN6alglib13_kdtree_ownerC2ERKS0_
libgmsh.so.4.8:_ZN6alglib13_kdtree_ownerC2Ev
libgmsh.so.4.8:_ZN6alglib13_kdtree_ownerD0Ev
libgmsh.so.4.8:_ZN6alglib13_kdtree_ownerD1Ev
libgmsh.so.4.8:_ZN6alglib13_kdtree_ownerD2Ev
libgmsh.so.4.8:_ZN6alglib13_kdtree_owneraSERKS0_
libgmsh.so.4.8:_ZN6alglib13arraytostringB5cxx11EPKNS_7complexEli
libgmsh.so.4.8:_ZN6alglib13arraytostringB5cxx11EPKbl
libgmsh.so.4.8:_ZN6alglib13arraytostringB5cxx11EPKdli
libgmsh.so.4.8:_ZN6alglib13arraytostringB5cxx11EPKll
libgmsh.so.4.8:_ZN6alglib13cmatrixrcond1ERKNS_16complex_2d_arrayEl
libgmsh.so.4.8:_ZN6alglib13cmatrixsolvemERKNS_16complex_2d_arrayElS2_lbRlRNS_17densesolverreportERS0_
libgmsh.so.4.8:_ZN6alglib13filter_spacesEPKc
libgmsh.so.4.8:_ZN6alglib13fp_greater_eqEdd
libgmsh.so.4.8:_ZN6alglib13hqrnduniformiERKNS_10hqrndstateEl
libgmsh.so.4.8:_ZN6alglib13hqrnduniformrERKNS_10hqrndstateE
libgmsh.so.4.8:_ZN6alglib13minasaresultsERKNS_11minasastateERNS_13real_1d_arrayERNS_12minasareportE
libgmsh.so.4.8:_ZN6alglib13minasasetcondERKNS_11minasastateEdddl
libgmsh.so.4.8:_ZN6alglib13minasasetxrepERKNS_11minasastateEb
libgmsh.so.4.8:_ZN6alglib13minbleicsetbcERKNS_13minbleicstateERKNS_13real_1d_arrayES5_
libgmsh.so.4.8:_ZN6alglib13minbleicsetlcERKNS_13minbleicstateERKNS_13real_2d_arrayERKNS_16integer_1d_arrayE
libgmsh.so.4.8:_ZN6alglib13minbleicsetlcERKNS_13minbleicstateERKNS_13real_2d_arrayERKNS_16integer_1d_arrayEl
libgmsh.so.4.8:_ZN6alglib13minbleicstateC1ERKS0_
libgmsh.so.4.8:_ZN6alglib13minbleicstateC1Ev
libgmsh.so.4.8:_ZN6alglib13minbleicstateC2ERKS0_
libgmsh.so.4.8:_ZN6alglib13minbleicstateC2Ev
libgmsh.so.4.8:_ZN6alglib13minbleicstateD0Ev
libgmsh.so.4.8:_ZN6alglib13minbleicstateD1Ev
libgmsh.so.4.8:_ZN6alglib13minbleicstateD2Ev
libgmsh.so.4.8:_ZN6alglib13minbleicstateaSERKS0_
libgmsh.so.4.8:_ZN6alglib13mincgoptimizeERNS_10mincgstateEPFvRKNS_13real_1d_arrayERdPvEPFvS4_dS6_ES6_
libgmsh.so.4.8:_ZN6alglib13mincgoptimizeERNS_10mincgstateEPFvRKNS_13real_1d_arrayERdRS2_PvEPFvS4_dS7_ES7_
libgmsh.so.4.8:_ZN6alglib13mincgsetscaleERKNS_10mincgstateERKNS_13real_1d_arrayE
libgmsh.so.4.8:_ZN6alglib13minlbfgsstateC1ERKS0_
libgmsh.so.4.8:_ZN6alglib13minlbfgsstateC1Ev
libgmsh.so.4.8:_ZN6alglib13minlbfgsstateC2ERKS0_
libgmsh.so.4.8:_ZN6alglib13minlbfgsstateC2Ev
libgmsh.so.4.8:_ZN6alglib13minlbfgsstateD0Ev
libgmsh.so.4.8:_ZN6alglib13minlbfgsstateD1Ev
libgmsh.so.4.8:_ZN6alglib13minlbfgsstateD2Ev
libgmsh.so.4.8:_ZN6alglib13minlbfgsstateaSERKS0_
libgmsh.so.4.8:_ZN6alglib13minlmcreatefjElRKNS_13real_1d_arrayERNS_10minlmstateE
libgmsh.so.4.8:_ZN6alglib13minlmcreatefjEllRKNS_13real_1d_arrayERNS_10minlmstateE
libgmsh.so.4.8:_ZN6alglib13minlmcreatevjElRKNS_13real_1d_arrayERNS_10minlmstateE
libgmsh.so.4.8:_ZN6alglib13minlmcreatevjEllRKNS_13real_1d_arrayERNS_10minlmstateE
libgmsh.so.4.8:_ZN6alglib13minlmoptimizeERNS_10minlmstateEPFvRKNS_13real_1d_arrayERS2_PvEPFvS4_S5_RNS_13real_2d_arrayES6_EPFvS4_dS6_ES6_
libgmsh.so.4.8:_ZN6alglib13minlmoptimizeERNS_10minlmstateEPFvRKNS_13real_1d_arrayERS2_PvEPFvS4_dS6_ES6_
libgmsh.so.4.8:_ZN6alglib13minlmoptimizeERNS_10minlmstateEPFvRKNS_13real_1d_arrayERdPvEPFvS4_RS2_RNS_13real_2d_arrayES6_EPFvS4_dS6_ES6_
libgmsh.so.4.8:_ZN6alglib13minlmoptimizeERNS_10minlmstateEPFvRKNS_13real_1d_arrayERdPvEPFvS4_S5_RS2_S6_EPFvS4_S5_S9_RNS_13real_2d_arrayES6_EPFvS4_dS6_ES6_
libgmsh.so.4.8:_ZN6alglib13minlmoptimizeERNS_10minlmstateEPFvRKNS_13real_1d_arrayERdPvEPFvS4_S5_RS2_S6_EPFvS4_S9_RNS_13real_2d_arrayES6_EPFvS4_dS6_ES6_
libgmsh.so.4.8:_ZN6alglib13minlmsetscaleERKNS_10minlmstateERKNS_13real_1d_arrayE
libgmsh.so.4.8:_ZN6alglib13minqpoptimizeERKNS_10minqpstateE
libgmsh.so.4.8:_ZN6alglib13nleqiterationERKNS_9nleqstateE
libgmsh.so.4.8:_ZN6alglib13nleqsetstpmaxERKNS_9nleqstateEd
libgmsh.so.4.8:_ZN6alglib13randomintegerEi
libgmsh.so.4.8:_ZN6alglib13real_1d_array10getcontentEv
libgmsh.so.4.8:_ZN6alglib13real_1d_array10setcontentElPKd
libgmsh.so.4.8:_ZN6alglib13real_1d_arrayC1EPKc
libgmsh.so.4.8:_ZN6alglib13real_1d_arrayC1EPN11alglib_impl9ae_vectorE
libgmsh.so.4.8:_ZN6alglib13real_1d_arrayC1Ev
libgmsh.so.4.8:_ZN6alglib13real_1d_arrayC2EPKc
libgmsh.so.4.8:_ZN6alglib13real_1d_arrayC2EPN11alglib_impl9ae_vectorE
libgmsh.so.4.8:_ZN6alglib13real_1d_arrayC2Ev
libgmsh.so.4.8:_ZN6alglib13real_1d_arrayD0Ev
libgmsh.so.4.8:_ZN6alglib13real_1d_arrayD1Ev
libgmsh.so.4.8:_ZN6alglib13real_1d_arrayD2Ev
libgmsh.so.4.8:_ZN6alglib13real_1d_arrayclEl
libgmsh.so.4.8:_ZN6alglib13real_1d_arrayixEl
libgmsh.so.4.8:_ZN6alglib13real_2d_array10setcontentEllPKd
libgmsh.so.4.8:_ZN6alglib13real_2d_arrayC1EPKc
libgmsh.so.4.8:_ZN6alglib13real_2d_arrayC1EPN11alglib_impl9ae_matrixE
libgmsh.so.4.8:_ZN6alglib13real_2d_arrayC1Ev
libgmsh.so.4.8:_ZN6alglib13real_2d_arrayC2EPKc
libgmsh.so.4.8:_ZN6alglib13real_2d_arrayC2EPN11alglib_impl9ae_matrixE
libgmsh.so.4.8:_ZN6alglib13real_2d_arrayC2Ev
libgmsh.so.4.8:_ZN6alglib13real_2d_arrayD0Ev
libgmsh.so.4.8:_ZN6alglib13real_2d_arrayD1Ev
libgmsh.so.4.8:_ZN6alglib13real_2d_arrayD2Ev
libgmsh.so.4.8:_ZN6alglib13real_2d_arrayclEll
libgmsh.so.4.8:_ZN6alglib13real_2d_arrayixEl
libgmsh.so.4.8:_ZN6alglib13rmatrixrcond1ERKNS_13real_2d_arrayEl
libgmsh.so.4.8:_ZN6alglib13rmatrixsolvemERKNS_13real_2d_arrayElS2_lbRlRNS_17densesolverreportERS0_
libgmsh.so.4.8:_ZN6alglib13smatrixtdevdiERNS_13real_1d_arrayERKS0_llllRNS_13real_2d_arrayE
libgmsh.so.4.8:_ZN6alglib13smatrixtdevdrERNS_13real_1d_arrayERKS0_llddRlRNS_13real_2d_arrayE
libgmsh.so.4.8:_ZN6alglib14cmatrixinverseERNS_16complex_2d_arrayERlRNS_12matinvreportE
libgmsh.so.4.8:_ZN6alglib14cmatrixinverseERNS_16complex_2d_arrayElRlRNS_12matinvreportE
libgmsh.so.4.8:_ZN6alglib14cmatrixlusolveERKNS_16complex_2d_arrayERKNS_16integer_1d_arrayElRKNS_16complex_1d_arrayERlRNS_17densesolverreportERS6_
libgmsh.so.4.8:_ZN6alglib14cmatrixrndcondEldRNS_16complex_2d_arrayE
libgmsh.so.4.8:_ZN6alglib14hmatrixrndcondEldRNS_16complex_2d_arrayE
libgmsh.so.4.8:_ZN6alglib14hpdmatrixrcondERKNS_16complex_2d_arrayElb
libgmsh.so.4.8:_ZN6alglib14hpdmatrixsolveERKNS_16complex_2d_arrayElbRKNS_16complex_1d_arrayERlRNS_17densesolverreportERS3_
libgmsh.so.4.8:_ZN6alglib14hqrndrandomizeERNS_10hqrndstateE
libgmsh.so.4.8:_ZN6alglib14kdtreequeryknnERKNS_6kdtreeERKNS_13real_1d_arrayEl
libgmsh.so.4.8:_ZN6alglib14kdtreequeryknnERKNS_6kdtreeERKNS_13real_1d_arrayElb
libgmsh.so.4.8:_ZN6alglib14kdtreequeryrnnERKNS_6kdtreeERKNS_13real_1d_arrayEd
libgmsh.so.4.8:_ZN6alglib14kdtreequeryrnnERKNS_6kdtreeERKNS_13real_1d_arrayEdb
libgmsh.so.4.8:_ZN6alglib14minasaoptimizeERNS_11minasastateEPFvRKNS_13real_1d_arrayERdRS2_PvEPFvS4_dS7_ES7_
libgmsh.so.4.8:_ZN6alglib14minbleiccreateERKNS_13real_1d_arrayERNS_13minbleicstateE
libgmsh.so.4.8:_ZN6alglib14minbleiccreateElRKNS_13real_1d_arrayERNS_13minbleicstateE
libgmsh.so.4.8:_ZN6alglib14minbleicreportC1ERKS0_
libgmsh.so.4.8:_ZN6alglib14minbleicreportC1Ev
libgmsh.so.4.8:_ZN6alglib14minbleicreportC2ERKS0_
libgmsh.so.4.8:_ZN6alglib14minbleicreportC2Ev
libgmsh.so.4.8:_ZN6alglib14minbleicreportD0Ev
libgmsh.so.4.8:_ZN6alglib14minbleicreportD1Ev
libgmsh.so.4.8:_ZN6alglib14minbleicreportD2Ev
libgmsh.so.4.8:_ZN6alglib14minbleicreportaSERKS0_
libgmsh.so.4.8:_ZN6alglib14mincgiterationERKNS_10mincgstateE
libgmsh.so.4.8:_ZN6alglib14mincgsetcgtypeERKNS_10mincgstateEl
libgmsh.so.4.8:_ZN6alglib14mincgsetstpmaxERKNS_10mincgstateEd
libgmsh.so.4.8:_ZN6alglib14minlbfgscreateElRKNS_13real_1d_arrayERNS_13minlbfgsstateE
libgmsh.so.4.8:_ZN6alglib14minlbfgscreateEllRKNS_13real_1d_arrayERNS_13minlbfgsstateE
libgmsh.so.4.8:_ZN6alglib14minlbfgsreportC1ERKS0_
libgmsh.so.4.8:_ZN6alglib14minlbfgsreportC1Ev
libgmsh.so.4.8:_ZN6alglib14minlbfgsreportC2ERKS0_
libgmsh.so.4.8:_ZN6alglib14minlbfgsreportC2Ev
libgmsh.so.4.8:_ZN6alglib14minlbfgsreportD0Ev
libgmsh.so.4.8:_ZN6alglib14minlbfgsreportD1Ev
libgmsh.so.4.8:_ZN6alglib14minlbfgsreportD2Ev
libgmsh.so.4.8:_ZN6alglib14minlbfgsreportaSERKS0_
libgmsh.so.4.8:_ZN6alglib14minlmcreatefghERKNS_13real_1d_arrayERNS_10minlmstateE
libgmsh.so.4.8:_ZN6alglib14minlmcreatefghElRKNS_13real_1d_arrayERNS_10minlmstateE
libgmsh.so.4.8:_ZN6alglib14minlmcreatefgjElRKNS_13real_1d_arrayERNS_10minlmstateE
libgmsh.so.4.8:_ZN6alglib14minlmcreatefgjEllRKNS_13real_1d_arrayERNS_10minlmstateE
libgmsh.so.4.8:_ZN6alglib14minlmcreatevgjElRKNS_13real_1d_arrayERNS_10minlmstateE
libgmsh.so.4.8:_ZN6alglib14minlmcreatevgjEllRKNS_13real_1d_arrayERNS_10minlmstateE
libgmsh.so.4.8:_ZN6alglib14minlmiterationERKNS_10minlmstateE
libgmsh.so.4.8:_ZN6alglib14minlmsetstpmaxERKNS_10minlmstateEd
libgmsh.so.4.8:_ZN6alglib14minqpsetoriginERKNS_10minqpstateERKNS_13real_1d_arrayE
libgmsh.so.4.8:_ZN6alglib14nleqresultsbufERKNS_9nleqstateERNS_13real_1d_arrayERNS_10nleqreportE
libgmsh.so.4.8:_ZN6alglib14rmatrixinverseERNS_13real_2d_arrayERlRNS_12matinvreportE
libgmsh.so.4.8:_ZN6alglib14rmatrixinverseERNS_13real_2d_arrayElRlRNS_12matinvreportE
libgmsh.so.4.8:_ZN6alglib14rmatrixlusolveERKNS_13real_2d_arrayERKNS_16integer_1d_arrayElRKNS_13real_1d_arrayERlRNS_17densesolverreportERS6_
libgmsh.so.4.8:_ZN6alglib14rmatrixrndcondEldRNS_13real_2d_arrayE
libgmsh.so.4.8:_ZN6alglib14rmatrixsolvelsERKNS_13real_2d_arrayEllRKNS_13real_1d_arrayEdRlRNS_19densesolverlsreportERS3_
libgmsh.so.4.8:_ZN6alglib14smatrixrndcondEldRNS_13real_2d_arrayE
libgmsh.so.4.8:_ZN6alglib14spdmatrixrcondERKNS_13real_2d_arrayElb
libgmsh.so.4.8:_ZN6alglib14spdmatrixsolveERKNS_13real_2d_arrayElbRKNS_13real_1d_arrayERlRNS_17densesolverreportERS3_
libgmsh.so.4.8:_ZN6alglib15cmatrixlefttrsmEllRKNS_16complex_2d_arrayEllbblRS0_ll
libgmsh.so.4.8:_ZN6alglib15cmatrixlurcond1ERKNS_16complex_2d_arrayEl
libgmsh.so.4.8:_ZN6alglib15cmatrixlusolvemERKNS_16complex_2d_arrayERKNS_16integer_1d_arrayElS2_lRlRNS_17densesolverreportERS0_
libgmsh.so.4.8:_ZN6alglib15cmatrixrcondinfERKNS_16complex_2d_arrayEl
libgmsh.so.4.8:_ZN6alglib15cmatrixtrrcond1ERKNS_16complex_2d_arrayElbb
libgmsh.so.4.8:_ZN6alglib15get_aenv_neginfEv
libgmsh.so.4.8:_ZN6alglib15get_aenv_posinfEv
libgmsh.so.4.8:_ZN6alglib15hpdmatrixsolvemERKNS_16complex_2d_arrayElbS2_lRlRNS_17densesolverreportERS0_
libgmsh.so.4.8:_ZN6alglib15kdtreequeryaknnERKNS_6kdtreeERKNS_13real_1d_arrayElbd
libgmsh.so.4.8:_ZN6alglib15kdtreequeryaknnERKNS_6kdtreeERKNS_13real_1d_arrayEld
libgmsh.so.4.8:_ZN6alglib15kdtreeserializeERNS_6kdtreeERNSt7__cxx1112basic_stringIcSt11char_traitsIcESaIcEEE
libgmsh.so.4.8:_ZN6alglib15minasaiterationERKNS_11minasastateE
libgmsh.so.4.8:_ZN6alglib15minasasetstpmaxERKNS_11minasastateEd
libgmsh.so.4.8:_ZN6alglib15minbleiccreatefERKNS_13real_1d_arrayEdRNS_13minbleicstateE
libgmsh.so.4.8:_ZN6alglib15minbleiccreatefElRKNS_13real_1d_arrayEdRNS_13minbleicstateE
libgmsh.so.4.8:_ZN6alglib15minbleicresultsERKNS_13minbleicstateERNS_13real_1d_arrayERNS_14minbleicreportE
libgmsh.so.4.8:_ZN6alglib15minbleicsetxrepERKNS_13minbleicstateEb
libgmsh.so.4.8:_ZN6alglib15mincgresultsbufERKNS_10mincgstateERNS_13real_1d_arrayERNS_11mincgreportE
libgmsh.so.4.8:_ZN6alglib15minlbfgscreatefElRKNS_13real_1d_arrayEdRNS_13minlbfgsstateE
libgmsh.so.4.8:_ZN6alglib15minlbfgscreatefEllRKNS_13real_1d_arrayEdRNS_13minlbfgsstateE
libgmsh.so.4.8:_ZN6alglib15minlbfgsresultsERKNS_13minlbfgsstateERNS_13real_1d_arrayERNS_14minlbfgsreportE
libgmsh.so.4.8:_ZN6alglib15minlbfgssetcondERKNS_13minlbfgsstateEdddl
libgmsh.so.4.8:_ZN6alglib15minlbfgssetxrepERKNS_13minlbfgsstateEb
libgmsh.so.4.8:_ZN6alglib15minlmresultsbufERKNS_10minlmstateERNS_13real_1d_arrayERNS_11minlmreportE
libgmsh.so.4.8:_ZN6alglib15minlmsetacctypeERKNS_10minlmstateEl
libgmsh.so.4.8:_ZN6alglib15minqpresultsbufERKNS_10minqpstateERNS_13real_1d_arrayERNS_11minqpreportE
libgmsh.so.4.8:_ZN6alglib15nleqrestartfromERKNS_9nleqstateERKNS_13real_1d_arrayE
libgmsh.so.4.8:_ZN6alglib15parse_int_delimEPKcS1_
libgmsh.so.4.8:_ZN6alglib15rmatrixlefttrsmEllRKNS_13real_2d_arrayEllbblRS0_ll
libgmsh.so.4.8:_ZN6alglib15rmatrixlurcond1ERKNS_13real_2d_arrayEl
libgmsh.so.4.8:_ZN6alglib15rmatrixlusolvemERKNS_13real_2d_arrayERKNS_16integer_1d_arrayElS2_lRlRNS_17densesolverreportERS0_
libgmsh.so.4.8:_ZN6alglib15rmatrixrcondinfERKNS_13real_2d_arrayEl
libgmsh.so.4.8:_ZN6alglib15rmatrixtrrcond1ERKNS_13real_2d_arrayElbb
libgmsh.so.4.8:_ZN6alglib15spdmatrixsolvemERKNS_13real_2d_arrayElbS2_lRlRNS_17densesolverreportERS0_
libgmsh.so.4.8:_ZN6alglib16_nleqstate_owner5c_ptrEv
libgmsh.so.4.8:_ZN6alglib16_nleqstate_ownerC1ERKS0_
libgmsh.so.4.8:_ZN6alglib16_nleqstate_ownerC1Ev
libgmsh.so.4.8:_ZN6alglib16_nleqstate_ownerC2ERKS0_
libgmsh.so.4.8:_ZN6alglib16_nleqstate_ownerC2Ev
libgmsh.so.4.8:_ZN6alglib16_nleqstate_ownerD0Ev
libgmsh.so.4.8:_ZN6alglib16_nleqstate_ownerD1Ev
libgmsh.so.4.8:_ZN6alglib16_nleqstate_ownerD2Ev
libgmsh.so.4.8:_ZN6alglib16_nleqstate_owneraSERKS0_
libgmsh.so.4.8:_ZN6alglib16boolean_1d_array10getcontentEv
libgmsh.so.4.8:_ZN6alglib16boolean_1d_array10setcontentElPKb
libgmsh.so.4.8:_ZN6alglib16boolean_1d_arrayC1EPKc
libgmsh.so.4.8:_ZN6alglib16boolean_1d_arrayC1EPN11alglib_impl9ae_vectorE
libgmsh.so.4.8:_ZN6alglib16boolean_1d_arrayC1Ev
libgmsh.so.4.8:_ZN6alglib16boolean_1d_arrayC2EPKc
libgmsh.so.4.8:_ZN6alglib16boolean_1d_arrayC2EPN11alglib_impl9ae_vectorE
libgmsh.so.4.8:_ZN6alglib16boolean_1d_arrayC2Ev
libgmsh.so.4.8:_ZN6alglib16boolean_1d_arrayD0Ev
libgmsh.so.4.8:_ZN6alglib16boolean_1d_arrayD1Ev
libgmsh.so.4.8:_ZN6alglib16boolean_1d_arrayD2Ev
libgmsh.so.4.8:_ZN6alglib16boolean_1d_arrayclEl
libgmsh.so.4.8:_ZN6alglib16boolean_1d_arrayixEl
libgmsh.so.4.8:_ZN6alglib16boolean_2d_array10setcontentEllPKb
libgmsh.so.4.8:_ZN6alglib16boolean_2d_arrayC1EPKc
libgmsh.so.4.8:_ZN6alglib16boolean_2d_arrayC1EPN11alglib_impl9ae_matrixE
libgmsh.so.4.8:_ZN6alglib16boolean_2d_arrayC1Ev
libgmsh.so.4.8:_ZN6alglib16boolean_2d_arrayC2EPKc
libgmsh.so.4.8:_ZN6alglib16boolean_2d_arrayC2EPN11alglib_impl9ae_matrixE
libgmsh.so.4.8:_ZN6alglib16boolean_2d_arrayC2Ev
libgmsh.so.4.8:_ZN6alglib16boolean_2d_arrayD0Ev
libgmsh.so.4.8:_ZN6alglib16boolean_2d_arrayD1Ev
libgmsh.so.4.8:_ZN6alglib16boolean_2d_arrayD2Ev
libgmsh.so.4.8:_ZN6alglib16boolean_2d_arrayclEll
libgmsh.so.4.8:_ZN6alglib16boolean_2d_arrayixEl
libgmsh.so.4.8:_ZN6alglib16cmatrixlqunpacklERKNS_16complex_2d_arrayEllRS0_
libgmsh.so.4.8:_ZN6alglib16cmatrixlqunpackqERKNS_16complex_2d_arrayEllRKNS_16complex_1d_arrayElRS0_
libgmsh.so.4.8:_ZN6alglib16cmatrixluinverseERNS_16complex_2d_arrayERKNS_16integer_1d_arrayERlRNS_12matinvreportE
libgmsh.so.4.8:_ZN6alglib16cmatrixluinverseERNS_16complex_2d_arrayERKNS_16integer_1d_arrayElRlRNS_12matinvreportE
libgmsh.so.4.8:_ZN6alglib16cmatrixqrunpackqERKNS_16complex_2d_arrayEllRKNS_16complex_1d_arrayElRS0_
libgmsh.so.4.8:_ZN6alglib16cmatrixqrunpackrERKNS_16complex_2d_arrayEllRS0_
libgmsh.so.4.8:_ZN6alglib16cmatrixrighttrsmEllRKNS_16complex_2d_arrayEllbblRS0_ll
libgmsh.so.4.8:_ZN6alglib16cmatrixtransposeEllRKNS_16complex_2d_arrayEllRS0_ll
libgmsh.so.4.8:_ZN6alglib16cmatrixtrinverseERNS_16complex_2d_arrayEbRlRNS_12matinvreportE
libgmsh.so.4.8:_ZN6alglib16cmatrixtrinverseERNS_16complex_2d_arrayElbbRlRNS_12matinvreportE
libgmsh.so.4.8:_ZN6alglib16complex_1d_array10getcontentEv
libgmsh.so.4.8:_ZN6alglib16complex_1d_array10setcontentElPKNS_7complexE
libgmsh.so.4.8:_ZN6alglib16complex_1d_arrayC1EPKc
libgmsh.so.4.8:_ZN6alglib16complex_1d_arrayC1EPN11alglib_impl9ae_vectorE
libgmsh.so.4.8:_ZN6alglib16complex_1d_arrayC1Ev
libgmsh.so.4.8:_ZN6alglib16complex_1d_arrayC2EPKc
libgmsh.so.4.8:_ZN6alglib16complex_1d_arrayC2EPN11alglib_impl9ae_vectorE
libgmsh.so.4.8:_ZN6alglib16complex_1d_arrayC2Ev
libgmsh.so.4.8:_ZN6alglib16complex_1d_arrayD0Ev
libgmsh.so.4.8:_ZN6alglib16complex_1d_arrayD1Ev
libgmsh.so.4.8:_ZN6alglib16complex_1d_arrayD2Ev
libgmsh.so.4.8:_ZN6alglib16complex_1d_arrayclEl
libgmsh.so.4.8:_ZN6alglib16complex_1d_arrayixEl
libgmsh.so.4.8:_ZN6alglib16complex_2d_array10setcontentEllPKNS_7complexE
libgmsh.so.4.8:_ZN6alglib16complex_2d_arrayC1EPKc
libgmsh.so.4.8:_ZN6alglib16complex_2d_arrayC1EPN11alglib_impl9ae_matrixE
libgmsh.so.4.8:_ZN6alglib16complex_2d_arrayC1Ev
libgmsh.so.4.8:_ZN6alglib16complex_2d_arrayC2EPKc
libgmsh.so.4.8:_ZN6alglib16complex_2d_arrayC2EPN11alglib_impl9ae_matrixE
libgmsh.so.4.8:_ZN6alglib16complex_2d_arrayC2Ev
libgmsh.so.4.8:_ZN6alglib16complex_2d_arrayD0Ev
libgmsh.so.4.8:_ZN6alglib16complex_2d_arrayD1Ev
libgmsh.so.4.8:_ZN6alglib16complex_2d_arrayD2Ev
libgmsh.so.4.8:_ZN6alglib16complex_2d_arrayclEll
libgmsh.so.4.8:_ZN6alglib16complex_2d_arrayixEl
libgmsh.so.4.8:_ZN6alglib16hmatrixtdunpackqERKNS_16complex_2d_arrayElbRKNS_16complex_1d_arrayERS0_
libgmsh.so.4.8:_ZN6alglib16hpdmatrixinverseERNS_16complex_2d_arrayERlRNS_12matinvreportE
libgmsh.so.4.8:_ZN6alglib16hpdmatrixinverseERNS_16complex_2d_arrayElbRlRNS_12matinvreportE
libgmsh.so.4.8:_ZN6alglib16hpdmatrixrndcondEldRNS_16complex_2d_arrayE
libgmsh.so.4.8:_ZN6alglib16hqrndexponentialERKNS_10hqrndstateEd
libgmsh.so.4.8:_ZN6alglib16integer_1d_array10getcontentEv
libgmsh.so.4.8:_ZN6alglib16integer_1d_array10setcontentElPKl
libgmsh.so.4.8:_ZN6alglib16integer_1d_arrayC1EPKc
libgmsh.so.4.8:_ZN6alglib16integer_1d_arrayC1EPN11alglib_impl9ae_vectorE
libgmsh.so.4.8:_ZN6alglib16integer_1d_arrayC1Ev
libgmsh.so.4.8:_ZN6alglib16integer_1d_arrayC2EPKc
libgmsh.so.4.8:_ZN6alglib16integer_1d_arrayC2EPN11alglib_impl9ae_vectorE
libgmsh.so.4.8:_ZN6alglib16integer_1d_arrayC2Ev
libgmsh.so.4.8:_ZN6alglib16integer_1d_arrayD0Ev
libgmsh.so.4.8:_ZN6alglib16integer_1d_arrayD1Ev
libgmsh.so.4.8:_ZN6alglib16integer_1d_arrayD2Ev
libgmsh.so.4.8:_ZN6alglib16integer_1d_arrayclEl
libgmsh.so.4.8:_ZN6alglib16integer_1d_arrayixEl
libgmsh.so.4.8:_ZN6alglib16integer_2d_array10setcontentEllPKl
libgmsh.so.4.8:_ZN6alglib16integer_2d_arrayC1EPKc
libgmsh.so.4.8:_ZN6alglib16integer_2d_arrayC1EPN11alglib_impl9ae_matrixE
libgmsh.so.4.8:_ZN6alglib16integer_2d_arrayC1Ev
libgmsh.so.4.8:_ZN6alglib16integer_2d_arrayC2EPKc
libgmsh.so.4.8:_ZN6alglib16integer_2d_arrayC2EPN11alglib_impl9ae_matrixE
libgmsh.so.4.8:_ZN6alglib16integer_2d_arrayC2Ev
libgmsh.so.4.8:_ZN6alglib16integer_2d_arrayD0Ev
libgmsh.so.4.8:_ZN6alglib16integer_2d_arrayD1Ev
libgmsh.so.4.8:_ZN6alglib16integer_2d_arrayD2Ev
libgmsh.so.4.8:_ZN6alglib16integer_2d_arrayclEll
libgmsh.so.4.8:_ZN6alglib16integer_2d_arrayixEl
libgmsh.so.4.8:_ZN6alglib16minasaresultsbufERKNS_11minasastateERNS_13real_1d_arrayERNS_12minasareportE
libgmsh.so.4.8:_ZN6alglib16minbleicoptimizeERNS_13minbleicstateEPFvRKNS_13real_1d_arrayERdPvEPFvS4_dS6_ES6_
libgmsh.so.4.8:_ZN6alglib16minbleicoptimizeERNS_13minbleicstateEPFvRKNS_13real_1d_arrayERdRS2_PvEPFvS4_dS7_ES7_
libgmsh.so.4.8:_ZN6alglib16minbleicsetscaleERKNS_13minbleicstateERKNS_13real_1d_arrayE
libgmsh.so.4.8:_ZN6alglib16mincgrestartfromERKNS_10mincgstateERKNS_13real_1d_arrayE
libgmsh.so.4.8:_ZN6alglib16mincgsetprecdiagERKNS_10mincgstateERKNS_13real_1d_arrayE
libgmsh.so.4.8:_ZN6alglib16mincgsuggeststepERKNS_10mincgstateEd
libgmsh.so.4.8:_ZN6alglib16minlbfgsoptimizeERNS_13minlbfgsstateEPFvRKNS_13real_1d_arrayERdPvEPFvS4_dS6_ES6_
